                                                                      Page 1
                                                              D:\TEMP\gh_00001gs1.s
Command Line: E:\uti\compiler\GHS\comp_201517\ease850.exe -w -stderr=err/r_fcl_hw_access.err -elf -b0 -I../../../bsw/_common -I../../../bsw/flash -I../../../bsw/flash/flashlib -Ie:/uti/compiler/ghs/comp_201517/ansi -Ie:/uti/compiler/ghs/comp_201517/include/v800 -Igendata -Iinclude -IE:\uti\compiler\GHS\comp_201517\lib\rh850 -cg_underscore -cpu=rh850g3m -no_v850_simd -rh850_fpsimd=none -nomacro -patch_dbo=D:\usr\usage\Delivery\CBD17x\CBD1700369\D04\external\BSW\Flash\build\obj\r_fcl_hw_access.dbo -source=r_fcl_hw_access.c -o obj\gh_00001gs1.o -list=lst/r_fcl_hw_access.lst D:\TEMP\gh_00001gs1.s 
Original File: D:\TEMP\gh_00001gs1.s
Source File: r_fcl_hw_access.c
Directory: D:\usr\usage\Delivery\CBD17x\CBD1700369\D04\external\BSW\Flash\build
Host OS: Windows 7 Service Pack 1
EASE: Copyright (C) 1983-2015 Green Hills Software.  All Rights Reserved.
Release: Compiler v2015.1.7
Build Directory: [Directory] BTOWORKER6:c:/build_2015_1_bto/2015-10-21.2100-2015_1_bto/win32-comp-ecom
Revision: [VCInfo] http://toolsvc/branches/release-branch-70-bto/src@544153 (built by build)
Revision Date: Thu Oct 22 07:50:13 2015

Release Date: Thu Oct 22 09:32:32 2015

                           1 --Driver Command: ccrh850 -DBRS_DERIVATIVE_701364 -DBRS_OSC_CLK=16
                           2 --		-DBRS_TIMEBASE_CLOCK=160 -DBRS_EVA_BOARD_NONE
                           3 --		-DBRS_DERIVATIVE_GROUP_P1M -DBRS_OS_USECASE_BRS
                           4 --		-DBRS_PLATFORM_RH850 -DBRS_COMP_GHS
                           5 --		-DBRS_CPU_LOCAL_RAM_SIZE_CORE0=128
                           6 --		-DBRS_CPU_RAM_START_CORE0=0xFEDE0000
                           7 --		-list=lst/r_fcl_hw_access.lst -object_dir=obj
                           8 --		-stderr=err/r_fcl_hw_access.err -c --short_enum -dual_debug
                           9 --		-shorten_loads -shorten_moves -g -sda=all -prepare_dispose
                          10 --		-inline_prologue -delete -ignore_callt_state_in_interrupts
                          11 --		-nofloatio -large_sda --no_commons -no_callt -reserve_r2
                          12 --		-cpu=rh850g3m -fhard -Ogeneral -I../../../bsw/_common
                          13 --		-I../../../bsw/flash -I../../../bsw/flash/flashlib
                          14 --		-Ie:/uti/compiler/ghs/comp_201517/ansi
                          15 --		-Ie:/uti/compiler/ghs/comp_201517/include/v800 -Igendata
                          16 --		-Iinclude ../../../BSW/Flash/FlashLib/r_fcl_hw_access.c
                          17 --Source File:   ../../../BSW/Flash/FlashLib/r_fcl_hw_access.c
                          18 --Directory:     
                          19 --		D:\usr\usage\Delivery\CBD17x\CBD1700369\D04\external\BSW\Flash\build
                          20 --Compile Date:  Wed Jan 10 11:39:26 2018
                          21 --Host OS:       Win32
                          22 --Version:       C-RH850 2015.1.7 RELEASE VERSION
                          23 --Release:       Compiler v2015.1.7
                          24 --Revision Date: Thu Oct 22 08:06:12 2015
                          25 --Release Date:  Thu Oct 22 09:34:32 2015
                          26 -- ecom  -g -w -OM
                          27 	.section ".R_FCL_CODE_RAM","ax"
                          28 	.align	2
                          29 ..bof.D.3A.5Cusr.5Cusage.5CDelivery.5CCBD17x.5CCBD1700369.5CD04.5Cexternal.5CBSW.5CFlash.5Cbuild.5Cobj.5Cr_fcl_hw_access...44.3A.5Cusr.5Cusage.5CDelivery.5CCBD17x.5CCBD1700369.5CD04.5Cexternal.5CBSW.5CFlash.5Cbuild..5A55ED5E..0::
                          30 	.align	2
                          31 ..gh.f.f.1.e.0:
                          32 	.type	..gh.f.f.1.e.0,@object
                          33 	.size	..gh.f.f.1.e.0,0
                          34 	.global	_R_FCL_I_read_memory_u32..D.3A.5Cusr.5Cusage.5CDelivery.5CCBD17x.5CCBD1700369.5CD04.5Cexternal.5CBSW.5CFlash.5Cbuild.5Cobj.5Cr_fcl_hw_access.
                          35 _R_FCL_I_read_memory_u32..D.3A.5Cusr.5Cusage.5CDelivery.5CCBD17x.5CCBD1700369.5CD04.5Cexternal.5CBSW.5CFlash.5Cbuild.5Cobj.5Cr_fcl_hw_access.:
                          36 _R_FCL_I_read_memory_u32:
00000000 06f0             37 	mov	r6,ep
                          38 --	    .bf
                          39 .LDW01:
00000002 0055             40 	sld.w	0[ep],r10
                          41 --	    .ef
                          42 .LDW11:
00000004 7f00             43 	jmp	[lp]
                          44 ___ghs_eofn_R_FCL_I_read_memory_u32:
                          45 	.type	_R_FCL_I_read_memory_u32,@function
                          46 	.size	_R_FCL_I_read_memory_u32,.-_R_FCL_I_read_memory_u32
                          47 	.type	_R_FCL_I_read_memory_u32..D.3A.5Cusr.5Cusage.5CDelivery.5CCBD17x.5CCBD1700369.5CD04.5Cexternal.5CBSW.5CFlash.5Cbuild.5Cobj.5Cr_fcl_hw_access.,@function
                          48 	.size	_R_FCL_I_read_memory_u32..D.3A.5Cusr.5Cusage.5CDelivery.5CCBD17x.5CCBD1700369.5CD04.5Cexternal.5CBSW.5CFlash.5Cbuild.5Cobj.5Cr_fcl_hw_access.,.-_R_FCL_I_read_memory_u32..D.3A.5Cusr.5Cusage.5CDelivery.5CCBD17x.5CCBD1700369.5CD04.5Cexternal.5CBSW.5CFlash.5Cbuild.5Cobj.5Cr_fcl_hw_access.
                          49 	.align	2
                          50 

                                                                      Page 2
                                                              D:\TEMP\gh_00001gs1.s
                          51 --_addr_u32	ep	param
                          52 
                          53 	.section ".bss","awb"
                          54 .L33:
                          55 	.type	.L33,@object
                          56 	.size	.L33,0
                          57 	.data
                          58 	.section ".R_FCL_CODE_RAM","ax"
                          59 	.align	2
                          60 	.align	2
                          61 ..gh.f.f.1.e.1:
                          62 	.type	..gh.f.f.1.e.1,@object
                          63 	.size	..gh.f.f.1.e.1,0
                          64 	.global	_R_FCL_I_read_memory_u16..D.3A.5Cusr.5Cusage.5CDelivery.5CCBD17x.5CCBD1700369.5CD04.5Cexternal.5CBSW.5CFlash.5Cbuild.5Cobj.5Cr_fcl_hw_access.
                          65 _R_FCL_I_read_memory_u16..D.3A.5Cusr.5Cusage.5CDelivery.5CCBD17x.5CCBD1700369.5CD04.5Cexternal.5CBSW.5CFlash.5Cbuild.5Cobj.5Cr_fcl_hw_access.:
                          66 _R_FCL_I_read_memory_u16:
00000006 06f0             67 	mov	r6,ep
                          68 --	    .bf
                          69 .LDW21:
00000008 7050             70 	sld.hu	0[ep],r10
                          71 --	    .ef
                          72 .LDW31:
0000000a 7f00             73 	jmp	[lp]
                          74 ___ghs_eofn_R_FCL_I_read_memory_u16:
                          75 	.type	_R_FCL_I_read_memory_u16,@function
                          76 	.size	_R_FCL_I_read_memory_u16,.-_R_FCL_I_read_memory_u16
                          77 	.type	_R_FCL_I_read_memory_u16..D.3A.5Cusr.5Cusage.5CDelivery.5CCBD17x.5CCBD1700369.5CD04.5Cexternal.5CBSW.5CFlash.5Cbuild.5Cobj.5Cr_fcl_hw_access.,@function
                          78 	.size	_R_FCL_I_read_memory_u16..D.3A.5Cusr.5Cusage.5CDelivery.5CCBD17x.5CCBD1700369.5CD04.5Cexternal.5CBSW.5CFlash.5Cbuild.5Cobj.5Cr_fcl_hw_access.,.-_R_FCL_I_read_memory_u16..D.3A.5Cusr.5Cusage.5CDelivery.5CCBD17x.5CCBD1700369.5CD04.5Cexternal.5CBSW.5CFlash.5Cbuild.5Cobj.5Cr_fcl_hw_access.
                          79 	.align	2
                          80 
                          81 --_addr_u32	ep	param
                          82 
                          83 	.section ".bss","awb"
                          84 .L84:
                          85 	.type	.L84,@object
                          86 	.size	.L84,0
                          87 	.data
                          88 	.section ".R_FCL_CODE_RAM","ax"
                          89 	.align	2
                          90 	.align	2
                          91 ..gh.f.f.1.e.2:
                          92 	.type	..gh.f.f.1.e.2,@object
                          93 	.size	..gh.f.f.1.e.2,0
                          94 	.global	_R_FCL_I_read_memory_u08..D.3A.5Cusr.5Cusage.5CDelivery.5CCBD17x.5CCBD1700369.5CD04.5Cexternal.5CBSW.5CFlash.5Cbuild.5Cobj.5Cr_fcl_hw_access.
                          95 _R_FCL_I_read_memory_u08..D.3A.5Cusr.5Cusage.5CDelivery.5CCBD17x.5CCBD1700369.5CD04.5Cexternal.5CBSW.5CFlash.5Cbuild.5Cobj.5Cr_fcl_hw_access.:
                          96 _R_FCL_I_read_memory_u08:
0000000c 06f0             97 	mov	r6,ep
                          98 --	    .bf
                          99 .LDW41:
0000000e 6050            100 	sld.bu	0[ep],r10
                         101 --	    .ef
                         102 .LDW51:
00000010 7f00            103 	jmp	[lp]
                         104 ___ghs_eofn_R_FCL_I_read_memory_u08:
                         105 	.type	_R_FCL_I_read_memory_u08,@function
                         106 	.size	_R_FCL_I_read_memory_u08,.-_R_FCL_I_read_memory_u08
                         107 	.type	_R_FCL_I_read_memory_u08..D.3A.5Cusr.5Cusage.5CDelivery.5CCBD17x.5CCBD1700369.5CD04.5Cexternal.5CBSW.5CFlash.5Cbuild.5Cobj.5Cr_fcl_hw_access.,@function
                         108 	.size	_R_FCL_I_read_memory_u08..D.3A.5Cusr.5Cusage.5CDelivery.5CCBD17x.5CCBD1700369.5CD04.5Cexternal.5CBSW.5CFlash.5Cbuild.5Cobj.5Cr_fcl_hw_access.,.-_R_FCL_I_read_memory_u08..D.3A.5Cusr.5Cusage.5CDelivery.5CCBD17x.5CCBD1700369.5CD04.5Cexternal.5CBSW.5CFlash.5Cbuild.5Cobj.5Cr_fcl_hw_access.
                         109 	.align	2
                         110 
                         111 --_addr_u32	ep	param

                                                                      Page 3
                                                              D:\TEMP\gh_00001gs1.s
                         112 
                         113 	.section ".bss","awb"
                         114 .L132:
                         115 	.type	.L132,@object
                         116 	.size	.L132,0
                         117 	.data
                         118 	.section ".R_FCL_CODE_RAM","ax"
                         119 	.align	2
                         120 	.align	2
                         121 ..gh.f.f.1.e.3:
                         122 	.type	..gh.f.f.1.e.3,@object
                         123 	.size	..gh.f.f.1.e.3,0
                         124 	.global	_R_FCL_I_write_memory_u08
                         125 _R_FCL_I_write_memory_u08:
00000012 06f0            126 	mov	r6,ep
                         127 --	    .bf
                         128 .LDW61:
00000014 803b            129 	sst.b	r7,0[ep]
                         130 --	    .ef
                         131 .LDW71:
00000016 7f00            132 	jmp	[lp]
                         133 	.global	___ghs_eofn_R_FCL_I_write_memory_u08
                         134 ___ghs_eofn_R_FCL_I_write_memory_u08:
                         135 	.type	_R_FCL_I_write_memory_u08,@function
                         136 	.size	_R_FCL_I_write_memory_u08,.-_R_FCL_I_write_memory_u08
                         137 	.align	2
                         138 
                         139 --_addr_u32	ep	param
                         140 --_val_u08	r7	param
                         141 
                         142 	.section ".bss","awb"
                         143 .L177:
                         144 	.type	.L177,@object
                         145 	.size	.L177,0
                         146 	.data
                         147 	.section ".R_FCL_CODE_RAM","ax"
                         148 	.align	2
                         149 	.align	2
                         150 ..gh.f.f.1.e.4:
                         151 	.type	..gh.f.f.1.e.4,@object
                         152 	.size	..gh.f.f.1.e.4,0
                         153 	.global	_R_FCL_I_write_unaligned_memory_u32..D.3A.5Cusr.5Cusage.5CDelivery.5CCBD17x.5CCBD1700369.5CD04.5Cexternal.5CBSW.5CFlash.5Cbuild.5Cobj.5Cr_fcl_hw_access.
                         154 _R_FCL_I_write_unaligned_memory_u32..D.3A.5Cusr.5Cusage.5CDelivery.5CCBD17x.5CCBD1700369.5CD04.5Cexternal.5CBSW.5CFlash.5Cbuild.5Cobj.5Cr_fcl_hw_access.:
                         155 _R_FCL_I_write_unaligned_memory_u32:
00000018 8007e100        156 	prepare	{r28,r29,r31},0
0000001c 06e8            157 	mov	r6,r29
0000001e 07e0            158 	mov	r7,r28
                         159 --	    .bf
                         160 .LDW81:
00000020 8700            161 	zxb	r7
                         162 	jarl	_R_FCL_I_write_memory_u08,lp
                         162 <EXPANSION BEGIN>
                         162 jarl22 _R_FCL_I_write_memory_u08 , lp 
00000022 bffff0ff*       162 <EXPANSION END>
                         163 --line236
                         164 ..lin.D.3A.5Cusr.5Cusage.5CDelivery.5CCBD17x.5CCBD1700369.5CD04.5Cexternal.5CBSW.5CFlash.5Cbuild.5Cobj.5Cr_fcl_hw_access.1::
                         165 .LDWlin1:
00000026 1c38            166 	mov	r28,r7
00000028 883a            167 	shr	8,r7
0000002a 4132            168 	add	1,r6
0000002c 8700            169 	zxb	r7

                                                                      Page 4
                                                              D:\TEMP\gh_00001gs1.s
                         170 	jarl	_R_FCL_I_write_memory_u08,lp
                         170 <EXPANSION BEGIN>
                         170 jarl22 _R_FCL_I_write_memory_u08 , lp 
0000002e bfffe4ff*       170 <EXPANSION END>
                         171 --line237
                         172 ..lin.D.3A.5Cusr.5Cusage.5CDelivery.5CCBD17x.5CCBD1700369.5CD04.5Cexternal.5CBSW.5CFlash.5Cbuild.5Cobj.5Cr_fcl_hw_access.2::
                         173 .LDWlin2:
00000032 1c38            174 	mov	r28,r7
00000034 903a            175 	shr	16,r7
00000036 1d360200        176 	addi	2,r29,r6
0000003a 8700            177 	zxb	r7
                         178 	jarl	_R_FCL_I_write_memory_u08,lp
                         178 <EXPANSION BEGIN>
                         178 jarl22 _R_FCL_I_write_memory_u08 , lp 
0000003c bfffd6ff*       178 <EXPANSION END>
                         179 --line238
                         180 ..lin.D.3A.5Cusr.5Cusage.5CDelivery.5CCBD17x.5CCBD1700369.5CD04.5Cexternal.5CBSW.5CFlash.5Cbuild.5Cobj.5Cr_fcl_hw_access.3::
                         181 .LDWlin3:
00000040 98e2            182 	shr	24,r28
00000042 1d360300        183 	addi	3,r29,r6
00000046 1c38            184 	mov	r28,r7
                         185 	jarl	_R_FCL_I_write_memory_u08,lp
                         185 <EXPANSION BEGIN>
                         185 jarl22 _R_FCL_I_write_memory_u08 , lp 
00000048 bfffcaff*       185 <EXPANSION END>
                         186 --	    .ef
                         187 .LDW91:
                         188 --line239
                         189 ..lin.D.3A.5Cusr.5Cusage.5CDelivery.5CCBD17x.5CCBD1700369.5CD04.5Cexternal.5CBSW.5CFlash.5Cbuild.5Cobj.5Cr_fcl_hw_access.4::
                         190 .LDWlin4:
0000004c 4006ff00        191 	dispose	0,{r28,r29,r31},[lp]
                         192 ___ghs_eofn_R_FCL_I_write_unaligned_memory_u32:
                         193 	.type	_R_FCL_I_write_unaligned_memory_u32,@function
                         194 	.size	_R_FCL_I_write_unaligned_memory_u32,.-_R_FCL_I_write_unaligned_memory_u32
                         195 	.type	_R_FCL_I_write_unaligned_memory_u32..D.3A.5Cusr.5Cusage.5CDelivery.5CCBD17x.5CCBD1700369.5CD04.5Cexternal.5CBSW.5CFlash.5Cbuild.5Cobj.5Cr_fcl_hw_access.,@function
                         196 	.size	_R_FCL_I_write_unaligned_memory_u32..D.3A.5Cusr.5Cusage.5CDelivery.5CCBD17x.5CCBD1700369.5CD04.5Cexternal.5CBSW.5CFlash.5Cbuild.5Cobj.5Cr_fcl_hw_access.,.-_R_FCL_I_write_unaligned_memory_u32..D.3A.5Cusr.5Cusage.5CDelivery.5CCBD17x.5CCBD1700369.5CD04.5Cexternal.5CBSW.5CFlash.5Cbuild.5Cobj.5Cr_fcl_hw_access.
                         197 	.align	2
                         198 
                         199 --_addr_u32	r29	param
                         200 --_val_u32	r28	param
                         201 
                         202 	.section ".bss","awb"
                         203 .L225:
                         204 	.type	.L225,@object
                         205 	.size	.L225,0
                         206 	.data
                         207 	.section ".R_FCL_CODE_RAM","ax"
                         208 	.align	2
                         209 	.align	2
                         210 ..gh.f.f.1.e.5:
                         211 	.type	..gh.f.f.1.e.5,@object
                         212 	.size	..gh.f.f.1.e.5,0
                         213 	.global	_R_FCL_I_write_memory_u32..D.3A.5Cusr.5Cusage.5CDelivery.5CCBD17x.5CCBD1700369.5CD04.5Cexternal.5CBSW.5CFlash.5Cbuild.5Cobj.5Cr_fcl_hw_access.
                         214 _R_FCL_I_write_memory_u32..D.3A.5Cusr.5Cusage.5CDelivery.5CCBD17x.5CCBD1700369.5CD04.5Cexternal.5CBSW.5CFlash.5Cbuild.5Cobj.5Cr_fcl_hw_access.:
                         215 _R_FCL_I_write_memory_u32:
00000050 06f0            216 	mov	r6,ep
                         217 --	    .bf
                         218 .LDW02:
00000052 013d            219 	sst.w	r7,0[ep]
                         220 --	    .ef
                         221 .LDW12:

                                                                      Page 5
                                                              D:\TEMP\gh_00001gs1.s
00000054 7f00            222 	jmp	[lp]
                         223 ___ghs_eofn_R_FCL_I_write_memory_u32:
                         224 	.type	_R_FCL_I_write_memory_u32,@function
                         225 	.size	_R_FCL_I_write_memory_u32,.-_R_FCL_I_write_memory_u32
                         226 	.type	_R_FCL_I_write_memory_u32..D.3A.5Cusr.5Cusage.5CDelivery.5CCBD17x.5CCBD1700369.5CD04.5Cexternal.5CBSW.5CFlash.5Cbuild.5Cobj.5Cr_fcl_hw_access.,@function
                         227 	.size	_R_FCL_I_write_memory_u32..D.3A.5Cusr.5Cusage.5CDelivery.5CCBD17x.5CCBD1700369.5CD04.5Cexternal.5CBSW.5CFlash.5Cbuild.5Cobj.5Cr_fcl_hw_access.,.-_R_FCL_I_write_memory_u32..D.3A.5Cusr.5Cusage.5CDelivery.5CCBD17x.5CCBD1700369.5CD04.5Cexternal.5CBSW.5CFlash.5Cbuild.5Cobj.5Cr_fcl_hw_access.
                         228 	.align	2
                         229 
                         230 --_addr_u32	ep	param
                         231 --_val_u32	r7	param
                         232 
                         233 	.section ".bss","awb"
                         234 .L273:
                         235 	.type	.L273,@object
                         236 	.size	.L273,0
                         237 	.data
                         238 	.section ".R_FCL_CODE_RAM","ax"
                         239 	.align	2
                         240 	.align	2
                         241 ..gh.f.f.1.e.6:
                         242 	.type	..gh.f.f.1.e.6,@object
                         243 	.size	..gh.f.f.1.e.6,0
                         244 	.global	_R_FCL_I_write_memory_u16..D.3A.5Cusr.5Cusage.5CDelivery.5CCBD17x.5CCBD1700369.5CD04.5Cexternal.5CBSW.5CFlash.5Cbuild.5Cobj.5Cr_fcl_hw_access.
                         245 _R_FCL_I_write_memory_u16..D.3A.5Cusr.5Cusage.5CDelivery.5CCBD17x.5CCBD1700369.5CD04.5Cexternal.5CBSW.5CFlash.5Cbuild.5Cobj.5Cr_fcl_hw_access.:
                         246 _R_FCL_I_write_memory_u16:
00000056 06f0            247 	mov	r6,ep
                         248 --	    .bf
                         249 .LDW22:
00000058 803c            250 	sst.h	r7,0[ep]
                         251 --	    .ef
                         252 .LDW32:
0000005a 7f00            253 	jmp	[lp]
                         254 ___ghs_eofn_R_FCL_I_write_memory_u16:
                         255 	.type	_R_FCL_I_write_memory_u16,@function
                         256 	.size	_R_FCL_I_write_memory_u16,.-_R_FCL_I_write_memory_u16
                         257 	.type	_R_FCL_I_write_memory_u16..D.3A.5Cusr.5Cusage.5CDelivery.5CCBD17x.5CCBD1700369.5CD04.5Cexternal.5CBSW.5CFlash.5Cbuild.5Cobj.5Cr_fcl_hw_access.,@function
                         258 	.size	_R_FCL_I_write_memory_u16..D.3A.5Cusr.5Cusage.5CDelivery.5CCBD17x.5CCBD1700369.5CD04.5Cexternal.5CBSW.5CFlash.5Cbuild.5Cobj.5Cr_fcl_hw_access.,.-_R_FCL_I_write_memory_u16..D.3A.5Cusr.5Cusage.5CDelivery.5CCBD17x.5CCBD1700369.5CD04.5Cexternal.5CBSW.5CFlash.5Cbuild.5Cobj.5Cr_fcl_hw_access.
                         259 	.align	2
                         260 
                         261 --_addr_u32	ep	param
                         262 --_val_u16	r7	param
                         263 
                         264 	.section ".bss","awb"
                         265 .L321:
                         266 	.type	.L321,@object
                         267 	.size	.L321,0
                         268 	.data
                         269 	.section ".R_FCL_CODE_RAM","ax"
                         270 	.align	2
                         271 	.align	2
                         272 	.align	2
                         273 ..gh.f.f.1.e.7:
                         274 	.type	..gh.f.f.1.e.7,@object
                         275 	.size	..gh.f.f.1.e.7,0
                         276 	.global	_R_FCL_FCUFct_GetConfigArea
                         277 _R_FCL_FCUFct_GetConfigArea:
0000005c 8007e170        278 	prepare	{r25,r26,r27,r28,r29,r31},0
                         279 --	    .bf
                         280 .LDW42:
00000060 0132            281 	mov	1,r6
                         282 	jarl	_R_FCL_FCUFct_Switch_BFlash,lp

                                                                      Page 6
                                                              D:\TEMP\gh_00001gs1.s
                         282 <EXPANSION BEGIN>
                         282 jarl22 _R_FCL_FCUFct_Switch_BFlash , lp 
00000062 80ff0000*       282 <EXPANSION END>
                         283 --line1067
                         284 ..lin.D.3A.5Cusr.5Cusage.5CDelivery.5CCBD17x.5CCBD1700369.5CD04.5Cexternal.5CBSW.5CFlash.5Cbuild.5Cobj.5Cr_fcl_hw_access.5::
                         285 .LDWlin5:
                         286 	jarl	_R_FCL_FCUFct_Clear_Cache,lp
                         286 <EXPANSION BEGIN>
                         286 jarl22 _R_FCL_FCUFct_Clear_Cache , lp 
00000066 80ff0000*       286 <EXPANSION END>
                         287 --line1069
                         288 ..lin.D.3A.5Cusr.5Cusage.5CDelivery.5CCBD17x.5CCBD1700369.5CD04.5Cexternal.5CBSW.5CFlash.5Cbuild.5Cobj.5Cr_fcl_hw_access.6::
                         289 .LDWlin6:
0000006a 3a0600000000*   290 	mov	_g_fcl_data_str,r26
00000070 3af70500        291 	ld.w	4[r26],ep
00000074 0083            292 	sld.b	0[ep],r16
00000076 6a82            293 	cmp	10,r16
00000078 fa05*           294 	bne	.L341
                         295 --line1071
                         296 ..lin.D.3A.5Cusr.5Cusage.5CDelivery.5CCBD17x.5CCBD1700369.5CD04.5Cexternal.5CBSW.5CFlash.5Cbuild.5Cobj.5Cr_fcl_hw_access.7::
                         297 .LDWlin7:
0000007a 3d06700030ff    298 	mov	-13631376,r29
00000080 20ce1000        299 	movea	16,zero,r25
00000084 9515*           300 	br	.L343
                         301 .L341:
                         302 --line1074
                         303 ..lin.D.3A.5Cusr.5Cusage.5CDelivery.5CCBD17x.5CCBD1700369.5CD04.5Cexternal.5CBSW.5CFlash.5Cbuild.5Cobj.5Cr_fcl_hw_access.8::
                         304 .LDWlin8:
00000086 007b            305 	sld.b	0[ep],r15
00000088 3206500030ff    306 	mov	-13631408,r18
0000008e 08ca            307 	mov	8,r25
00000090 12e8            308 	mov	r18,r29
00000092 6c7a            309 	cmp	12,r15
00000094 920d*           310 	be	.L343
                         311 --line1079
                         312 ..lin.D.3A.5Cusr.5Cusage.5CDelivery.5CCBD17x.5CCBD1700369.5CD04.5Cexternal.5CBSW.5CFlash.5Cbuild.5Cobj.5Cr_fcl_hw_access.9::
                         313 .LDWlin9:
00000096 0073            314 	sld.b	0[ep],r14
00000098 6872            315 	cmp	8,r14
0000009a ca05*           316 	bne	.L347
                         317 --line1081
                         318 ..lin.D.3A.5Cusr.5Cusage.5CDelivery.5CCBD17x.5CCBD1700369.5CD04.5Cexternal.5CBSW.5CFlash.5Cbuild.5Cobj.5Cr_fcl_hw_access.10::
                         319 .LDWlin10:
0000009c 3aef0900        320 	ld.w	8[r26],r29
000000a0 b505*           321 	br	.L343
                         322 .L347:
                         323 --line1087
                         324 ..lin.D.3A.5Cusr.5Cusage.5CDelivery.5CCBD17x.5CCBD1700369.5CD04.5Cexternal.5CBSW.5CFlash.5Cbuild.5Cobj.5Cr_fcl_hw_access.11::
                         325 .LDWlin11:
000000a2 12ee1000        326 	addi	16,r18,r29
                         327 .L343:
000000a6 02dd            328 	sld.w	4[ep],r27
000000a8 00e2            329 	mov	0,r28
000000aa c50d*           330 	br	.L353
                         331 .L352:
                         332 --line1095
                         333 ..lin.D.3A.5Cusr.5Cusage.5CDelivery.5CCBD17x.5CCBD1700369.5CD04.5Cexternal.5CBSW.5CFlash.5Cbuild.5Cobj.5Cr_fcl_hw_access.12::
                         334 .LDWlin12:
000000ac 1d30            335 	mov	r29,r6
                         336 	jarl	_R_FCL_I_read_memory_u08,lp
                         336 <EXPANSION BEGIN>

                                                                      Page 7
                                                              D:\TEMP\gh_00001gs1.s
                         336 jarl22 _R_FCL_I_read_memory_u08 , lp 
000000ae bfff5eff*       336 <EXPANSION END>
                         337 --line1096
                         338 ..lin.D.3A.5Cusr.5Cusage.5CDelivery.5CCBD17x.5CCBD1700369.5CD04.5Cexternal.5CBSW.5CFlash.5Cbuild.5Cobj.5Cr_fcl_hw_access.13::
                         339 .LDWlin13:
000000b2 1b30            340 	mov	r27,r6
000000b4 0a38            341 	mov	r10,r7
                         342 	jarl	_R_FCL_I_write_memory_u08,lp
                         342 <EXPANSION BEGIN>
                         342 jarl22 _R_FCL_I_write_memory_u08 , lp 
000000b6 bfff5cff*       342 <EXPANSION END>
                         343 --line1097
                         344 ..lin.D.3A.5Cusr.5Cusage.5CDelivery.5CCBD17x.5CCBD1700369.5CD04.5Cexternal.5CBSW.5CFlash.5Cbuild.5Cobj.5Cr_fcl_hw_access.14::
                         345 .LDWlin14:
000000ba 41e2            346 	add	1,r28
000000bc 41da            347 	add	1,r27
000000be 41ea            348 	add	1,r29
000000c0 dc00            349 	zxh	r28
                         350 .L353:
000000c2 1988            351 	mov	r25,r17
000000c4 c18a            352 	shl	1,r17
000000c6 f1e1            353 	cmp	r17,r28
000000c8 a1f5*           354 	bl	.L352
                         355 --line1101
                         356 ..lin.D.3A.5Cusr.5Cusage.5CDelivery.5CCBD17x.5CCBD1700369.5CD04.5Cexternal.5CBSW.5CFlash.5Cbuild.5Cobj.5Cr_fcl_hw_access.15::
                         357 .LDWlin15:
000000ca 0032            358 	mov	0,r6
                         359 	jarl	_R_FCL_FCUFct_Switch_BFlash,lp
                         359 <EXPANSION BEGIN>
                         359 jarl22 _R_FCL_FCUFct_Switch_BFlash , lp 
000000cc 80ff0000*       359 <EXPANSION END>
                         360 --line1102
                         361 ..lin.D.3A.5Cusr.5Cusage.5CDelivery.5CCBD17x.5CCBD1700369.5CD04.5Cexternal.5CBSW.5CFlash.5Cbuild.5Cobj.5Cr_fcl_hw_access.16::
                         362 .LDWlin16:
                         363 	jarl	_R_FCL_FCUFct_Clear_Cache,lp
                         363 <EXPANSION BEGIN>
                         363 jarl22 _R_FCL_FCUFct_Clear_Cache , lp 
000000d0 80ff0000*       363 <EXPANSION END>
                         364 --line1104
                         365 ..lin.D.3A.5Cusr.5Cusage.5CDelivery.5CCBD17x.5CCBD1700369.5CD04.5Cexternal.5CBSW.5CFlash.5Cbuild.5Cobj.5Cr_fcl_hw_access.17::
                         366 .LDWlin17:
000000d4 3af70500        367 	ld.w	4[r26],ep
000000d8 8e03            368 	sst.b	zero,14[ep]
                         369 --	    .ef
                         370 .LDW52:
000000da 4006ff70        371 	dispose	0,{r25,r26,r27,r28,r29,r31},[lp]
                         372 	.global	___ghs_eofn_R_FCL_FCUFct_GetConfigArea
                         373 ___ghs_eofn_R_FCL_FCUFct_GetConfigArea:
                         374 	.type	_R_FCL_FCUFct_GetConfigArea,@function
                         375 	.size	_R_FCL_FCUFct_GetConfigArea,.-_R_FCL_FCUFct_GetConfigArea
                         376 	.align	2
                         377 --_i	r28	local
                         378 --_bufAddr	r27	local
                         379 --_readAddr	r29	local
                         380 --_cnt	r25	local
                         381 
                         382 	.section ".bss","awb"
                         383 .L435:
                         384 	.type	.L435,@object
                         385 	.size	.L435,0
                         386 	.data

                                                                      Page 8
                                                              D:\TEMP\gh_00001gs1.s
                         387 	.section ".R_FCL_CODE_RAM","ax"
                         388 	.section ".R_FCL_CODE_ROMRAM","ax"
                         389 	.align	2
                         390 ..bof.D.3A.5Cusr.5Cusage.5CDelivery.5CCBD17x.5CCBD1700369.5CD04.5Cexternal.5CBSW.5CFlash.5Cbuild.5Cobj.5Cr_fcl_hw_access...44.3A.5Cusr.5Cusage.5CDelivery.5CCBD17x.5CCBD1700369.5CD04.5Cexternal.5CBSW.5CFlash.5Cbuild..5A55ED5E..1::
                         391 	.align	2
                         392 ..gh.f.f.1.e.8:
                         393 	.type	..gh.f.f.1.e.8,@object
                         394 	.size	..gh.f.f.1.e.8,0
                         395 	.global	_R_FCL_Fct_CallFromRAM
                         396 _R_FCL_Fct_CallFromRAM:
00000000 80076100        397 	prepare	{r29,r31},0
                         398 --	    .bf
                         399 .LDW62:
00000004 40ee0000*       400 	movhi	hi(_g_fcl_data_str+96),zero,r29
00000008 3def0100*       401 	ld.w	lo(_g_fcl_data_str+96)[r29],r29
0000000c e0e9            402 	cmp	zero,r29
0000000e d205*           403 	be	.L541
                         404 --line359
                         405 ..lin.D.3A.5Cusr.5Cusage.5CDelivery.5CCBD17x.5CCBD1700369.5CD04.5Cexternal.5CBSW.5CFlash.5Cbuild.5Cobj.5Cr_fcl_hw_access.18::
                         406 .LDWlin18:
00000010 fdc760f9        407 	jarl	[r29],lp
00000014 40067f00        408 	dispose	0,{r29,r31},[lp]
                         409 .L541:
                         410 --line363
                         411 ..lin.D.3A.5Cusr.5Cusage.5CDelivery.5CCBD17x.5CCBD1700369.5CD04.5Cexternal.5CBSW.5CFlash.5Cbuild.5Cobj.5Cr_fcl_hw_access.19::
                         412 .LDWlin19:
                         413 	jarl	_R_FCL_FCUFct_GetConfigArea,lp
                         413 <EXPANSION BEGIN>
                         413 jarl22 _R_FCL_FCUFct_GetConfigArea , lp 
00000018 80ff0000*       413 <EXPANSION END>
                         414 --	    .ef
                         415 .LDW72:
                         416 --line365
                         417 ..lin.D.3A.5Cusr.5Cusage.5CDelivery.5CCBD17x.5CCBD1700369.5CD04.5Cexternal.5CBSW.5CFlash.5Cbuild.5Cobj.5Cr_fcl_hw_access.20::
                         418 .LDWlin20:
0000001c 40067f00        419 	dispose	0,{r29,r31},[lp]
                         420 	.global	___ghs_eofn_R_FCL_Fct_CallFromRAM
                         421 ___ghs_eofn_R_FCL_Fct_CallFromRAM:
                         422 	.type	_R_FCL_Fct_CallFromRAM,@function
                         423 	.size	_R_FCL_Fct_CallFromRAM,.-_R_FCL_Fct_CallFromRAM
                         424 	.align	2
                         425 
                         426 	.section ".bss","awb"
                         427 .L571:
                         428 	.type	.L571,@object
                         429 	.size	.L571,0
                         430 	.data
                         431 	.section ".R_FCL_CODE_ROMRAM","ax"
                         432 	.section ".R_FCL_CODE_RAM","ax"
                         433 	.align	2
                         434 	.align	2
                         435 ..gh.f.f.1.e.9:
                         436 	.type	..gh.f.f.1.e.9,@object
                         437 	.size	..gh.f.f.1.e.9,0
                         438 	.global	_R_FCL_FCUFct_VerifyID..D.3A.5Cusr.5Cusage.5CDelivery.5CCBD17x.5CCBD1700369.5CD04.5Cexternal.5CBSW.5CFlash.5Cbuild.5Cobj.5Cr_fcl_hw_access.
                         439 _R_FCL_FCUFct_VerifyID..D.3A.5Cusr.5Cusage.5CDelivery.5CCBD17x.5CCBD1700369.5CD04.5Cexternal.5CBSW.5CFlash.5Cbuild.5Cobj.5Cr_fcl_hw_access.:
                         440 _R_FCL_FCUFct_VerifyID:
000000de 8007a100        441 	prepare	{r28,r31},0
                         442 --	    .bf
                         443 .LDW82:
000000e2 40e60000*       444 	movhi	hi(_g_fcl_data_str),zero,r28

                                                                      Page 9
                                                              D:\TEMP\gh_00001gs1.s
000000e6 3cf70100*       445 	ld.w	lo(_g_fcl_data_str)[r28],ep
000000ea 26060080a0ff    446 	mov	-6258688,r6
000000f0 003d            447 	sld.w	0[ep],r7
                         448 	jarl	_R_FCL_I_write_memory_u32,lp
                         448 <EXPANSION BEGIN>
                         448 jarl22 _R_FCL_I_write_memory_u32 , lp 
000000f2 bfff5eff*       448 <EXPANSION END>
                         449 --line400
                         450 ..lin.D.3A.5Cusr.5Cusage.5CDelivery.5CCBD17x.5CCBD1700369.5CD04.5Cexternal.5CBSW.5CFlash.5Cbuild.5Cobj.5Cr_fcl_hw_access.21::
                         451 .LDWlin21:
000000f6 3cf70100*       452 	ld.w	lo(_g_fcl_data_str)[r28],ep
000000fa 4432            453 	add	4,r6
000000fc 023d            454 	sld.w	4[ep],r7
                         455 	jarl	_R_FCL_I_write_memory_u32,lp
                         455 <EXPANSION BEGIN>
                         455 jarl22 _R_FCL_I_write_memory_u32 , lp 
000000fe bfff52ff*       455 <EXPANSION END>
                         456 --line401
                         457 ..lin.D.3A.5Cusr.5Cusage.5CDelivery.5CCBD17x.5CCBD1700369.5CD04.5Cexternal.5CBSW.5CFlash.5Cbuild.5Cobj.5Cr_fcl_hw_access.22::
                         458 .LDWlin22:
00000102 3cf70100*       459 	ld.w	lo(_g_fcl_data_str)[r28],ep
00000106 4432            460 	add	4,r6
00000108 043d            461 	sld.w	8[ep],r7
                         462 	jarl	_R_FCL_I_write_memory_u32,lp
                         462 <EXPANSION BEGIN>
                         462 jarl22 _R_FCL_I_write_memory_u32 , lp 
0000010a bfff46ff*       462 <EXPANSION END>
                         463 --line402
                         464 ..lin.D.3A.5Cusr.5Cusage.5CDelivery.5CCBD17x.5CCBD1700369.5CD04.5Cexternal.5CBSW.5CFlash.5Cbuild.5Cobj.5Cr_fcl_hw_access.23::
                         465 .LDWlin23:
0000010e 3cf70100*       466 	ld.w	lo(_g_fcl_data_str)[r28],ep
00000112 4432            467 	add	4,r6
00000114 063d            468 	sld.w	12[ep],r7
                         469 	jarl	_R_FCL_I_write_memory_u32,lp
                         469 <EXPANSION BEGIN>
                         469 jarl22 _R_FCL_I_write_memory_u32 , lp 
00000116 bfff3aff*       469 <EXPANSION END>
                         470 --line405
                         471 ..lin.D.3A.5Cusr.5Cusage.5CDelivery.5CCBD17x.5CCBD1700369.5CD04.5Cexternal.5CBSW.5CFlash.5Cbuild.5Cobj.5Cr_fcl_hw_access.24::
                         472 .LDWlin24:
                         473 	jarl	_R_FCL_I_read_memory_u32,lp
                         473 <EXPANSION BEGIN>
                         473 jarl22 _R_FCL_I_read_memory_u32 , lp 
0000011a bfffe6fe*       473 <EXPANSION END>
                         474 --line408
                         475 ..lin.D.3A.5Cusr.5Cusage.5CDelivery.5CCBD17x.5CCBD1700369.5CD04.5Cexternal.5CBSW.5CFlash.5Cbuild.5Cobj.5Cr_fcl_hw_access.25::
                         476 .LDWlin25:
0000011e 4432            477 	add	4,r6
                         478 	jarl	_R_FCL_I_read_memory_u32,lp
                         478 <EXPANSION BEGIN>
                         478 jarl22 _R_FCL_I_read_memory_u32 , lp 
00000120 bfffe0fe*       478 <EXPANSION END>
                         479 --line409
                         480 ..lin.D.3A.5Cusr.5Cusage.5CDelivery.5CCBD17x.5CCBD1700369.5CD04.5Cexternal.5CBSW.5CFlash.5Cbuild.5Cobj.5Cr_fcl_hw_access.26::
                         481 .LDWlin26:
00000124 6152            482 	cmp	1,r10
00000126 e5070453        483 	cmove	5,zero,r10
                         484 --	    .ef
                         485 .LDW92:
0000012a 4006bf00        486 	dispose	0,{r28,r31},[lp]
                         487 ___ghs_eofn_R_FCL_FCUFct_VerifyID:

                                                                      Page 10
                                                              D:\TEMP\gh_00001gs1.s
                         488 	.type	_R_FCL_FCUFct_VerifyID,@function
                         489 	.size	_R_FCL_FCUFct_VerifyID,.-_R_FCL_FCUFct_VerifyID
                         490 	.type	_R_FCL_FCUFct_VerifyID..D.3A.5Cusr.5Cusage.5CDelivery.5CCBD17x.5CCBD1700369.5CD04.5Cexternal.5CBSW.5CFlash.5Cbuild.5Cobj.5Cr_fcl_hw_access.,@function
                         491 	.size	_R_FCL_FCUFct_VerifyID..D.3A.5Cusr.5Cusage.5CDelivery.5CCBD17x.5CCBD1700369.5CD04.5Cexternal.5CBSW.5CFlash.5Cbuild.5Cobj.5Cr_fcl_hw_access.,.-_R_FCL_FCUFct_VerifyID..D.3A.5Cusr.5Cusage.5CDelivery.5CCBD17x.5CCBD1700369.5CD04.5Cexternal.5CBSW.5CFlash.5Cbuild.5Cobj.5Cr_fcl_hw_access.
                         492 	.align	2
                         493 --_ret	r10	local
                         494 
                         495 	.section ".bss","awb"
                         496 .L648:
                         497 	.type	.L648,@object
                         498 	.size	.L648,0
                         499 	.data
                         500 	.section ".R_FCL_CODE_RAM","ax"
                         501 	.align	2
                         502 	.align	2
                         503 ..gh.f.f.1.e.10:
                         504 	.type	..gh.f.f.1.e.10,@object
                         505 	.size	..gh.f.f.1.e.10,0
                         506 	.global	_R_FCL_FCUFct_VerifyChecksum..D.3A.5Cusr.5Cusage.5CDelivery.5CCBD17x.5CCBD1700369.5CD04.5Cexternal.5CBSW.5CFlash.5Cbuild.5Cobj.5Cr_fcl_hw_access.
                         507 _R_FCL_FCUFct_VerifyChecksum..D.3A.5Cusr.5Cusage.5CDelivery.5CCBD17x.5CCBD1700369.5CD04.5Cexternal.5CBSW.5CFlash.5Cbuild.5Cobj.5Cr_fcl_hw_access.:
                         508 _R_FCL_FCUFct_VerifyChecksum:
0000012e 8007e130        509 	prepare	{r26,r27,r28,r29,r31},0
                         510 --	    .bf
                         511 .LDW03:
00000132 26065400a1ff    512 	mov	-6225836,r6
00000138 803e01c4        513 	ori	50177,zero,r7
                         514 	jarl	_R_FCL_I_write_memory_u16,lp
                         514 <EXPANSION BEGIN>
                         514 jarl22 _R_FCL_I_write_memory_u16 , lp 
0000013c bfff1aff*       514 <EXPANSION END>
                         515 --line449
                         516 ..lin.D.3A.5Cusr.5Cusage.5CDelivery.5CCBD17x.5CCBD1700369.5CD04.5Cexternal.5CBSW.5CFlash.5Cbuild.5Cobj.5Cr_fcl_hw_access.27::
                         517 .LDWlin27:
00000140 0132            518 	mov	1,r6
                         519 	jarl	_R_FCL_FCUFct_Switch_BFlash,lp
                         519 <EXPANSION BEGIN>
                         519 jarl22 _R_FCL_FCUFct_Switch_BFlash , lp 
00000142 80ff0000*       519 <EXPANSION END>
                         520 --line450
                         521 ..lin.D.3A.5Cusr.5Cusage.5CDelivery.5CCBD17x.5CCBD1700369.5CD04.5Cexternal.5CBSW.5CFlash.5Cbuild.5Cobj.5Cr_fcl_hw_access.28::
                         522 .LDWlin28:
                         523 	jarl	_R_FCL_FCUFct_Clear_Cache,lp
                         523 <EXPANSION BEGIN>
                         523 jarl22 _R_FCL_FCUFct_Clear_Cache , lp 
00000146 80ff0000*       523 <EXPANSION END>
                         524 --line452
                         525 ..lin.D.3A.5Cusr.5Cusage.5CDelivery.5CCBD17x.5CCBD1700369.5CD04.5Cexternal.5CBSW.5CFlash.5Cbuild.5Cobj.5Cr_fcl_hw_access.29::
                         526 .LDWlin29:
0000014a 2606f87f0100    527 	mov	98296,r6
                         528 	jarl	_R_FCL_I_read_memory_u32,lp
                         528 <EXPANSION BEGIN>
                         528 jarl22 _R_FCL_I_read_memory_u32 , lp 
00000150 bfffb0fe*       528 <EXPANSION END>
                         529 --line453
                         530 ..lin.D.3A.5Cusr.5Cusage.5CDelivery.5CCBD17x.5CCBD1700369.5CD04.5Cexternal.5CBSW.5CFlash.5Cbuild.5Cobj.5Cr_fcl_hw_access.30::
                         531 .LDWlin30:
00000154 0ae0            532 	mov	r10,r28
00000156 4432            533 	add	4,r6
                         534 	jarl	_R_FCL_I_read_memory_u32,lp
                         534 <EXPANSION BEGIN>
                         534 jarl22 _R_FCL_I_read_memory_u32 , lp 

                                                                      Page 11
                                                              D:\TEMP\gh_00001gs1.s
00000158 bfffa8fe*       534 <EXPANSION END>
                         535 --line456
                         536 ..lin.D.3A.5Cusr.5Cusage.5CDelivery.5CCBD17x.5CCBD1700369.5CD04.5Cexternal.5CBSW.5CFlash.5Cbuild.5Cobj.5Cr_fcl_hw_access.31::
                         537 .LDWlin31:
0000015c 0ad0            538 	mov	r10,r26
0000015e 0032            539 	mov	0,r6
                         540 	jarl	_R_FCL_FCUFct_Switch_BFlash,lp
                         540 <EXPANSION BEGIN>
                         540 jarl22 _R_FCL_FCUFct_Switch_BFlash , lp 
00000160 80ff0000*       540 <EXPANSION END>
                         541 --line457
                         542 ..lin.D.3A.5Cusr.5Cusage.5CDelivery.5CCBD17x.5CCBD1700369.5CD04.5Cexternal.5CBSW.5CFlash.5Cbuild.5Cobj.5Cr_fcl_hw_access.32::
                         543 .LDWlin32:
                         544 	jarl	_R_FCL_FCUFct_Clear_Cache,lp
                         544 <EXPANSION BEGIN>
                         544 jarl22 _R_FCL_FCUFct_Clear_Cache , lp 
00000164 80ff0000*       544 <EXPANSION END>
                         545 --line462
                         546 ..lin.D.3A.5Cusr.5Cusage.5CDelivery.5CCBD17x.5CCBD1700369.5CD04.5Cexternal.5CBSW.5CFlash.5Cbuild.5Cobj.5Cr_fcl_hw_access.33::
                         547 .LDWlin33:
00000168 c2e2            548 	shl	2,r28
0000016a 00da            549 	mov	0,r27
0000016c 3d060020a1ff    550 	mov	-6217728,r29
00000172 dde1            551 	add	r29,r28
00000174 e505*           552 	br	.L674
                         553 .L673:
                         554 --line465
                         555 ..lin.D.3A.5Cusr.5Cusage.5CDelivery.5CCBD17x.5CCBD1700369.5CD04.5Cexternal.5CBSW.5CFlash.5Cbuild.5Cobj.5Cr_fcl_hw_access.34::
                         556 .LDWlin34:
00000176 1d30            557 	mov	r29,r6
                         558 	jarl	_R_FCL_I_read_memory_u16,lp
                         558 <EXPANSION BEGIN>
                         558 jarl22 _R_FCL_I_read_memory_u16 , lp 
00000178 bfff8efe*       558 <EXPANSION END>
                         559 --line463
                         560 ..lin.D.3A.5Cusr.5Cusage.5CDelivery.5CCBD17x.5CCBD1700369.5CD04.5Cexternal.5CBSW.5CFlash.5Cbuild.5Cobj.5Cr_fcl_hw_access.35::
                         561 .LDWlin35:
0000017c cad9            562 	add	r10,r27
0000017e 42ea            563 	add	2,r29
                         564 .L674:
00000180 fce9            565 	cmp	r28,r29
00000182 a1fd*           566 	bl	.L673
                         567 --line469
                         568 ..lin.D.3A.5Cusr.5Cusage.5CDelivery.5CCBD17x.5CCBD1700369.5CD04.5Cexternal.5CBSW.5CFlash.5Cbuild.5Cobj.5Cr_fcl_hw_access.36::
                         569 .LDWlin36:
00000184 26065400a1ff    570 	mov	-6225836,r6
0000018a 803e00c4        571 	ori	50176,zero,r7
                         572 	jarl	_R_FCL_I_write_memory_u16,lp
                         572 <EXPANSION BEGIN>
                         572 jarl22 _R_FCL_I_write_memory_u16 , lp 
0000018e bfffc8fe*       572 <EXPANSION END>
                         573 --line472
                         574 ..lin.D.3A.5Cusr.5Cusage.5CDelivery.5CCBD17x.5CCBD1700369.5CD04.5Cexternal.5CBSW.5CFlash.5Cbuild.5Cobj.5Cr_fcl_hw_access.37::
                         575 .LDWlin37:
00000192 3e0600000000*   576 	mov	_g_fcl_data_str+8,ep
00000198 fad9            577 	cmp	r26,r27
0000019a d205*           578 	be	.L675
                         579 --line474
                         580 ..lin.D.3A.5Cusr.5Cusage.5CDelivery.5CCBD17x.5CCBD1700369.5CD04.5Cexternal.5CBSW.5CFlash.5Cbuild.5Cobj.5Cr_fcl_hw_access.38::
                         581 .LDWlin38:
0000019c 0d4a            582 	mov	13,r9

                                                                      Page 12
                                                              D:\TEMP\gh_00001gs1.s
0000019e 8b4b            583 	sst.b	r9,11[ep]
000001a0 0c92            584 	mov	12,r18
000001a2 a505*           585 	br	.L706
                         586 .L675:
                         587 --line479
                         588 ..lin.D.3A.5Cusr.5Cusage.5CDelivery.5CCBD17x.5CCBD1700369.5CD04.5Cexternal.5CBSW.5CFlash.5Cbuild.5Cobj.5Cr_fcl_hw_access.39::
                         589 .LDWlin39:
000001a4 0592            590 	mov	5,r18
                         591 .L706:
000001a6 8a93            592 	sst.b	r18,10[ep]
                         593 --	    .ef
                         594 .LDW13:
000001a8 4006ff30        595 	dispose	0,{r26,r27,r28,r29,r31},[lp]
                         596 ___ghs_eofn_R_FCL_FCUFct_VerifyChecksum:
                         597 	.type	_R_FCL_FCUFct_VerifyChecksum,@function
                         598 	.size	_R_FCL_FCUFct_VerifyChecksum,.-_R_FCL_FCUFct_VerifyChecksum
                         599 	.type	_R_FCL_FCUFct_VerifyChecksum..D.3A.5Cusr.5Cusage.5CDelivery.5CCBD17x.5CCBD1700369.5CD04.5Cexternal.5CBSW.5CFlash.5Cbuild.5Cobj.5Cr_fcl_hw_access.,@function
                         600 	.size	_R_FCL_FCUFct_VerifyChecksum..D.3A.5Cusr.5Cusage.5CDelivery.5CCBD17x.5CCBD1700369.5CD04.5Cexternal.5CBSW.5CFlash.5Cbuild.5Cobj.5Cr_fcl_hw_access.,.-_R_FCL_FCUFct_VerifyChecksum..D.3A.5Cusr.5Cusage.5CDelivery.5CCBD17x.5CCBD1700369.5CD04.5Cexternal.5CBSW.5CFlash.5Cbuild.5Cobj.5Cr_fcl_hw_access.
                         601 	.align	2
                         602 --_startAddr	r29	local
                         603 --_endAddr	r28	local
                         604 --_chkSum	r27	local
                         605 --_chkSumCmp	r26	local
                         606 
                         607 	.section ".bss","awb"
                         608 .L743:
                         609 	.type	.L743,@object
                         610 	.size	.L743,0
                         611 	.data
                         612 	.section ".R_FCL_CODE_RAM","ax"
                         613 	.align	2
                         614 	.align	2
                         615 ..gh.f.f.1.e.11:
                         616 	.type	..gh.f.f.1.e.11,@object
                         617 	.size	..gh.f.f.1.e.11,0
                         618 	.global	_R_FCL_FCUFct_SetFrequency..D.3A.5Cusr.5Cusage.5CDelivery.5CCBD17x.5CCBD1700369.5CD04.5Cexternal.5CBSW.5CFlash.5Cbuild.5Cobj.5Cr_fcl_hw_access.
                         619 _R_FCL_FCUFct_SetFrequency..D.3A.5Cusr.5Cusage.5CDelivery.5CCBD17x.5CCBD1700369.5CD04.5Cexternal.5CBSW.5CFlash.5Cbuild.5Cobj.5Cr_fcl_hw_access.:
                         620 _R_FCL_FCUFct_SetFrequency:
000001ac 80076100        621 	prepare	{r29,r31},0
                         622 --	    .bf
                         623 .LDW23:
000001b0 3d0600000000*   624 	mov	_g_fcl_data_str,r29
000001b6 bd8f5b00        625 	ld.bu	91[r29],r17
000001ba 110601ff        626 	addi	-255,r17,zero
000001be a22d*           627 	be	.L817
                         628 --line510
                         629 ..lin.D.3A.5Cusr.5Cusage.5CDelivery.5CCBD17x.5CCBD1700369.5CD04.5Cexternal.5CBSW.5CFlash.5Cbuild.5Cobj.5Cr_fcl_hw_access.40::
                         630 .LDWlin40:
000001c0 3df70100        631 	ld.w	0[r29],ep
000001c4 fd874100        632 	ld.hu	64[r29],r16
000001c8 7a90            633 	sld.hu	20[ep],r18
000001ca f281            634 	cmp	r18,r16
000001cc fb0d*           635 	bh	.L820
000001ce fd7f4300        636 	ld.hu	66[r29],r15
000001d2 f279            637 	cmp	r18,r15
000001d4 e47f027b        638 	cmovl	4,r15,r15
000001d8 e11d*           639 	bl	.L858
                         640 --line521
                         641 ..lin.D.3A.5Cusr.5Cusage.5CDelivery.5CCBD17x.5CCBD1700369.5CD04.5Cexternal.5CBSW.5CFlash.5Cbuild.5Cobj.5Cr_fcl_hw_access.41::
                         642 .LDWlin41:
000001da 9d8f5d00        643 	ld.bu	92[r29],r17

                                                                      Page 13
                                                              D:\TEMP\gh_00001gs1.s
000001de 110601ff        644 	addi	-255,r17,zero
000001e2 ea05*           645 	bne	.L823
                         646 --line523
                         647 ..lin.D.3A.5Cusr.5Cusage.5CDelivery.5CCBD17x.5CCBD1700369.5CD04.5Cexternal.5CBSW.5CFlash.5Cbuild.5Cobj.5Cr_fcl_hw_access.42::
                         648 .LDWlin42:
000001e4 fd974500        649 	ld.hu	68[r29],r18
000001e8 b50d*           650 	br	.L825
                         651 .L820:
                         652 --line516
                         653 ..lin.D.3A.5Cusr.5Cusage.5CDelivery.5CCBD17x.5CCBD1700369.5CD04.5Cexternal.5CBSW.5CFlash.5Cbuild.5Cobj.5Cr_fcl_hw_access.43::
                         654 .LDWlin43:
000001ea 047a            655 	mov	4,r15
000001ec c515*           656 	br	.L858
                         657 .L823:
                         658 --line527
                         659 ..lin.D.3A.5Cusr.5Cusage.5CDelivery.5CCBD17x.5CCBD1700369.5CD04.5Cexternal.5CBSW.5CFlash.5Cbuild.5Cobj.5Cr_fcl_hw_access.44::
                         660 .LDWlin44:
000001ee e089            661 	cmp	zero,r17
000001f0 f205*           662 	be	.L825
                         663 --line529
                         664 ..lin.D.3A.5Cusr.5Cusage.5CDelivery.5CCBD17x.5CCBD1700369.5CD04.5Cexternal.5CBSW.5CFlash.5Cbuild.5Cobj.5Cr_fcl_hw_access.45::
                         665 .LDWlin45:
000001f2 1180            666 	mov	r17,r16
000001f4 d281            667 	add	r18,r16
000001f6 1096ffff        668 	addi	-1,r16,r18
000001fa f197fc02        669 	divq	r17,r18,zero
                         670 .L825:
000001fe 123e001e        671 	addi	7680,r18,r7
00000202 c700            672 	zxh	r7
00000204 2606e400a1ff    673 	mov	-6225692,r6
                         674 	jarl	_R_FCL_I_write_memory_u16,lp
                         674 <EXPANSION BEGIN>
                         674 jarl22 _R_FCL_I_write_memory_u16 , lp 
0000020a bfff4cfe*       674 <EXPANSION END>
                         675 --line535
                         676 ..lin.D.3A.5Cusr.5Cusage.5CDelivery.5CCBD17x.5CCBD1700369.5CD04.5Cexternal.5CBSW.5CFlash.5Cbuild.5Cobj.5Cr_fcl_hw_access.46::
                         677 .LDWlin46:
0000020e 007a            678 	mov	0,r15
00000210 a505*           679 	br	.L858
                         680 .L817:
                         681 --line540
                         682 ..lin.D.3A.5Cusr.5Cusage.5CDelivery.5CCBD17x.5CCBD1700369.5CD04.5Cexternal.5CBSW.5CFlash.5Cbuild.5Cobj.5Cr_fcl_hw_access.47::
                         683 .LDWlin47:
00000212 007a            684 	mov	0,r15
                         685 .L858:
00000214 5d7f1300        686 	st.b	r15,19[r29]
                         687 --	    .ef
                         688 .LDW33:
00000218 40067f00        689 	dispose	0,{r29,r31},[lp]
                         690 ___ghs_eofn_R_FCL_FCUFct_SetFrequency:
                         691 	.type	_R_FCL_FCUFct_SetFrequency,@function
                         692 	.size	_R_FCL_FCUFct_SetFrequency,.-_R_FCL_FCUFct_SetFrequency
                         693 	.type	_R_FCL_FCUFct_SetFrequency..D.3A.5Cusr.5Cusage.5CDelivery.5CCBD17x.5CCBD1700369.5CD04.5Cexternal.5CBSW.5CFlash.5Cbuild.5Cobj.5Cr_fcl_hw_access.,@function
                         694 	.size	_R_FCL_FCUFct_SetFrequency..D.3A.5Cusr.5Cusage.5CDelivery.5CCBD17x.5CCBD1700369.5CD04.5Cexternal.5CBSW.5CFlash.5Cbuild.5Cobj.5Cr_fcl_hw_access.,.-_R_FCL_FCUFct_SetFrequency..D.3A.5Cusr.5Cusage.5CDelivery.5CCBD17x.5CCBD1700369.5CD04.5Cexternal.5CBSW.5CFlash.5Cbuild.5Cobj.5Cr_fcl_hw_access.
                         695 	.align	2
                         696 --_ffcu	r18	local
                         697 
                         698 	.section ".bss","awb"
                         699 .L911:
                         700 	.type	.L911,@object
                         701 	.size	.L911,0

                                                                      Page 14
                                                              D:\TEMP\gh_00001gs1.s
                         702 	.data
                         703 	.section ".R_FCL_CODE_RAM","ax"
                         704 	.align	2
                         705 	.align	2
                         706 ..gh.f.f.1.e.12:
                         707 	.type	..gh.f.f.1.e.12,@object
                         708 	.size	..gh.f.f.1.e.12,0
                         709 	.global	_R_FCL_FCUFct_ClearStatus..D.3A.5Cusr.5Cusage.5CDelivery.5CCBD17x.5CCBD1700369.5CD04.5Cexternal.5CBSW.5CFlash.5Cbuild.5Cobj.5Cr_fcl_hw_access.
                         710 _R_FCL_FCUFct_ClearStatus..D.3A.5Cusr.5Cusage.5CDelivery.5CCBD17x.5CCBD1700369.5CD04.5Cexternal.5CBSW.5CFlash.5Cbuild.5Cobj.5Cr_fcl_hw_access.:
                         711 _R_FCL_FCUFct_ClearStatus:
0000021c 80076100        712 	prepare	{r29,r31},0
                         713 --	    .bf
                         714 .LDW43:
00000220 3d061000a1ff    715 	mov	-6225904,r29
00000226 1d367000        716 	addi	112,r29,r6
                         717 	jarl	_R_FCL_I_read_memory_u32,lp
                         717 <EXPANSION BEGIN>
                         717 jarl22 _R_FCL_I_read_memory_u32 , lp 
0000022a bfffd6fd*       717 <EXPANSION END>
                         718 --line754
                         719 ..lin.D.3A.5Cusr.5Cusage.5CDelivery.5CCBD17x.5CCBD1700369.5CD04.5Cexternal.5CBSW.5CFlash.5Cbuild.5Cobj.5Cr_fcl_hw_access.48::
                         720 .LDWlin48:
0000022e ca960040        721 	andi	16384,r10,r18
00000232 120600c0        722 	addi	-16384,r18,zero
00000236 ba0d*           723 	bne	.L1022
                         724 --line756
                         725 ..lin.D.3A.5Cusr.5Cusage.5CDelivery.5CCBD17x.5CCBD1700369.5CD04.5Cexternal.5CBSW.5CFlash.5Cbuild.5Cobj.5Cr_fcl_hw_access.49::
                         726 .LDWlin49:
00000238 1d30            727 	mov	r29,r6
                         728 	jarl	_R_FCL_I_read_memory_u08,lp
                         728 <EXPANSION BEGIN>
                         728 jarl22 _R_FCL_I_read_memory_u08 , lp 
0000023a bfffd2fd*       728 <EXPANSION END>
                         729 --line758
                         730 ..lin.D.3A.5Cusr.5Cusage.5CDelivery.5CCBD17x.5CCBD1700369.5CD04.5Cexternal.5CBSW.5CFlash.5Cbuild.5Cobj.5Cr_fcl_hw_access.50::
                         731 .LDWlin50:
0000023e 0a06f0ff        732 	addi	-16,r10,zero
00000242 d205*           733 	be	.L1022
                         734 --line760
                         735 ..lin.D.3A.5Cusr.5Cusage.5CDelivery.5CCBD17x.5CCBD1700369.5CD04.5Cexternal.5CBSW.5CFlash.5Cbuild.5Cobj.5Cr_fcl_hw_access.51::
                         736 .LDWlin51:
00000244 203e1000        737 	movea	16,zero,r7
                         738 	jarl	_R_FCL_I_write_memory_u08,lp
                         738 <EXPANSION BEGIN>
                         738 jarl22 _R_FCL_I_write_memory_u08 , lp 
00000248 bfffcafd*       738 <EXPANSION END>
                         739 .L1022:
                         740 --line764
                         741 ..lin.D.3A.5Cusr.5Cusage.5CDelivery.5CCBD17x.5CCBD1700369.5CD04.5Cexternal.5CBSW.5CFlash.5Cbuild.5Cobj.5Cr_fcl_hw_access.52::
                         742 .LDWlin52:
0000024c 4036a2ff        743 	movhi	65442,zero,r6
00000250 203e5000        744 	movea	80,zero,r7
                         745 	jarl	_R_FCL_I_write_memory_u08,lp
                         745 <EXPANSION BEGIN>
                         745 jarl22 _R_FCL_I_write_memory_u08 , lp 
00000254 bfffbefd*       745 <EXPANSION END>
                         746 --	    .ef
                         747 .LDW53:
                         748 --line765
                         749 ..lin.D.3A.5Cusr.5Cusage.5CDelivery.5CCBD17x.5CCBD1700369.5CD04.5Cexternal.5CBSW.5CFlash.5Cbuild.5Cobj.5Cr_fcl_hw_access.53::
                         750 .LDWlin53:

                                                                      Page 15
                                                              D:\TEMP\gh_00001gs1.s
00000258 40067f00        751 	dispose	0,{r29,r31},[lp]
                         752 ___ghs_eofn_R_FCL_FCUFct_ClearStatus:
                         753 	.type	_R_FCL_FCUFct_ClearStatus,@function
                         754 	.size	_R_FCL_FCUFct_ClearStatus,.-_R_FCL_FCUFct_ClearStatus
                         755 	.type	_R_FCL_FCUFct_ClearStatus..D.3A.5Cusr.5Cusage.5CDelivery.5CCBD17x.5CCBD1700369.5CD04.5Cexternal.5CBSW.5CFlash.5Cbuild.5Cobj.5Cr_fcl_hw_access.,@function
                         756 	.size	_R_FCL_FCUFct_ClearStatus..D.3A.5Cusr.5Cusage.5CDelivery.5CCBD17x.5CCBD1700369.5CD04.5Cexternal.5CBSW.5CFlash.5Cbuild.5Cobj.5Cr_fcl_hw_access.,.-_R_FCL_FCUFct_ClearStatus..D.3A.5Cusr.5Cusage.5CDelivery.5CCBD17x.5CCBD1700369.5CD04.5Cexternal.5CBSW.5CFlash.5Cbuild.5Cobj.5Cr_fcl_hw_access.
                         757 	.align	2
                         758 
                         759 	.section ".bss","awb"
                         760 .L1072:
                         761 	.type	.L1072,@object
                         762 	.size	.L1072,0
                         763 	.data
                         764 	.section ".R_FCL_CODE_RAM","ax"
                         765 	.align	2
                         766 	.align	2
                         767 ..gh.f.f.1.e.13:
                         768 	.type	..gh.f.f.1.e.13,@object
                         769 	.size	..gh.f.f.1.e.13,0
                         770 	.global	_R_FCL_FCUFct_SwitchMode_Start
                         771 _R_FCL_FCUFct_SwitchMode_Start:
0000025c 8007e110        772 	prepare	{r27,r28,r29,r31},0
                         773 --	    .bf
                         774 .LDW63:
00000260 00da            775 	mov	0,r27
00000262 c6e6ff00        776 	andi	255,r6,r28
00000266 ea0d*           777 	bne	.L1119
                         778 --line576
                         779 ..lin.D.3A.5Cusr.5Cusage.5CDelivery.5CCBD17x.5CCBD1700369.5CD04.5Cexternal.5CBSW.5CFlash.5Cbuild.5Cobj.5Cr_fcl_hw_access.54::
                         780 .LDWlin54:
00000268 26068000a1ff    781 	mov	-6225792,r6
                         782 	jarl	_R_FCL_I_read_memory_u32,lp
                         782 <EXPANSION BEGIN>
                         782 jarl22 _R_FCL_I_read_memory_u32 , lp 
0000026e bfff92fd*       782 <EXPANSION END>
                         783 --line578
                         784 ..lin.D.3A.5Cusr.5Cusage.5CDelivery.5CCBD17x.5CCBD1700369.5CD04.5Cexternal.5CBSW.5CFlash.5Cbuild.5Cobj.5Cr_fcl_hw_access.55::
                         785 .LDWlin55:
00000272 ca060070        786 	andi	28672,r10,zero
00000276 e21d*           787 	be	.L1131
                         788 --line582
                         789 ..lin.D.3A.5Cusr.5Cusage.5CDelivery.5CCBD17x.5CCBD1700369.5CD04.5Cexternal.5CBSW.5CFlash.5Cbuild.5Cobj.5Cr_fcl_hw_access.56::
                         790 .LDWlin56:
                         791 	jarl	_R_FCL_FCUFct_ClearStatus,lp
                         791 <EXPANSION BEGIN>
                         791 jarl22 _R_FCL_FCUFct_ClearStatus , lp 
00000278 bfffa4ff*       791 <EXPANSION END>
0000027c b51d*           792 	br	.L1131
                         793 .L1128:
                         794 --line596
                         795 ..lin.D.3A.5Cusr.5Cusage.5CDelivery.5CCBD17x.5CCBD1700369.5CD04.5Cexternal.5CBSW.5CFlash.5Cbuild.5Cobj.5Cr_fcl_hw_access.57::
                         796 .LDWlin57:
0000027e 06da            797 	mov	6,r27
00000280 d525*           798 	br	.L1130
                         799 .L1119:
00000282 3d063000a1ff    800 	mov	-6225872,r29
                         801 --line587
                         802 ..lin.D.3A.5Cusr.5Cusage.5CDelivery.5CCBD17x.5CCBD1700369.5CD04.5Cexternal.5CBSW.5CFlash.5Cbuild.5Cobj.5Cr_fcl_hw_access.58::
                         803 .LDWlin58:
00000288 1d365400        804 	addi	84,r29,r6
                         805 	jarl	_R_FCL_I_read_memory_u16,lp

                                                                      Page 16
                                                              D:\TEMP\gh_00001gs1.s
                         805 <EXPANSION BEGIN>
                         805 jarl22 _R_FCL_I_read_memory_u16 , lp 
0000028c bfff7afd*       805 <EXPANSION END>
                         806 --line588
                         807 ..lin.D.3A.5Cusr.5Cusage.5CDelivery.5CCBD17x.5CCBD1700369.5CD04.5Cexternal.5CBSW.5CFlash.5Cbuild.5Cobj.5Cr_fcl_hw_access.59::
                         808 .LDWlin59:
00000290 ca4e8000        809 	andi	128,r10,r9
00000294 090680ff        810 	addi	-128,r9,zero
00000298 b2f5*           811 	be	.L1128
                         812 --line593
                         813 ..lin.D.3A.5Cusr.5Cusage.5CDelivery.5CCBD17x.5CCBD1700369.5CD04.5Cexternal.5CBSW.5CFlash.5Cbuild.5Cobj.5Cr_fcl_hw_access.60::
                         814 .LDWlin60:
0000029a 8a00            815 	zxb	r10
0000029c fc51            816 	cmp	r28,r10
0000029e e60704db        817 	cmove	6,zero,r27
000002a2 c215*           818 	be	.L1130
                         819 --line601
                         820 ..lin.D.3A.5Cusr.5Cusage.5CDelivery.5CCBD17x.5CCBD1700369.5CD04.5Cexternal.5CBSW.5CFlash.5Cbuild.5Cobj.5Cr_fcl_hw_access.61::
                         821 .LDWlin61:
000002a4 1d30            822 	mov	r29,r6
000002a6 1b38            823 	mov	r27,r7
                         824 	jarl	_R_FCL_I_write_memory_u32,lp
                         824 <EXPANSION BEGIN>
                         824 jarl22 _R_FCL_I_write_memory_u32 , lp 
000002a8 bfffa8fd*       824 <EXPANSION END>
                         825 --line602
                         826 ..lin.D.3A.5Cusr.5Cusage.5CDelivery.5CCBD17x.5CCBD1700369.5CD04.5Cexternal.5CBSW.5CFlash.5Cbuild.5Cobj.5Cr_fcl_hw_access.62::
                         827 .LDWlin62:
000002ac 4432            828 	add	4,r6
                         829 	jarl	_R_FCL_I_write_memory_u32,lp
                         829 <EXPANSION BEGIN>
                         829 jarl22 _R_FCL_I_write_memory_u32 , lp 
000002ae bfffa2fd*       829 <EXPANSION END>
                         830 .L1131:
                         831 --line608
                         832 ..lin.D.3A.5Cusr.5Cusage.5CDelivery.5CCBD17x.5CCBD1700369.5CD04.5Cexternal.5CBSW.5CFlash.5Cbuild.5Cobj.5Cr_fcl_hw_access.63::
                         833 .LDWlin63:
000002b2 803e00aa        834 	ori	43520,zero,r7
000002b6 dc39            835 	add	r28,r7
000002b8 26068400a1ff    836 	mov	-6225788,r6
                         837 	jarl	_R_FCL_I_write_memory_u16,lp
                         837 <EXPANSION BEGIN>
                         837 jarl22 _R_FCL_I_write_memory_u16 , lp 
000002be bfff98fd*       837 <EXPANSION END>
                         838 --line609
                         839 ..lin.D.3A.5Cusr.5Cusage.5CDelivery.5CCBD17x.5CCBD1700369.5CD04.5Cexternal.5CBSW.5CFlash.5Cbuild.5Cobj.5Cr_fcl_hw_access.64::
                         840 .LDWlin64:
000002c2 405e0000*       841 	movhi	hi(_g_fcl_data_str+45),zero,r11
000002c6 4be70000*       842 	st.b	r28,lo(_g_fcl_data_str+45)[r11]
                         843 .L1130:
000002ca 1b50            844 	mov	r27,r10
                         845 --	    .ef
                         846 .LDW73:
000002cc 4006ff10        847 	dispose	0,{r27,r28,r29,r31},[lp]
                         848 	.global	___ghs_eofn_R_FCL_FCUFct_SwitchMode_Start
                         849 ___ghs_eofn_R_FCL_FCUFct_SwitchMode_Start:
                         850 	.type	_R_FCL_FCUFct_SwitchMode_Start,@function
                         851 	.size	_R_FCL_FCUFct_SwitchMode_Start,.-_R_FCL_FCUFct_SwitchMode_Start
                         852 	.align	2
                         853 --_ret	r27	local
                         854 --_regFENTRYR	r10	local

                                                                      Page 17
                                                              D:\TEMP\gh_00001gs1.s
                         855 
                         856 --_mode_enu	r28	param
                         857 
                         858 	.section ".bss","awb"
                         859 .L1232:
                         860 	.type	.L1232,@object
                         861 	.size	.L1232,0
                         862 	.data
                         863 	.section ".R_FCL_CODE_RAM","ax"
                         864 	.align	2
                         865 	.align	2
                         866 ..gh.f.f.1.e.14:
                         867 	.type	..gh.f.f.1.e.14,@object
                         868 	.size	..gh.f.f.1.e.14,0
                         869 	.global	_R_FCL_FCUFct_SwitchMode_Check..D.3A.5Cusr.5Cusage.5CDelivery.5CCBD17x.5CCBD1700369.5CD04.5Cexternal.5CBSW.5CFlash.5Cbuild.5Cobj.5Cr_fcl_hw_access.
                         870 _R_FCL_FCUFct_SwitchMode_Check..D.3A.5Cusr.5Cusage.5CDelivery.5CCBD17x.5CCBD1700369.5CD04.5Cexternal.5CBSW.5CFlash.5Cbuild.5Cobj.5Cr_fcl_hw_access.:
                         871 _R_FCL_FCUFct_SwitchMode_Check:
000002d0 80072100        872 	prepare	{r31},0
                         873 --	    .bf
                         874 .LDW83:
000002d4 26068400a1ff    875 	mov	-6225788,r6
                         876 	jarl	_R_FCL_I_read_memory_u16,lp
                         876 <EXPANSION BEGIN>
                         876 jarl22 _R_FCL_I_read_memory_u16 , lp 
000002da bfff2cfd*       876 <EXPANSION END>
                         877 --line646
                         878 ..lin.D.3A.5Cusr.5Cusage.5CDelivery.5CCBD17x.5CCBD1700369.5CD04.5Cexternal.5CBSW.5CFlash.5Cbuild.5Cobj.5Cr_fcl_hw_access.65::
                         879 .LDWlin65:
000002de 404e0000*       880 	movhi	hi(_g_fcl_data_str+45),zero,r9
000002e2 ca968100        881 	andi	129,r10,r18
000002e6 894f0100*       882 	ld.bu	lo(_g_fcl_data_str+45)[r9],r9
000002ea f249            883 	cmp	r18,r9
000002ec ea570000        884 	setfne	r10
                         885 --	    .ef
                         886 .LDW93:
000002f0 40063f00        887 	dispose	0,{r31},[lp]
                         888 ___ghs_eofn_R_FCL_FCUFct_SwitchMode_Check:
                         889 	.type	_R_FCL_FCUFct_SwitchMode_Check,@function
                         890 	.size	_R_FCL_FCUFct_SwitchMode_Check,.-_R_FCL_FCUFct_SwitchMode_Check
                         891 	.type	_R_FCL_FCUFct_SwitchMode_Check..D.3A.5Cusr.5Cusage.5CDelivery.5CCBD17x.5CCBD1700369.5CD04.5Cexternal.5CBSW.5CFlash.5Cbuild.5Cobj.5Cr_fcl_hw_access.,@function
                         892 	.size	_R_FCL_FCUFct_SwitchMode_Check..D.3A.5Cusr.5Cusage.5CDelivery.5CCBD17x.5CCBD1700369.5CD04.5Cexternal.5CBSW.5CFlash.5Cbuild.5Cobj.5Cr_fcl_hw_access.,.-_R_FCL_FCUFct_SwitchMode_Check..D.3A.5Cusr.5Cusage.5CDelivery.5CCBD17x.5CCBD1700369.5CD04.5Cexternal.5CBSW.5CFlash.5Cbuild.5Cobj.5Cr_fcl_hw_access.
                         893 	.align	2
                         894 --_ret	r10	local
                         895 --_regFENTRYR	r18	local
                         896 
                         897 	.section ".bss","awb"
                         898 .L1357:
                         899 	.type	.L1357,@object
                         900 	.size	.L1357,0
                         901 	.data
                         902 	.section ".R_FCL_CODE_RAM","ax"
                         903 	.align	2
                         904 	.align	2
                         905 ..gh.f.f.1.e.15:
                         906 	.type	..gh.f.f.1.e.15,@object
                         907 	.size	..gh.f.f.1.e.15,0
                         908 	.global	_R_FCL_FCUFct_ForcedStop..D.3A.5Cusr.5Cusage.5CDelivery.5CCBD17x.5CCBD1700369.5CD04.5Cexternal.5CBSW.5CFlash.5Cbuild.5Cobj.5Cr_fcl_hw_access.
                         909 _R_FCL_FCUFct_ForcedStop..D.3A.5Cusr.5Cusage.5CDelivery.5CCBD17x.5CCBD1700369.5CD04.5Cexternal.5CBSW.5CFlash.5Cbuild.5Cobj.5Cr_fcl_hw_access.:
                         910 _R_FCL_FCUFct_ForcedStop:
000002f4 80072100        911 	prepare	{r31},0
                         912 --	    .bf

                                                                      Page 18
                                                              D:\TEMP\gh_00001gs1.s
                         913 .LDW04:
000002f8 4036a2ff        914 	movhi	hi(-6160384),zero,r6
000002fc 203eb300        915 	movea	179,zero,r7
                         916 	jarl	_R_FCL_I_write_memory_u08,lp
                         916 <EXPANSION BEGIN>
                         916 jarl22 _R_FCL_I_write_memory_u08 , lp 
00000300 bfff12fd*       916 <EXPANSION END>
                         917 .L1382:
                         918 --line682
                         919 ..lin.D.3A.5Cusr.5Cusage.5CDelivery.5CCBD17x.5CCBD1700369.5CD04.5Cexternal.5CBSW.5CFlash.5Cbuild.5Cobj.5Cr_fcl_hw_access.66::
                         920 .LDWlin66:
00000304 26068000a1ff    921 	mov	-6225792,r6
                         922 	jarl	_R_FCL_I_read_memory_u32,lp
                         922 <EXPANSION BEGIN>
                         922 jarl22 _R_FCL_I_read_memory_u32 , lp 
0000030a bffff6fc*       922 <EXPANSION END>
                         923 --line684
                         924 ..lin.D.3A.5Cusr.5Cusage.5CDelivery.5CCBD17x.5CCBD1700369.5CD04.5Cexternal.5CBSW.5CFlash.5Cbuild.5Cobj.5Cr_fcl_hw_access.67::
                         925 .LDWlin67:
0000030e ca960080        926 	andi	32768,r10,r18
00000312 12060080        927 	addi	-32768,r18,zero
00000316 faf5*           928 	bne	.L1382
                         929 --	    .ef
                         930 .LDW14:
                         931 --line685
                         932 ..lin.D.3A.5Cusr.5Cusage.5CDelivery.5CCBD17x.5CCBD1700369.5CD04.5Cexternal.5CBSW.5CFlash.5Cbuild.5Cobj.5Cr_fcl_hw_access.68::
                         933 .LDWlin68:
00000318 40063f00        934 	dispose	0,{r31},[lp]
                         935 ___ghs_eofn_R_FCL_FCUFct_ForcedStop:
                         936 	.type	_R_FCL_FCUFct_ForcedStop,@function
                         937 	.size	_R_FCL_FCUFct_ForcedStop,.-_R_FCL_FCUFct_ForcedStop
                         938 	.type	_R_FCL_FCUFct_ForcedStop..D.3A.5Cusr.5Cusage.5CDelivery.5CCBD17x.5CCBD1700369.5CD04.5Cexternal.5CBSW.5CFlash.5Cbuild.5Cobj.5Cr_fcl_hw_access.,@function
                         939 	.size	_R_FCL_FCUFct_ForcedStop..D.3A.5Cusr.5Cusage.5CDelivery.5CCBD17x.5CCBD1700369.5CD04.5Cexternal.5CBSW.5CFlash.5Cbuild.5Cobj.5Cr_fcl_hw_access.,.-_R_FCL_FCUFct_ForcedStop..D.3A.5Cusr.5Cusage.5CDelivery.5CCBD17x.5CCBD1700369.5CD04.5Cexternal.5CBSW.5CFlash.5Cbuild.5Cobj.5Cr_fcl_hw_access.
                         940 	.align	2
                         941 
                         942 	.section ".bss","awb"
                         943 .L1414:
                         944 	.type	.L1414,@object
                         945 	.size	.L1414,0
                         946 	.data
                         947 	.section ".R_FCL_CODE_RAM","ax"
                         948 	.align	2
                         949 	.align	2
                         950 ..gh.f.f.1.e.16:
                         951 	.type	..gh.f.f.1.e.16,@object
                         952 	.size	..gh.f.f.1.e.16,0
                         953 	.global	_R_FCL_FCUFct_ChkSuspended..D.3A.5Cusr.5Cusage.5CDelivery.5CCBD17x.5CCBD1700369.5CD04.5Cexternal.5CBSW.5CFlash.5Cbuild.5Cobj.5Cr_fcl_hw_access.
                         954 _R_FCL_FCUFct_ChkSuspended..D.3A.5Cusr.5Cusage.5CDelivery.5CCBD17x.5CCBD1700369.5CD04.5Cexternal.5CBSW.5CFlash.5Cbuild.5Cobj.5Cr_fcl_hw_access.:
                         955 _R_FCL_FCUFct_ChkSuspended:
0000031c 80076100        956 	prepare	{r29,r31},0
                         957 --	    .bf
                         958 .LDW24:
00000320 26068000a1ff    959 	mov	-6225792,r6
                         960 	jarl	_R_FCL_I_read_memory_u32,lp
                         960 <EXPANSION BEGIN>
                         960 jarl22 _R_FCL_I_read_memory_u32 , lp 
00000326 bfffdafc*       960 <EXPANSION END>
                         961 --line717
                         962 ..lin.D.3A.5Cusr.5Cusage.5CDelivery.5CCBD17x.5CCBD1700369.5CD04.5Cexternal.5CBSW.5CFlash.5Cbuild.5Cobj.5Cr_fcl_hw_access.69::
                         963 .LDWlin69:
0000032a ca060001        964 	andi	256,r10,zero

                                                                      Page 19
                                                              D:\TEMP\gh_00001gs1.s
0000032e da05*           965 	bne	.L1450
00000330 8a52            966 	shr	10,r10
00000332 e1ef0000        967 	setfl	r29
00000336 a505*           968 	br	.L1449
                         969 .L1450:
                         970 --line720
                         971 ..lin.D.3A.5Cusr.5Cusage.5CDelivery.5CCBD17x.5CCBD1700369.5CD04.5Cexternal.5CBSW.5CFlash.5Cbuild.5Cobj.5Cr_fcl_hw_access.70::
                         972 .LDWlin70:
00000338 01ea            973 	mov	1,r29
                         974 .L1449:
0000033a 1d50            975 	mov	r29,r10
                         976 --	    .ef
                         977 .LDW34:
0000033c 40067f00        978 	dispose	0,{r29,r31},[lp]
                         979 ___ghs_eofn_R_FCL_FCUFct_ChkSuspended:
                         980 	.type	_R_FCL_FCUFct_ChkSuspended,@function
                         981 	.size	_R_FCL_FCUFct_ChkSuspended,.-_R_FCL_FCUFct_ChkSuspended
                         982 	.type	_R_FCL_FCUFct_ChkSuspended..D.3A.5Cusr.5Cusage.5CDelivery.5CCBD17x.5CCBD1700369.5CD04.5Cexternal.5CBSW.5CFlash.5Cbuild.5Cobj.5Cr_fcl_hw_access.,@function
                         983 	.size	_R_FCL_FCUFct_ChkSuspended..D.3A.5Cusr.5Cusage.5CDelivery.5CCBD17x.5CCBD1700369.5CD04.5Cexternal.5CBSW.5CFlash.5Cbuild.5Cobj.5Cr_fcl_hw_access.,.-_R_FCL_FCUFct_ChkSuspended..D.3A.5Cusr.5Cusage.5CDelivery.5CCBD17x.5CCBD1700369.5CD04.5Cexternal.5CBSW.5CFlash.5Cbuild.5Cobj.5Cr_fcl_hw_access.
                         984 	.align	2
                         985 --_regFSTATR	r10	local
                         986 --_ret	r29	local
                         987 
                         988 	.section ".bss","awb"
                         989 .L1488:
                         990 	.type	.L1488,@object
                         991 	.size	.L1488,0
                         992 	.data
                         993 	.section ".R_FCL_CODE_RAM","ax"
                         994 	.align	2
                         995 	.align	2
                         996 ..gh.f.f.1.e.17:
                         997 	.type	..gh.f.f.1.e.17,@object
                         998 	.size	..gh.f.f.1.e.17,0
                         999 	.global	_R_FCL_FCUFct_RestoreLastState..D.3A.5Cusr.5Cusage.5CDelivery.5CCBD17x.5CCBD1700369.5CD04.5Cexternal.5CBSW.5CFlash.5Cbuild.5Cobj.5Cr_fcl_hw_access.
                        1000 _R_FCL_FCUFct_RestoreLastState..D.3A.5Cusr.5Cusage.5CDelivery.5CCBD17x.5CCBD1700369.5CD04.5Cexternal.5CBSW.5CFlash.5Cbuild.5Cobj.5Cr_fcl_hw_access.:
                        1001 _R_FCL_FCUFct_RestoreLastState:
                        1002 --	    .bf
                        1003 .LDW44:
00000340 3e0600000000*  1004 	mov	_g_fcl_data_str,ep
00000346 2683           1005 	sld.b	38[ep],r16
00000348 028a           1006 	mov	2,r17
0000034a e081           1007 	cmp	zero,r16
0000034c e48f1493       1008 	cmovne	4,r17,r18
00000350 ac93           1009 	sst.b	r18,44[ep]
                        1010 --	    .ef
                        1011 .LDW54:
00000352 7f00           1012 	jmp	[lp]
                        1013 ___ghs_eofn_R_FCL_FCUFct_RestoreLastState:
                        1014 	.type	_R_FCL_FCUFct_RestoreLastState,@function
                        1015 	.size	_R_FCL_FCUFct_RestoreLastState,.-_R_FCL_FCUFct_RestoreLastState
                        1016 	.type	_R_FCL_FCUFct_RestoreLastState..D.3A.5Cusr.5Cusage.5CDelivery.5CCBD17x.5CCBD1700369.5CD04.5Cexternal.5CBSW.5CFlash.5Cbuild.5Cobj.5Cr_fcl_hw_access.,@function
                        1017 	.size	_R_FCL_FCUFct_RestoreLastState..D.3A.5Cusr.5Cusage.5CDelivery.5CCBD17x.5CCBD1700369.5CD04.5Cexternal.5CBSW.5CFlash.5Cbuild.5Cobj.5Cr_fcl_hw_access.,.-_R_FCL_FCUFct_RestoreLastState..D.3A.5Cusr.5Cusage.5CDelivery.5CCBD17x.5CCBD1700369.5CD04.5Cexternal.5CBSW.5CFlash.5Cbuild.5Cobj.5Cr_fcl_hw_access.
                        1018 	.align	2
                        1019 
                        1020 	.section ".bss","awb"
                        1021 .L1583:
                        1022 	.type	.L1583,@object
                        1023 	.size	.L1583,0
                        1024 	.data
                        1025 	.section ".R_FCL_CODE_RAM","ax"

                                                                      Page 20
                                                              D:\TEMP\gh_00001gs1.s
                        1026 	.section ".R_FCL_CODE_ROMRAM","ax"
                        1027 	.align	2
                        1028 	.align	2
                        1029 ..gh.f.f.1.e.18:
                        1030 	.type	..gh.f.f.1.e.18,@object
                        1031 	.size	..gh.f.f.1.e.18,0
                        1032 	.global	_R_FCL_FCUFct_HandleResume
                        1033 _R_FCL_FCUFct_HandleResume:
00000020 8007e100       1034 	prepare	{r28,r29,r31},0
                        1035 --	    .bf
                        1036 .LDW64:
00000024 3d0600000000*  1037 	mov	_g_fcl_data_str,r29
0000002a 1d3f6400       1038 	ld.b	100[r29],r7
0000002e 3c062000a1ff   1039 	mov	-6225888,r28
00000034 613a           1040 	cmp	1,r7
00000036 aa3d*          1041 	bne	.L1606
                        1042 --line829
                        1043 ..lin.D.3A.5Cusr.5Cusage.5CDelivery.5CCBD17x.5CCBD1700369.5CD04.5Cexternal.5CBSW.5CFlash.5Cbuild.5Cobj.5Cr_fcl_hw_access.71::
                        1044 .LDWlin71:
                        1045 	jarl	_R_FCL_FCUFct_SwitchMode_Check,lp
                        1045 <EXPANSION BEGIN>
                        1045 jarl22 _R_FCL_FCUFct_SwitchMode_Check , lp 
00000038 80ff0000*      1045 <EXPANSION END>
0000003c e051           1046 	cmp	zero,r10
0000003e ba5d*          1047 	bne	.L1604
                        1048 --line831
                        1049 ..lin.D.3A.5Cusr.5Cusage.5CDelivery.5CCBD17x.5CCBD1700369.5CD04.5Cexternal.5CBSW.5CFlash.5Cbuild.5Cobj.5Cr_fcl_hw_access.72::
                        1050 .LDWlin72:
00000040 fd4f2900       1051 	ld.hu	40[r29],r9
00000044 1c30           1052 	mov	r28,r6
00000046 093e003b       1053 	addi	15104,r9,r7
0000004a c700           1054 	zxh	r7
                        1055 	jarl	_R_FCL_I_write_memory_u16,lp
                        1055 <EXPANSION BEGIN>
                        1055 jarl22 _R_FCL_I_write_memory_u16 , lp 
0000004c 80ff0000*      1055 <EXPANSION END>
                        1056 --line835
                        1057 ..lin.D.3A.5Cusr.5Cusage.5CDelivery.5CCBD17x.5CCBD1700369.5CD04.5Cexternal.5CBSW.5CFlash.5Cbuild.5Cobj.5Cr_fcl_hw_access.73::
                        1058 .LDWlin73:
00000050 1df0           1059 	mov	r29,ep
00000052 0a35           1060 	sld.w	20[ep],r6
00000054 0c9d           1061 	sld.w	24[ep],r19
00000056 fd972100       1062 	ld.hu	32[r29],r18
0000005a 228b           1063 	sld.b	34[ep],r17
0000005c 2383           1064 	sld.b	35[ep],r16
0000005e fd7f2900       1065 	ld.hu	40[r29],r15
00000062 0335           1066 	sst.w	r6,4[ep]
00000064 059d           1067 	sst.w	r19,8[ep]
00000066 1c366000       1068 	addi	96,r28,r6
0000006a 8894           1069 	sst.h	r18,16[ep]
0000006c 928b           1070 	sst.b	r17,18[ep]
0000006e 9383           1071 	sst.b	r16,19[ep]
00000070 0b05           1072 	sst.w	zero,20[ep]
00000072 a203           1073 	sst.b	zero,34[ep]
00000074 a503           1074 	sst.b	zero,37[ep]
00000076 a603           1075 	sst.b	zero,38[ep]
00000078 a47c           1076 	sst.h	r15,72[ep]
                        1077 	jarl	_R_FCL_I_read_memory_u32,lp
                        1077 <EXPANSION BEGIN>
                        1077 jarl22 _R_FCL_I_read_memory_u32 , lp 
0000007a 80ff0000*      1077 <EXPANSION END>

                                                                      Page 21
                                                              D:\TEMP\gh_00001gs1.s
                        1078 --line851
                        1079 ..lin.D.3A.5Cusr.5Cusage.5CDelivery.5CCBD17x.5CCBD1700369.5CD04.5Cexternal.5CBSW.5CFlash.5Cbuild.5Cobj.5Cr_fcl_hw_access.74::
                        1080 .LDWlin74:
0000007e ca060001       1081 	andi	256,r10,zero
00000082 ba05*          1082 	bne	.L1611
00000084 8a52           1083 	shr	10,r10
00000086 f905*          1084 	bnl	.L1610
                        1085 .L1611:
                        1086 --line854
                        1087 ..lin.D.3A.5Cusr.5Cusage.5CDelivery.5CCBD17x.5CCBD1700369.5CD04.5Cexternal.5CBSW.5CFlash.5Cbuild.5Cobj.5Cr_fcl_hw_access.75::
                        1088 .LDWlin75:
00000088 4036a2ff       1089 	movhi	65442,zero,r6
0000008c 203ed000       1090 	movea	208,zero,r7
                        1091 	jarl	_R_FCL_I_write_memory_u08,lp
                        1091 <EXPANSION BEGIN>
                        1091 jarl22 _R_FCL_I_write_memory_u08 , lp 
00000090 80ff0000*      1091 <EXPANSION END>
                        1092 .L1610:
                        1093 --line856
                        1094 ..lin.D.3A.5Cusr.5Cusage.5CDelivery.5CCBD17x.5CCBD1700369.5CD04.5Cexternal.5CBSW.5CFlash.5Cbuild.5Cobj.5Cr_fcl_hw_access.76::
                        1095 .LDWlin76:
00000094 3df70500       1096 	ld.w	4[r29],ep
00000098 035a           1097 	mov	3,r11
0000009a 5d5f2c00       1098 	st.b	r11,44[r29]
0000009e 0152           1099 	mov	1,r10
000000a0 8e53           1100 	sst.b	r10,14[ep]
000000a2 5d076400       1101 	st.b	zero,100[r29]
000000a6 4006ff00       1102 	dispose	0,{r28,r29,r31},[lp]
                        1103 .L1606:
                        1104 --line863
                        1105 ..lin.D.3A.5Cusr.5Cusage.5CDelivery.5CCBD17x.5CCBD1700369.5CD04.5Cexternal.5CBSW.5CFlash.5Cbuild.5Cobj.5Cr_fcl_hw_access.77::
                        1106 .LDWlin77:
000000aa 1d4f2200       1107 	ld.b	34[r29],r9
000000ae 6c4a           1108 	cmp	12,r9
000000b0 920d*          1109 	be	.L1614
                        1110 --line865
                        1111 ..lin.D.3A.5Cusr.5Cusage.5CDelivery.5CCBD17x.5CCBD1700369.5CD04.5Cexternal.5CBSW.5CFlash.5Cbuild.5Cobj.5Cr_fcl_hw_access.78::
                        1112 .LDWlin78:
000000b2 fd472900       1113 	ld.hu	40[r29],r8
000000b6 1c30           1114 	mov	r28,r6
000000b8 083e003b       1115 	addi	15104,r8,r7
000000bc c700           1116 	zxh	r7
                        1117 	jarl	_R_FCL_I_write_memory_u16,lp
                        1117 <EXPANSION BEGIN>
                        1117 jarl22 _R_FCL_I_write_memory_u16 , lp 
000000be 80ff0000*      1117 <EXPANSION END>
                        1118 .L1614:
                        1119 --line870
                        1120 ..lin.D.3A.5Cusr.5Cusage.5CDelivery.5CCBD17x.5CCBD1700369.5CD04.5Cexternal.5CBSW.5CFlash.5Cbuild.5Cobj.5Cr_fcl_hw_access.79::
                        1121 .LDWlin79:
000000c2 1df0           1122 	mov	r29,ep
000000c4 0a3d           1123 	sld.w	20[ep],r7
000000c6 0c35           1124 	sld.w	24[ep],r6
000000c8 0182           1125 	mov	1,r16
000000ca fd9f2100       1126 	ld.hu	32[r29],r19
000000ce 0372           1127 	mov	3,r14
000000d0 2293           1128 	sld.b	34[ep],r18
000000d2 238b           1129 	sld.b	35[ep],r17
000000d4 033d           1130 	sst.w	r7,4[ep]
000000d6 0535           1131 	sst.w	r6,8[ep]
000000d8 889c           1132 	sst.h	r19,16[ep]

                                                                      Page 22
                                                              D:\TEMP\gh_00001gs1.s
000000da 9293           1133 	sst.b	r18,18[ep]
000000dc 938b           1134 	sst.b	r17,19[ep]
000000de fd7f2900       1135 	ld.hu	40[r29],r15
000000e2 07f0           1136 	mov	r7,ep
000000e4 8e83           1137 	sst.b	r16,14[ep]
000000e6 1df0           1138 	mov	r29,ep
000000e8 0b05           1139 	sst.w	zero,20[ep]
000000ea a203           1140 	sst.b	zero,34[ep]
000000ec a47c           1141 	sst.h	r15,72[ep]
000000ee a503           1142 	sst.b	zero,37[ep]
000000f0 a603           1143 	sst.b	zero,38[ep]
000000f2 ac73           1144 	sst.b	r14,44[ep]
                        1145 .L1604:
                        1146 --	    .ef
                        1147 .LDW74:
000000f4 4006ff00       1148 	dispose	0,{r28,r29,r31},[lp]
                        1149 	.global	___ghs_eofn_R_FCL_FCUFct_HandleResume
                        1150 ___ghs_eofn_R_FCL_FCUFct_HandleResume:
                        1151 	.type	_R_FCL_FCUFct_HandleResume,@function
                        1152 	.size	_R_FCL_FCUFct_HandleResume,.-_R_FCL_FCUFct_HandleResume
                        1153 	.align	2
                        1154 --_regFSTATR	r10	local
                        1155 
                        1156 	.section ".bss","awb"
                        1157 .L1673:
                        1158 	.type	.L1673,@object
                        1159 	.size	.L1673,0
                        1160 	.data
                        1161 	.section ".R_FCL_CODE_ROMRAM","ax"
                        1162 	.align	2
                        1163 	.align	2
                        1164 ..gh.f.f.1.e.19:
                        1165 	.type	..gh.f.f.1.e.19,@object
                        1166 	.size	..gh.f.f.1.e.19,0
                        1167 	.global	_R_FCL_FCUFct_CheckMode
                        1168 _R_FCL_FCUFct_CheckMode:
000000f8 80072100       1169 	prepare	{r31},0
                        1170 --	    .bf
                        1171 .LDW84:
000000fc 4036a1ff       1172 	movhi	hi(-6225920),zero,r6
                        1173 	jarl	_R_FCL_I_read_memory_u08,lp
                        1173 <EXPANSION BEGIN>
                        1173 jarl22 _R_FCL_I_read_memory_u08 , lp 
00000100 80ff0000*      1173 <EXPANSION END>
                        1174 --line918
                        1175 ..lin.D.3A.5Cusr.5Cusage.5CDelivery.5CCBD17x.5CCBD1700369.5CD04.5Cexternal.5CBSW.5CFlash.5Cbuild.5Cobj.5Cr_fcl_hw_access.80::
                        1176 .LDWlin80:
00000104 8852           1177 	shr	8,r10
00000106 e1570000       1178 	setfl	r10
                        1179 --	    .ef
                        1180 .LDW94:
0000010a 40063f00       1181 	dispose	0,{r31},[lp]
                        1182 	.global	___ghs_eofn_R_FCL_FCUFct_CheckMode
                        1183 ___ghs_eofn_R_FCL_FCUFct_CheckMode:
                        1184 	.type	_R_FCL_FCUFct_CheckMode,@function
                        1185 	.size	_R_FCL_FCUFct_CheckMode,.-_R_FCL_FCUFct_CheckMode
                        1186 	.align	2
                        1187 --_ret	r10	local
                        1188 
                        1189 	.section ".bss","awb"
                        1190 .L1800:

                                                                      Page 23
                                                              D:\TEMP\gh_00001gs1.s
                        1191 	.type	.L1800,@object
                        1192 	.size	.L1800,0
                        1193 	.data
                        1194 	.section ".R_FCL_CODE_ROMRAM","ax"
                        1195 	.section ".R_FCL_CODE_RAM","ax"
                        1196 	.align	2
                        1197 	.align	2
                        1198 ..gh.f.f.1.e.20:
                        1199 	.type	..gh.f.f.1.e.20,@object
                        1200 	.size	..gh.f.f.1.e.20,0
                        1201 	.global	_R_FCL_FCUFct_GetResult..D.3A.5Cusr.5Cusage.5CDelivery.5CCBD17x.5CCBD1700369.5CD04.5Cexternal.5CBSW.5CFlash.5Cbuild.5Cobj.5Cr_fcl_hw_access.
                        1202 _R_FCL_FCUFct_GetResult..D.3A.5Cusr.5Cusage.5CDelivery.5CCBD17x.5CCBD1700369.5CD04.5Cexternal.5CBSW.5CFlash.5Cbuild.5Cobj.5Cr_fcl_hw_access.:
                        1203 _R_FCL_FCUFct_GetResult:
00000354 8007e100       1204 	prepare	{r28,r29,r31},0
00000358 06e0           1205 	mov	r6,r28
                        1206 --	    .bf
                        1207 .LDW05:
0000035a 26068000a1ff   1208 	mov	-6225792,r6
                        1209 	jarl	_R_FCL_I_read_memory_u32,lp
                        1209 <EXPANSION BEGIN>
                        1209 jarl22 _R_FCL_I_read_memory_u32 , lp 
00000360 bfffa0fc*      1209 <EXPANSION END>
                        1210 --line963
                        1211 ..lin.D.3A.5Cusr.5Cusage.5CDelivery.5CCBD17x.5CCBD1700369.5CD04.5Cexternal.5CBSW.5CFlash.5Cbuild.5Cobj.5Cr_fcl_hw_access.81::
                        1212 .LDWlin81:
00000364 ca060080       1213 	andi	32768,r10,zero
00000368 9245*          1214 	be	.L1823
                        1215 --line975
                        1216 ..lin.D.3A.5Cusr.5Cusage.5CDelivery.5CCBD17x.5CCBD1700369.5CD04.5Cexternal.5CBSW.5CFlash.5Cbuild.5Cobj.5Cr_fcl_hw_access.82::
                        1217 .LDWlin82:
0000036a bc00           1218 	sxb	r28
0000036c ca060200       1219 	andi	2,r10,zero
00000370 ea15*          1220 	bne	.L1835
00000372 ca060800       1221 	andi	8,r10,zero
00000376 ba15*          1222 	bne	.L1835
00000378 ca062000       1223 	andi	32,r10,zero
0000037c 8a15*          1224 	bne	.L1835
0000037e ca068000       1225 	andi	128,r10,zero
00000382 da0d*          1226 	bne	.L1835
00000384 0a48           1227 	mov	r10,r9
00000386 924a           1228 	shr	18,r9
00000388 a10d*          1229 	bl	.L1835
                        1230 --line983
                        1231 ..lin.D.3A.5Cusr.5Cusage.5CDelivery.5CCBD17x.5CCBD1700369.5CD04.5Cexternal.5CBSW.5CFlash.5Cbuild.5Cobj.5Cr_fcl_hw_access.83::
                        1232 .LDWlin83:
0000038a ca060040       1233 	andi	16384,r10,zero
0000038e a20d*          1234 	be	.L1832
                        1235 --line985
                        1236 ..lin.D.3A.5Cusr.5Cusage.5CDelivery.5CCBD17x.5CCBD1700369.5CD04.5Cexternal.5CBSW.5CFlash.5Cbuild.5Cobj.5Cr_fcl_hw_access.84::
                        1237 .LDWlin84:
00000390 e0e1           1238 	cmp	zero,r28
00000392 0d52           1239 	mov	13,r10
00000394 f215*          1240 	be	.L1821
                        1241 --line991
                        1242 ..lin.D.3A.5Cusr.5Cusage.5CDelivery.5CCBD17x.5CCBD1700369.5CD04.5Cexternal.5CBSW.5CFlash.5Cbuild.5Cobj.5Cr_fcl_hw_access.85::
                        1243 .LDWlin85:
00000396 0b52           1244 	mov	11,r10
00000398 4006ff00       1245 	dispose	0,{r28,r29,r31},[lp]
                        1246 .L1835:
                        1247 --line987
                        1248 ..lin.D.3A.5Cusr.5Cusage.5CDelivery.5CCBD17x.5CCBD1700369.5CD04.5Cexternal.5CBSW.5CFlash.5Cbuild.5Cobj.5Cr_fcl_hw_access.86::

                                                                      Page 24
                                                              D:\TEMP\gh_00001gs1.s
                        1249 .LDWlin86:
0000039c 0d52           1250 	mov	13,r10
0000039e 4006ff00       1251 	dispose	0,{r28,r29,r31},[lp]
                        1252 .L1832:
                        1253 --line994
                        1254 ..lin.D.3A.5Cusr.5Cusage.5CDelivery.5CCBD17x.5CCBD1700369.5CD04.5Cexternal.5CBSW.5CFlash.5Cbuild.5Cobj.5Cr_fcl_hw_access.87::
                        1255 .LDWlin87:
000003a2 ca064000       1256 	andi	64,r10,zero
000003a6 fa1d*          1257 	bne	.L1849
                        1258 --line998
                        1259 ..lin.D.3A.5Cusr.5Cusage.5CDelivery.5CCBD17x.5CCBD1700369.5CD04.5Cexternal.5CBSW.5CFlash.5Cbuild.5Cobj.5Cr_fcl_hw_access.88::
                        1260 .LDWlin88:
000003a8 ca060020       1261 	andi	8192,r10,zero
000003ac d20d*          1262 	be	.L1841
                        1263 --line1000
                        1264 ..lin.D.3A.5Cusr.5Cusage.5CDelivery.5CCBD17x.5CCBD1700369.5CD04.5Cexternal.5CBSW.5CFlash.5Cbuild.5Cobj.5Cr_fcl_hw_access.89::
                        1265 .LDWlin89:
000003ae 06364000       1266 	addi	64,r6,r6
                        1267 	jarl	_R_FCL_I_read_memory_u16,lp
                        1267 <EXPANSION BEGIN>
                        1267 jarl22 _R_FCL_I_read_memory_u16 , lp 
000003b2 bfff54fc*      1267 <EXPANSION END>
                        1268 --line1001
                        1269 ..lin.D.3A.5Cusr.5Cusage.5CDelivery.5CCBD17x.5CCBD1700369.5CD04.5Cexternal.5CBSW.5CFlash.5Cbuild.5Cobj.5Cr_fcl_hw_access.90::
                        1270 .LDWlin90:
000003b6 ca4e1100       1271 	andi	17,r10,r9
000003ba 0906efff       1272 	addi	-17,r9,zero
000003be b215*          1273 	be	.L1849
000003c0 0952           1274 	mov	9,r10
                        1275 .L1821:
                        1276 --	    .ef
                        1277 .LDW15:
                        1278 --line1001
                        1279 ..lin.D.3A.5Cusr.5Cusage.5CDelivery.5CCBD17x.5CCBD1700369.5CD04.5Cexternal.5CBSW.5CFlash.5Cbuild.5Cobj.5Cr_fcl_hw_access.91::
                        1280 .LDWlin91:
000003c2 4006ff00       1281 	dispose	0,{r28,r29,r31},[lp]
                        1282 .L1841:
                        1283 --line1011
                        1284 ..lin.D.3A.5Cusr.5Cusage.5CDelivery.5CCBD17x.5CCBD1700369.5CD04.5Cexternal.5CBSW.5CFlash.5Cbuild.5Cobj.5Cr_fcl_hw_access.92::
                        1285 .LDWlin92:
000003c6 ca560010       1286 	andi	4096,r10,r10
000003ca c2fd*          1287 	be	.L1821
                        1288 --line1013
                        1289 ..lin.D.3A.5Cusr.5Cusage.5CDelivery.5CCBD17x.5CCBD1700369.5CD04.5Cexternal.5CBSW.5CFlash.5Cbuild.5Cobj.5Cr_fcl_hw_access.93::
                        1290 .LDWlin93:
000003cc 06364000       1291 	addi	64,r6,r6
                        1292 	jarl	_R_FCL_I_read_memory_u16,lp
                        1292 <EXPANSION BEGIN>
                        1292 jarl22 _R_FCL_I_read_memory_u16 , lp 
000003d0 bfff36fc*      1292 <EXPANSION END>
                        1293 --line1014
                        1294 ..lin.D.3A.5Cusr.5Cusage.5CDelivery.5CCBD17x.5CCBD1700369.5CD04.5Cexternal.5CBSW.5CFlash.5Cbuild.5Cobj.5Cr_fcl_hw_access.94::
                        1295 .LDWlin94:
000003d4 ca060100       1296 	andi	1,r10,zero
000003d8 e8570453       1297 	cmove	8,r10,r10
000003dc e5571453       1298 	cmovne	5,r10,r10
000003e0 4006ff00       1299 	dispose	0,{r28,r29,r31},[lp]
                        1300 .L1849:
                        1301 --line1020
                        1302 ..lin.D.3A.5Cusr.5Cusage.5CDelivery.5CCBD17x.5CCBD1700369.5CD04.5Cexternal.5CBSW.5CFlash.5Cbuild.5Cobj.5Cr_fcl_hw_access.95::
                        1303 .LDWlin95:

                                                                      Page 25
                                                              D:\TEMP\gh_00001gs1.s
000003e4 0552           1304 	mov	5,r10
000003e6 4006ff00       1305 	dispose	0,{r28,r29,r31},[lp]
                        1306 .L1823:
                        1307 --line1030
                        1308 ..lin.D.3A.5Cusr.5Cusage.5CDelivery.5CCBD17x.5CCBD1700369.5CD04.5Cexternal.5CBSW.5CFlash.5Cbuild.5Cobj.5Cr_fcl_hw_access.96::
                        1309 .LDWlin96:
000003ea 0152           1310 	mov	1,r10
000003ec 4006ff00       1311 	dispose	0,{r28,r29,r31},[lp]
                        1312 ___ghs_eofn_R_FCL_FCUFct_GetResult:
                        1313 	.type	_R_FCL_FCUFct_GetResult,@function
                        1314 	.size	_R_FCL_FCUFct_GetResult,.-_R_FCL_FCUFct_GetResult
                        1315 	.type	_R_FCL_FCUFct_GetResult..D.3A.5Cusr.5Cusage.5CDelivery.5CCBD17x.5CCBD1700369.5CD04.5Cexternal.5CBSW.5CFlash.5Cbuild.5Cobj.5Cr_fcl_hw_access.,@function
                        1316 	.size	_R_FCL_FCUFct_GetResult..D.3A.5Cusr.5Cusage.5CDelivery.5CCBD17x.5CCBD1700369.5CD04.5Cexternal.5CBSW.5CFlash.5Cbuild.5Cobj.5Cr_fcl_hw_access.,.-_R_FCL_FCUFct_GetResult..D.3A.5Cusr.5Cusage.5CDelivery.5CCBD17x.5CCBD1700369.5CD04.5Cexternal.5CBSW.5CFlash.5Cbuild.5Cobj.5Cr_fcl_hw_access.
                        1317 	.align	2
                        1318 --_ret	r10	local
                        1319 --_regFSTATR	r10	local
                        1320 
                        1321 --_cmdSpdExec_enu	r28	param
                        1322 
                        1323 	.section ".bss","awb"
                        1324 .L2531:
                        1325 	.type	.L2531,@object
                        1326 	.size	.L2531,0
                        1327 	.data
                        1328 	.section ".R_FCL_CODE_RAM","ax"
                        1329 	.section ".R_FCL_CODE_ROMRAM","ax"
                        1330 	.align	2
                        1331 	.align	2
                        1332 ..gh.f.f.1.e.21:
                        1333 	.type	..gh.f.f.1.e.21,@object
                        1334 	.size	..gh.f.f.1.e.21,0
                        1335 	.global	_R_FCL_FCUFct_SetConfigArea
                        1336 _R_FCL_FCUFct_SetConfigArea:
0000010e 80072100       1337 	prepare	{r31},0
                        1338 --	    .bf
                        1339 .LDW25:
                        1340 	jarl	_R_FCL_FCUFct_CheckMode,lp
                        1340 <EXPANSION BEGIN>
                        1340 jarl22 _R_FCL_FCUFct_CheckMode , lp 
00000112 bfffe6ff*      1340 <EXPANSION END>
00000116 3e0600000000*  1341 	mov	_g_fcl_data_str,ep
0000011c 0295           1342 	sld.w	4[ep],r18
0000011e e051           1343 	cmp	zero,r10
00000120 ea05*          1344 	bne	.L2724
                        1345 --line1136
                        1346 ..lin.D.3A.5Cusr.5Cusage.5CDelivery.5CCBD17x.5CCBD1700369.5CD04.5Cexternal.5CBSW.5CFlash.5Cbuild.5Cobj.5Cr_fcl_hw_access.97::
                        1347 .LDWlin97:
00000122 039a           1348 	mov	3,r19
00000124 529f0e00       1349 	st.b	r19,14[r18]
00000128 40063f00       1350 	dispose	0,{r31},[lp]
                        1351 .L2724:
                        1352 --line1140
                        1353 ..lin.D.3A.5Cusr.5Cusage.5CDelivery.5CCBD17x.5CCBD1700369.5CD04.5Cexternal.5CBSW.5CFlash.5Cbuild.5Cobj.5Cr_fcl_hw_access.98::
                        1354 .LDWlin98:
0000012c 128f0000       1355 	ld.b	0[r18],r17
00000130 698a           1356 	cmp	9,r17
00000132 ca0d*          1357 	bne	.L2727
                        1358 --line1144
                        1359 ..lin.D.3A.5Cusr.5Cusage.5CDelivery.5CCBD17x.5CCBD1700369.5CD04.5Cexternal.5CBSW.5CFlash.5Cbuild.5Cobj.5Cr_fcl_hw_access.99::
                        1360 .LDWlin99:
00000134 327f0500       1361 	ld.w	4[r18],r15

                                                                      Page 26
                                                              D:\TEMP\gh_00001gs1.s
00000138 206e1000       1362 	movea	16,zero,r13
0000013c 2e06700030ff   1363 	mov	-13631376,r14
00000142 0575           1364 	sst.w	r14,8[ep]
00000144 886c           1365 	sst.h	r13,16[ep]
00000146 077d           1366 	sst.w	r15,12[ep]
00000148 b565*          1367 	br	.L2729
                        1368 .L2727:
                        1369 --line1146
                        1370 ..lin.D.3A.5Cusr.5Cusage.5CDelivery.5CCBD17x.5CCBD1700369.5CD04.5Cexternal.5CBSW.5CFlash.5Cbuild.5Cobj.5Cr_fcl_hw_access.100::
                        1371 .LDWlin100:
0000014a 12670000       1372 	ld.b	0[r18],r12
0000014e 086a           1373 	mov	8,r13
00000150 3006400030ff   1374 	mov	-13631424,r16
00000156 6762           1375 	cmp	7,r12
00000158 ba05*          1376 	bne	.L2730
                        1377 --line1148
                        1378 ..lin.D.3A.5Cusr.5Cusage.5CDelivery.5CCBD17x.5CCBD1700369.5CD04.5Cexternal.5CBSW.5CFlash.5Cbuild.5Cobj.5Cr_fcl_hw_access.101::
                        1379 .LDWlin101:
0000015a 886c           1380 	sst.h	r13,16[ep]
0000015c 955d*          1381 	br	.L2729
                        1382 .L2730:
                        1383 --line1150
                        1384 ..lin.D.3A.5Cusr.5Cusage.5CDelivery.5CCBD17x.5CCBD1700369.5CD04.5Cexternal.5CBSW.5CFlash.5Cbuild.5Cobj.5Cr_fcl_hw_access.102::
                        1385 .LDWlin102:
0000015e 125f0000       1386 	ld.b	0[r18],r11
00000162 6b5a           1387 	cmp	11,r11
00000164 9a0d*          1388 	bne	.L2733
                        1389 --line1153
                        1390 ..lin.D.3A.5Cusr.5Cusage.5CDelivery.5CCBD17x.5CCBD1700369.5CD04.5Cexternal.5CBSW.5CFlash.5Cbuild.5Cobj.5Cr_fcl_hw_access.103::
                        1391 .LDWlin103:
00000166 32570500       1392 	ld.w	4[r18],r10
0000016a 104e1000       1393 	addi	16,r16,r9
0000016e 054d           1394 	sst.w	r9,8[ep]
00000170 886c           1395 	sst.h	r13,16[ep]
00000172 0755           1396 	sst.w	r10,12[ep]
00000174 d54d*          1397 	br	.L2729
                        1398 .L2733:
                        1399 --line1156
                        1400 ..lin.D.3A.5Cusr.5Cusage.5CDelivery.5CCBD17x.5CCBD1700369.5CD04.5Cexternal.5CBSW.5CFlash.5Cbuild.5Cobj.5Cr_fcl_hw_access.104::
                        1401 .LDWlin104:
00000176 12470000       1402 	ld.b	0[r18],r8
0000017a 0806e9ff       1403 	addi	-23,r8,zero
0000017e 9a0d*          1404 	bne	.L2736
                        1405 --line1159
                        1406 ..lin.D.3A.5Cusr.5Cusage.5CDelivery.5CCBD17x.5CCBD1700369.5CD04.5Cexternal.5CBSW.5CFlash.5Cbuild.5Cobj.5Cr_fcl_hw_access.105::
                        1407 .LDWlin105:
00000180 32470500       1408 	ld.w	4[r18],r8
00000184 103e2000       1409 	addi	32,r16,r7
00000188 053d           1410 	sst.w	r7,8[ep]
0000018a 886c           1411 	sst.h	r13,16[ep]
0000018c 0745           1412 	sst.w	r8,12[ep]
0000018e 8545*          1413 	br	.L2729
                        1414 .L2736:
                        1415 --line1168
                        1416 ..lin.D.3A.5Cusr.5Cusage.5CDelivery.5CCBD17x.5CCBD1700369.5CD04.5Cexternal.5CBSW.5CFlash.5Cbuild.5Cobj.5Cr_fcl_hw_access.106::
                        1417 .LDWlin106:
00000190 12370000       1418 	ld.b	0[r18],r6
00000194 1e8d           1419 	sld.w	60[ep],r17
00000196 0585           1420 	sst.w	r16,8[ep]
00000198 886c           1421 	sst.h	r13,16[ep]
0000019a 6d32           1422 	cmp	13,r6

                                                                      Page 27
                                                              D:\TEMP\gh_00001gs1.s
0000019c da05*          1423 	bne	.L2739
                        1424 --line1170
                        1425 ..lin.D.3A.5Cusr.5Cusage.5CDelivery.5CCBD17x.5CCBD1700369.5CD04.5Cexternal.5CBSW.5CFlash.5Cbuild.5Cobj.5Cr_fcl_hw_access.107::
                        1426 .LDWlin107:
0000019e 2e06f0ffff7f   1427 	mov	2147483632,r14
000001a4 e51d*          1428 	br	.L2741
                        1429 .L2739:
                        1430 --line1172
                        1431 ..lin.D.3A.5Cusr.5Cusage.5CDelivery.5CCBD17x.5CCBD1700369.5CD04.5Cexternal.5CBSW.5CFlash.5Cbuild.5Cobj.5Cr_fcl_hw_access.108::
                        1432 .LDWlin108:
000001a6 129f0000       1433 	ld.b	0[r18],r19
000001aa 6f9a           1434 	cmp	15,r19
000001ac da05*          1435 	bne	.L2742
                        1436 --line1174
                        1437 ..lin.D.3A.5Cusr.5Cusage.5CDelivery.5CCBD17x.5CCBD1700369.5CD04.5Cexternal.5CBSW.5CFlash.5Cbuild.5Cobj.5Cr_fcl_hw_access.109::
                        1438 .LDWlin109:
000001ae 2e06f0ffffbf   1439 	mov	-1073741840,r14
000001b4 e515*          1440 	br	.L2741
                        1441 .L2742:
                        1442 --line1176
                        1443 ..lin.D.3A.5Cusr.5Cusage.5CDelivery.5CCBD17x.5CCBD1700369.5CD04.5Cexternal.5CBSW.5CFlash.5Cbuild.5Cobj.5Cr_fcl_hw_access.110::
                        1444 .LDWlin110:
000001b6 123f0000       1445 	ld.b	0[r18],r7
000001ba 0706efff       1446 	addi	-17,r7,zero
000001be da05*          1447 	bne	.L2745
                        1448 --line1178
                        1449 ..lin.D.3A.5Cusr.5Cusage.5CDelivery.5CCBD17x.5CCBD1700369.5CD04.5Cexternal.5CBSW.5CFlash.5Cbuild.5Cobj.5Cr_fcl_hw_access.111::
                        1450 .LDWlin111:
000001c0 2e06f0ffffdf   1451 	mov	-536870928,r14
000001c6 d50d*          1452 	br	.L2741
                        1453 .L2745:
                        1454 --line1180
                        1455 ..lin.D.3A.5Cusr.5Cusage.5CDelivery.5CCBD17x.5CCBD1700369.5CD04.5Cexternal.5CBSW.5CFlash.5Cbuild.5Cobj.5Cr_fcl_hw_access.112::
                        1456 .LDWlin112:
000001c8 12370000       1457 	ld.b	0[r18],r6
000001cc 0606edff       1458 	addi	-19,r6,zero
000001d0 da05*          1459 	bne	.L2748
                        1460 --line1182
                        1461 ..lin.D.3A.5Cusr.5Cusage.5CDelivery.5CCBD17x.5CCBD1700369.5CD04.5Cexternal.5CBSW.5CFlash.5Cbuild.5Cobj.5Cr_fcl_hw_access.113::
                        1462 .LDWlin113:
000001d2 2e06f0fffff7   1463 	mov	-134217744,r14
000001d8 c505*          1464 	br	.L2741
                        1465 .L2748:
                        1466 --line1186
                        1467 ..lin.D.3A.5Cusr.5Cusage.5CDelivery.5CCBD17x.5CCBD1700369.5CD04.5Cexternal.5CBSW.5CFlash.5Cbuild.5Cobj.5Cr_fcl_hw_access.114::
                        1468 .LDWlin114:
000001da 2e06f0ffff1e   1469 	mov	520093680,r14
                        1470 .L2741:
000001e0 4e89           1471 	and	r14,r17
000001e2 1e4e7000       1472 	addi	112,ep,r9
000001e6 f08b           1473 	sst.b	r17,112[ep]
000001e8 1160           1474 	mov	r17,r12
000001ea 1158           1475 	mov	r17,r11
000001ec 8862           1476 	shr	8,r12
000001ee f163           1477 	sst.b	r12,113[ep]
000001f0 905a           1478 	shr	16,r11
000001f2 f25b           1479 	sst.b	r11,114[ep]
000001f4 988a           1480 	shr	24,r17
000001f6 f38b           1481 	sst.b	r17,115[ep]
000001f8 047a           1482 	mov	4,r15
                        1483 .L2753:

                                                                      Page 28
                                                              D:\TEMP\gh_00001gs1.s
000001fa 0f50           1484 	mov	r15,r10
000001fc c951           1485 	add	r9,r10
000001fe 1f8a           1486 	mov	-1,r17
00000200 417a           1487 	add	1,r15
00000202 4a8f0000       1488 	st.b	r17,0[r10]
00000206 0f06f0ff       1489 	addi	-16,r15,zero
0000020a 89fd*          1490 	bnl	.L2753
                        1491 --line1202
                        1492 ..lin.D.3A.5Cusr.5Cusage.5CDelivery.5CCBD17x.5CCBD1700369.5CD04.5Cexternal.5CBSW.5CFlash.5Cbuild.5Cobj.5Cr_fcl_hw_access.115::
                        1493 .LDWlin115:
0000020c 074d           1494 	sst.w	r9,12[ep]
                        1495 .L2729:
0000020e 017a           1496 	mov	1,r15
00000210 927b           1497 	sst.b	r15,18[ep]
00000212 0382           1498 	mov	3,r16
00000214 ac83           1499 	sst.b	r16,44[ep]
                        1500 --	    .ef
                        1501 .LDW35:
00000216 40063f00       1502 	dispose	0,{r31},[lp]
                        1503 	.global	___ghs_eofn_R_FCL_FCUFct_SetConfigArea
                        1504 ___ghs_eofn_R_FCL_FCUFct_SetConfigArea:
                        1505 	.type	_R_FCL_FCUFct_SetConfigArea,@function
                        1506 	.size	_R_FCL_FCUFct_SetConfigArea,.-_R_FCL_FCUFct_SetConfigArea
                        1507 	.align	2
                        1508 --_flag	r17	local
                        1509 --_i	r15	local
                        1510 
                        1511 	.section ".bss","awb"
                        1512 .L2920:
                        1513 	.type	.L2920,@object
                        1514 	.size	.L2920,0
                        1515 	.data
                        1516 	.section ".R_FCL_CODE_ROMRAM","ax"
                        1517 	.align	2
                        1518 	.align	2
                        1519 ..gh.f.f.1.e.22:
                        1520 	.type	..gh.f.f.1.e.22,@object
                        1521 	.size	..gh.f.f.1.e.22,0
                        1522 	.global	_R_FCL_FCUFct_GetSecurityFlag
                        1523 _R_FCL_FCUFct_GetSecurityFlag:
0000021a 80076100       1524 	prepare	{r29,r31},0
                        1525 --	    .bf
                        1526 .LDW45:
0000021e 3d0600000000*  1527 	mov	_g_fcl_data_str,r29
00000224 3df70500       1528 	ld.w	4[r29],ep
00000228 3d673d00       1529 	ld.w	60[r29],r12
0000022c 008b           1530 	sld.b	0[ep],r17
0000022e 2c38           1531 	not	r12,r7
00000230 6e8a           1532 	cmp	14,r17
00000232 ba05*          1533 	bne	.L3144
                        1534 --line1237
                        1535 ..lin.D.3A.5Cusr.5Cusage.5CDelivery.5CCBD17x.5CCBD1700369.5CD04.5Cexternal.5CBSW.5CFlash.5Cbuild.5Cobj.5Cr_fcl_hw_access.116::
                        1536 .LDWlin116:
00000234 9f3a           1537 	shr	31,r7
00000236 8525*          1538 	br	.L3146
                        1539 .L3144:
                        1540 --line1239
                        1541 ..lin.D.3A.5Cusr.5Cusage.5CDelivery.5CCBD17x.5CCBD1700369.5CD04.5Cexternal.5CBSW.5CFlash.5Cbuild.5Cobj.5Cr_fcl_hw_access.117::
                        1542 .LDWlin117:
00000238 0033           1543 	sld.b	0[ep],r6
0000023a 0606f0ff       1544 	addi	-16,r6,zero

                                                                      Page 29
                                                              D:\TEMP\gh_00001gs1.s
0000023e ea05*          1545 	bne	.L3147
                        1546 --line1241
                        1547 ..lin.D.3A.5Cusr.5Cusage.5CDelivery.5CCBD17x.5CCBD1700369.5CD04.5Cexternal.5CBSW.5CFlash.5Cbuild.5Cobj.5Cr_fcl_hw_access.118::
                        1548 .LDWlin118:
00000240 407e0040       1549 	movhi	hi(1073741824),zero,r15
00000244 4f39           1550 	and	r15,r7
00000246 9e3a           1551 	shr	30,r7
00000248 f515*          1552 	br	.L3146
                        1553 .L3147:
                        1554 --line1243
                        1555 ..lin.D.3A.5Cusr.5Cusage.5CDelivery.5CCBD17x.5CCBD1700369.5CD04.5Cexternal.5CBSW.5CFlash.5Cbuild.5Cobj.5Cr_fcl_hw_access.119::
                        1556 .LDWlin119:
0000024a 009b           1557 	sld.b	0[ep],r19
0000024c 1306eeff       1558 	addi	-18,r19,zero
00000250 ea05*          1559 	bne	.L3150
                        1560 --line1245
                        1561 ..lin.D.3A.5Cusr.5Cusage.5CDelivery.5CCBD17x.5CCBD1700369.5CD04.5Cexternal.5CBSW.5CFlash.5Cbuild.5Cobj.5Cr_fcl_hw_access.120::
                        1562 .LDWlin120:
00000252 40760020       1563 	movhi	hi(536870912),zero,r14
00000256 4e39           1564 	and	r14,r7
00000258 9d3a           1565 	shr	29,r7
0000025a e50d*          1566 	br	.L3146
                        1567 .L3150:
                        1568 --line1247
                        1569 ..lin.D.3A.5Cusr.5Cusage.5CDelivery.5CCBD17x.5CCBD1700369.5CD04.5Cexternal.5CBSW.5CFlash.5Cbuild.5Cobj.5Cr_fcl_hw_access.121::
                        1570 .LDWlin121:
0000025c 0093           1571 	sld.b	0[ep],r18
0000025e 1206ecff       1572 	addi	-20,r18,zero
00000262 ea05*          1573 	bne	.L3153
                        1574 --line1249
                        1575 ..lin.D.3A.5Cusr.5Cusage.5CDelivery.5CCBD17x.5CCBD1700369.5CD04.5Cexternal.5CBSW.5CFlash.5Cbuild.5Cobj.5Cr_fcl_hw_access.122::
                        1576 .LDWlin122:
00000264 406e0008       1577 	movhi	hi(134217728),zero,r13
00000268 4d39           1578 	and	r13,r7
0000026a 9b3a           1579 	shr	27,r7
0000026c d505*          1580 	br	.L3146
                        1581 .L3153:
                        1582 --line1253
                        1583 ..lin.D.3A.5Cusr.5Cusage.5CDelivery.5CCBD17x.5CCBD1700369.5CD04.5Cexternal.5CBSW.5CFlash.5Cbuild.5Cobj.5Cr_fcl_hw_access.123::
                        1584 .LDWlin123:
0000026e 405e0001       1585 	movhi	hi(16777216),zero,r11
00000272 4b39           1586 	and	r11,r7
00000274 983a           1587 	shr	24,r7
                        1588 .L3146:
00000276 0235           1589 	sld.w	4[ep],r6
                        1590 	jarl	_R_FCL_I_write_unaligned_memory_u32,lp
                        1590 <EXPANSION BEGIN>
                        1590 jarl22 _R_FCL_I_write_unaligned_memory_u32 , lp 
00000278 80ff0000*      1590 <EXPANSION END>
                        1591 --line1258
                        1592 ..lin.D.3A.5Cusr.5Cusage.5CDelivery.5CCBD17x.5CCBD1700369.5CD04.5Cexternal.5CBSW.5CFlash.5Cbuild.5Cobj.5Cr_fcl_hw_access.124::
                        1593 .LDWlin124:
0000027c 3df70500       1594 	ld.w	4[r29],ep
00000280 8e03           1595 	sst.b	zero,14[ep]
                        1596 --	    .ef
                        1597 .LDW55:
00000282 40067f00       1598 	dispose	0,{r29,r31},[lp]
                        1599 	.global	___ghs_eofn_R_FCL_FCUFct_GetSecurityFlag
                        1600 ___ghs_eofn_R_FCL_FCUFct_GetSecurityFlag:
                        1601 	.type	_R_FCL_FCUFct_GetSecurityFlag,@function
                        1602 	.size	_R_FCL_FCUFct_GetSecurityFlag,.-_R_FCL_FCUFct_GetSecurityFlag

                                                                      Page 30
                                                              D:\TEMP\gh_00001gs1.s
                        1603 	.align	2
                        1604 --_data	r7	local
                        1605 
                        1606 	.section ".bss","awb"
                        1607 .L3230:
                        1608 	.type	.L3230,@object
                        1609 	.size	.L3230,0
                        1610 	.data
                        1611 	.section ".R_FCL_CODE_ROMRAM","ax"
                        1612 	.align	2
                        1613 	.align	2
                        1614 ..gh.f.f.1.e.23:
                        1615 	.type	..gh.f.f.1.e.23,@object
                        1616 	.size	..gh.f.f.1.e.23,0
                        1617 	.global	_R_FCL_FCUFct_GetBlockCnt
                        1618 _R_FCL_FCUFct_GetBlockCnt:
00000286 80076100       1619 	prepare	{r29,r31},0
                        1620 --	    .bf
                        1621 .LDW65:
0000028a 3d0600000000*  1622 	mov	_g_fcl_data_str,r29
00000290 3df70500       1623 	ld.w	4[r29],ep
00000294 fd3f4700       1624 	ld.hu	70[r29],r7
00000298 0235           1625 	sld.w	4[ep],r6
                        1626 	jarl	_R_FCL_I_write_unaligned_memory_u32,lp
                        1626 <EXPANSION BEGIN>
                        1626 jarl22 _R_FCL_I_write_unaligned_memory_u32 , lp 
0000029a 80ff0000*      1626 <EXPANSION END>
                        1627 --line1289
                        1628 ..lin.D.3A.5Cusr.5Cusage.5CDelivery.5CCBD17x.5CCBD1700369.5CD04.5Cexternal.5CBSW.5CFlash.5Cbuild.5Cobj.5Cr_fcl_hw_access.125::
                        1629 .LDWlin125:
0000029e 3df70500       1630 	ld.w	4[r29],ep
000002a2 8e03           1631 	sst.b	zero,14[ep]
                        1632 --	    .ef
                        1633 .LDW75:
000002a4 40067f00       1634 	dispose	0,{r29,r31},[lp]
                        1635 	.global	___ghs_eofn_R_FCL_FCUFct_GetBlockCnt
                        1636 ___ghs_eofn_R_FCL_FCUFct_GetBlockCnt:
                        1637 	.type	_R_FCL_FCUFct_GetBlockCnt,@function
                        1638 	.size	_R_FCL_FCUFct_GetBlockCnt,.-_R_FCL_FCUFct_GetBlockCnt
                        1639 	.align	2
                        1640 
                        1641 	.section ".bss","awb"
                        1642 .L3361:
                        1643 	.type	.L3361,@object
                        1644 	.size	.L3361,0
                        1645 	.data
                        1646 	.section ".R_FCL_CODE_ROMRAM","ax"
                        1647 	.align	2
                        1648 	.align	2
                        1649 ..gh.f.f.1.e.24:
                        1650 	.type	..gh.f.f.1.e.24,@object
                        1651 	.size	..gh.f.f.1.e.24,0
                        1652 	.global	_R_FCL_FCUFct_GetDeviceName
                        1653 _R_FCL_FCUFct_GetDeviceName:
000002a8 8007e110       1654 	prepare	{r27,r28,r29,r31},0
                        1655 --	    .bf
                        1656 .LDW85:
000002ac 3b0600000000*  1657 	mov	_g_fcl_data_str,r27
000002b2 3bf70500       1658 	ld.w	4[r27],ep
000002b6 00ea           1659 	mov	0,r29
000002b8 02e5           1660 	sld.w	4[ep],r28

                                                                      Page 31
                                                              D:\TEMP\gh_00001gs1.s
                        1661 .L3383:
000002ba 1d90           1662 	mov	r29,r18
000002bc db91           1663 	add	r27,r18
000002be 923f4b00       1664 	ld.bu	74[r18],r7
000002c2 1c30           1665 	mov	r28,r6
                        1666 	jarl	_R_FCL_I_write_memory_u08,lp
                        1666 <EXPANSION BEGIN>
                        1666 jarl22 _R_FCL_I_write_memory_u08 , lp 
000002c4 80ff0000*      1666 <EXPANSION END>
                        1667 --line1322
                        1668 ..lin.D.3A.5Cusr.5Cusage.5CDelivery.5CCBD17x.5CCBD1700369.5CD04.5Cexternal.5CBSW.5CFlash.5Cbuild.5Cobj.5Cr_fcl_hw_access.126::
                        1669 .LDWlin126:
000002c8 41e2           1670 	add	1,r28
000002ca 41ea           1671 	add	1,r29
000002cc 1d06f0ff       1672 	addi	-16,r29,zero
000002d0 d9f5*          1673 	bnl	.L3383
                        1674 --line1327
                        1675 ..lin.D.3A.5Cusr.5Cusage.5CDelivery.5CCBD17x.5CCBD1700369.5CD04.5Cexternal.5CBSW.5CFlash.5Cbuild.5Cobj.5Cr_fcl_hw_access.127::
                        1676 .LDWlin127:
000002d2 3bf70500       1677 	ld.w	4[r27],ep
000002d6 8e03           1678 	sst.b	zero,14[ep]
                        1679 --	    .ef
                        1680 .LDW95:
000002d8 4006ff10       1681 	dispose	0,{r27,r28,r29,r31},[lp]
                        1682 	.global	___ghs_eofn_R_FCL_FCUFct_GetDeviceName
                        1683 ___ghs_eofn_R_FCL_FCUFct_GetDeviceName:
                        1684 	.type	_R_FCL_FCUFct_GetDeviceName,@function
                        1685 	.size	_R_FCL_FCUFct_GetDeviceName,.-_R_FCL_FCUFct_GetDeviceName
                        1686 	.align	2
                        1687 --_bufAddr	r28	local
                        1688 --_i	r29	local
                        1689 
                        1690 	.section ".bss","awb"
                        1691 .L3419:
                        1692 	.type	.L3419,@object
                        1693 	.size	.L3419,0
                        1694 	.data
                        1695 	.section ".R_FCL_CODE_ROMRAM","ax"
                        1696 	.align	2
                        1697 	.align	2
                        1698 ..gh.f.f.1.e.25:
                        1699 	.type	..gh.f.f.1.e.25,@object
                        1700 	.size	..gh.f.f.1.e.25,0
                        1701 	.global	_R_FCL_FCUFct_GetBlockEndAddr
                        1702 _R_FCL_FCUFct_GetBlockEndAddr:
000002dc 80076100       1703 	prepare	{r29,r31},0
                        1704 --	    .bf
                        1705 .LDW06:
000002e0 3d0600000000*  1706 	mov	_g_fcl_data_str,r29
000002e6 3df70500       1707 	ld.w	4[r29],ep
000002ea 40860080       1708 	movhi	hi(-2147483648),zero,r16
000002ee 0465           1709 	sld.w	8[ep],r12
000002f0 047d           1710 	sld.w	8[ep],r15
000002f2 5061           1711 	and	r16,r12
000002f4 821d*          1712 	be	.L3457
                        1713 --line1362
                        1714 ..lin.D.3A.5Cusr.5Cusage.5CDelivery.5CCBD17x.5CCBD1700369.5CD04.5Cexternal.5CBSW.5CFlash.5Cbuild.5Cobj.5Cr_fcl_hw_access.128::
                        1715 .LDWlin128:
000002f6 3d773900       1716 	ld.w	56[r29],r14
000002fa 108effff       1717 	addi	-1,r16,r17
000002fe 5179           1718 	and	r17,r15

                                                                      Page 32
                                                              D:\TEMP\gh_00001gs1.s
00000300 ee79           1719 	cmp	r14,r15
00000302 d93d*          1720 	bnl	.L3464
00000304 1d6f5f00       1721 	ld.b	95[r29],r13
00000308 e069           1722 	cmp	zero,r13
0000030a 923d*          1723 	be	.L3464
                        1724 --line1367
                        1725 ..lin.D.3A.5Cusr.5Cusage.5CDelivery.5CCBD17x.5CCBD1700369.5CD04.5Cexternal.5CBSW.5CFlash.5Cbuild.5Cobj.5Cr_fcl_hw_access.129::
                        1726 .LDWlin129:
0000030c 0485           1727 	sld.w	8[ep],r16
0000030e 51660081       1728 	movhi	33024,r17,r12
00000312 0235           1729 	sld.w	4[ep],r6
00000314 103e0100       1730 	addi	1,r16,r7
00000318 cf3a           1731 	shl	15,r7
0000031a cc39           1732 	add	r12,r7
                        1733 	jarl	_R_FCL_I_write_unaligned_memory_u32,lp
                        1733 <EXPANSION BEGIN>
                        1733 jarl22 _R_FCL_I_write_unaligned_memory_u32 , lp 
0000031c 80ff0000*      1733 <EXPANSION END>
                        1734 --line1370
                        1735 ..lin.D.3A.5Cusr.5Cusage.5CDelivery.5CCBD17x.5CCBD1700369.5CD04.5Cexternal.5CBSW.5CFlash.5Cbuild.5Cobj.5Cr_fcl_hw_access.130::
                        1736 .LDWlin130:
00000320 006a           1737 	mov	0,r13
00000322 e52d*          1738 	br	.L3504
                        1739 .L3457:
                        1740 --line1380
                        1741 ..lin.D.3A.5Cusr.5Cusage.5CDelivery.5CCBD17x.5CCBD1700369.5CD04.5Cexternal.5CBSW.5CFlash.5Cbuild.5Cobj.5Cr_fcl_hw_access.131::
                        1742 .LDWlin131:
00000324 fd5f4700       1743 	ld.hu	70[r29],r11
00000328 eb79           1744 	cmp	r11,r15
0000032a 992d*          1745 	bnl	.L3464
                        1746 --line1382
                        1747 ..lin.D.3A.5Cusr.5Cusage.5CDelivery.5CCBD17x.5CCBD1700369.5CD04.5Cexternal.5CBSW.5CFlash.5Cbuild.5Cobj.5Cr_fcl_hw_access.132::
                        1748 .LDWlin132:
0000032c 9d975b00       1749 	ld.bu	90[r29],r18
00000330 0455           1750 	sld.w	8[ep],r10
00000332 045d           1751 	sld.w	8[ep],r11
00000334 f251           1752 	cmp	r18,r10
00000336 f905*          1753 	bnl	.L3466
                        1754 --line1385
                        1755 ..lin.D.3A.5Cusr.5Cusage.5CDelivery.5CCBD17x.5CCBD1700369.5CD04.5Cexternal.5CBSW.5CFlash.5Cbuild.5Cobj.5Cr_fcl_hw_access.133::
                        1756 .LDWlin133:
00000338 0b9e0100       1757 	addi	1,r11,r19
0000033c cd9a           1758 	shl	13,r19
0000033e 133effff       1759 	addi	-1,r19,r7
00000342 851d*          1760 	br	.L3468
                        1761 .L3466:
                        1762 --line1392
                        1763 ..lin.D.3A.5Cusr.5Cusage.5CDelivery.5CCBD17x.5CCBD1700369.5CD04.5Cexternal.5CBSW.5CFlash.5Cbuild.5Cobj.5Cr_fcl_hw_access.134::
                        1764 .LDWlin134:
00000344 3d8f3100       1765 	ld.w	48[r29],r17
00000348 0475           1766 	sld.w	8[ep],r14
0000034a d289           1767 	add	r18,r17
0000034c f159           1768 	cmp	r17,r11
0000034e a90d*          1769 	bnl	.L3469
                        1770 --line1396
                        1771 ..lin.D.3A.5Cusr.5Cusage.5CDelivery.5CCBD17x.5CCBD1700369.5CD04.5Cexternal.5CBSW.5CFlash.5Cbuild.5Cobj.5Cr_fcl_hw_access.135::
                        1772 .LDWlin135:
00000350 0e360100       1773 	addi	1,r14,r6
00000354 b231           1774 	sub	r18,r6
00000356 cd92           1775 	shl	13,r18
00000358 cf32           1776 	shl	15,r6

                                                                      Page 33
                                                              D:\TEMP\gh_00001gs1.s
0000035a d231           1777 	add	r18,r6
0000035c 063effff       1778 	addi	-1,r6,r7
00000360 950d*          1779 	br	.L3468
                        1780 .L3469:
                        1781 --line1405
                        1782 ..lin.D.3A.5Cusr.5Cusage.5CDelivery.5CCBD17x.5CCBD1700369.5CD04.5Cexternal.5CBSW.5CFlash.5Cbuild.5Cobj.5Cr_fcl_hw_access.136::
                        1783 .LDWlin136:
00000362 0e3e0100       1784 	addi	1,r14,r7
00000366 b139           1785 	sub	r17,r7
00000368 cf3a           1786 	shl	15,r7
0000036a 2906010080ff   1787 	mov	-8388607,r9
00000370 a939           1788 	sub	r9,r7
                        1789 .L3468:
00000372 0235           1790 	sld.w	4[ep],r6
                        1791 	jarl	_R_FCL_I_write_unaligned_memory_u32,lp
                        1791 <EXPANSION BEGIN>
                        1791 jarl22 _R_FCL_I_write_unaligned_memory_u32 , lp 
00000374 80ff0000*      1791 <EXPANSION END>
00000378 0c68           1792 	mov	r12,r13
0000037a a505*          1793 	br	.L3504
                        1794 .L3464:
                        1795 --line1416
                        1796 ..lin.D.3A.5Cusr.5Cusage.5CDelivery.5CCBD17x.5CCBD1700369.5CD04.5Cexternal.5CBSW.5CFlash.5Cbuild.5Cobj.5Cr_fcl_hw_access.137::
                        1797 .LDWlin137:
0000037c 046a           1798 	mov	4,r13
                        1799 .L3504:
0000037e 3df70500       1800 	ld.w	4[r29],ep
00000382 8e6b           1801 	sst.b	r13,14[ep]
                        1802 --	    .ef
                        1803 .LDW16:
00000384 40067f00       1804 	dispose	0,{r29,r31},[lp]
                        1805 	.global	___ghs_eofn_R_FCL_FCUFct_GetBlockEndAddr
                        1806 ___ghs_eofn_R_FCL_FCUFct_GetBlockEndAddr:
                        1807 	.type	_R_FCL_FCUFct_GetBlockEndAddr,@function
                        1808 	.size	_R_FCL_FCUFct_GetBlockEndAddr,.-_R_FCL_FCUFct_GetBlockEndAddr
                        1809 	.align	2
                        1810 --_blk	r19	local
                        1811 --_data	r7	local
                        1812 
                        1813 	.section ".bss","awb"
                        1814 .L3580:
                        1815 	.type	.L3580,@object
                        1816 	.size	.L3580,0
                        1817 	.data
                        1818 	.section ".R_FCL_CODE_ROMRAM","ax"
                        1819 	.section ".R_FCL_CODE_RAM","ax"
                        1820 	.align	2
                        1821 	.align	2
                        1822 ..gh.f.f.1.e.26:
                        1823 	.type	..gh.f.f.1.e.26,@object
                        1824 	.size	..gh.f.f.1.e.26,0
                        1825 	.global	_R_FCL_FCUFct_GetDeviceInfo..D.3A.5Cusr.5Cusage.5CDelivery.5CCBD17x.5CCBD1700369.5CD04.5Cexternal.5CBSW.5CFlash.5Cbuild.5Cobj.5Cr_fcl_hw_access.
                        1826 _R_FCL_FCUFct_GetDeviceInfo..D.3A.5Cusr.5Cusage.5CDelivery.5CCBD17x.5CCBD1700369.5CD04.5Cexternal.5CBSW.5CFlash.5Cbuild.5Cobj.5Cr_fcl_hw_access.:
                        1827 _R_FCL_FCUFct_GetDeviceInfo:
000003f0 8007e1b0       1828 	prepare	{r24,r26,r27,r28,r29,r31},0
                        1829 --	    .bf
                        1830 .LDW26:
000003f4 3d0600000000*  1831 	mov	_g_fcl_data_str+48,r29
000003fa 01da           1832 	mov	1,r27
000003fc 5ddf2f00       1833 	st.b	r27,47[r29]
00000400 260619020100   1834 	mov	66073,r6

                                                                      Page 34
                                                              D:\TEMP\gh_00001gs1.s
                        1835 	jarl	_R_FCL_I_read_memory_u08,lp
                        1835 <EXPANSION BEGIN>
                        1835 jarl22 _R_FCL_I_read_memory_u08 , lp 
00000406 bfff06fc*      1835 <EXPANSION END>
                        1836 --line1610
                        1837 ..lin.D.3A.5Cusr.5Cusage.5CDelivery.5CCBD17x.5CCBD1700369.5CD04.5Cexternal.5CBSW.5CFlash.5Cbuild.5Cobj.5Cr_fcl_hw_access.138::
                        1838 .LDWlin138:
0000040a 5d572b00       1839 	st.b	r10,43[r29]
0000040e 06365700       1840 	addi	87,r6,r6
                        1841 	jarl	_R_FCL_I_read_memory_u32,lp
                        1841 <EXPANSION BEGIN>
                        1841 jarl22 _R_FCL_I_read_memory_u32 , lp 
00000412 bfffeefb*      1841 <EXPANSION END>
                        1842 --line1613
                        1843 ..lin.D.3A.5Cusr.5Cusage.5CDelivery.5CCBD17x.5CCBD1700369.5CD04.5Cexternal.5CBSW.5CFlash.5Cbuild.5Cobj.5Cr_fcl_hw_access.139::
                        1844 .LDWlin139:
00000416 0ae0           1845 	mov	r10,r28
00000418 0a36c000       1846 	addi	192,r10,r6
                        1847 	jarl	_R_FCL_I_read_memory_u32,lp
                        1847 <EXPANSION BEGIN>
                        1847 jarl22 _R_FCL_I_read_memory_u32 , lp 
0000041c bfffe4fb*      1847 <EXPANSION END>
                        1848 --line1614
                        1849 ..lin.D.3A.5Cusr.5Cusage.5CDelivery.5CCBD17x.5CCBD1700369.5CD04.5Cexternal.5CBSW.5CFlash.5Cbuild.5Cobj.5Cr_fcl_hw_access.140::
                        1850 .LDWlin140:
00000420 0a90           1851 	mov	r10,r18
00000422 9592           1852 	shr	21,r18
00000424 1df0           1853 	mov	r29,ep
00000426 8352           1854 	shr	3,r10
00000428 0195           1855 	sst.w	r18,0[ep]
0000042a 1c36c400       1856 	addi	196,r28,r6
0000042e aa53           1857 	sst.b	r10,42[ep]
                        1858 	jarl	_R_FCL_I_read_memory_u32,lp
                        1858 <EXPANSION BEGIN>
                        1858 jarl22 _R_FCL_I_read_memory_u32 , lp 
00000430 bfffd0fb*      1858 <EXPANSION END>
                        1859 --line1619
                        1860 ..lin.D.3A.5Cusr.5Cusage.5CDelivery.5CCBD17x.5CCBD1700369.5CD04.5Cexternal.5CBSW.5CFlash.5Cbuild.5Cobj.5Cr_fcl_hw_access.141::
                        1861 .LDWlin141:
00000434 ca00           1862 	zxh	r10
00000436 1df0           1863 	mov	r29,ep
00000438 05dd           1864 	sst.w	r27,8[ep]
0000043a 8552           1865 	shr	5,r10
0000043c 0355           1866 	sst.w	r10,4[ep]
0000043e 1c36cc00       1867 	addi	204,r28,r6
                        1868 	jarl	_R_FCL_I_read_memory_u32,lp
                        1868 <EXPANSION BEGIN>
                        1868 jarl22 _R_FCL_I_read_memory_u32 , lp 
00000442 bfffbefb*      1868 <EXPANSION END>
                        1869 --line1628
                        1870 ..lin.D.3A.5Cusr.5Cusage.5CDelivery.5CCBD17x.5CCBD1700369.5CD04.5Cexternal.5CBSW.5CFlash.5Cbuild.5Cobj.5Cr_fcl_hw_access.142::
                        1871 .LDWlin142:
00000446 8a00           1872 	zxb	r10
00000448 0a06abff       1873 	addi	-85,r10,zero
0000044c e24f0000       1874 	setfe	r9
00000450 1c36d000       1875 	addi	208,r28,r6
00000454 5d4f2d00       1876 	st.b	r9,45[r29]
                        1877 	jarl	_R_FCL_I_read_memory_u32,lp
                        1877 <EXPANSION BEGIN>
                        1877 jarl22 _R_FCL_I_read_memory_u32 , lp 
00000458 bfffa8fb*      1877 <EXPANSION END>

                                                                      Page 35
                                                              D:\TEMP\gh_00001gs1.s
                        1878 --line1639
                        1879 ..lin.D.3A.5Cusr.5Cusage.5CDelivery.5CCBD17x.5CCBD1700369.5CD04.5Cexternal.5CBSW.5CFlash.5Cbuild.5Cobj.5Cr_fcl_hw_access.143::
                        1880 .LDWlin143:
0000045c 1df0           1881 	mov	r29,ep
0000045e 9a53           1882 	sst.b	r10,26[ep]
00000460 0a48           1883 	mov	r10,r9
00000462 0a88           1884 	mov	r10,r17
00000464 884a           1885 	shr	8,r9
00000466 1dde1a00       1886 	addi	26,r29,r27
0000046a 9b4b           1887 	sst.b	r9,27[ep]
0000046c 908a           1888 	shr	16,r17
0000046e 9c8b           1889 	sst.b	r17,28[ep]
00000470 9852           1890 	shr	24,r10
00000472 9d53           1891 	sst.b	r10,29[ep]
00000474 1c36d400       1892 	addi	212,r28,r6
                        1893 	jarl	_R_FCL_I_read_memory_u32,lp
                        1893 <EXPANSION BEGIN>
                        1893 jarl22 _R_FCL_I_read_memory_u32 , lp 
00000478 bfff88fb*      1893 <EXPANSION END>
                        1894 --line1645
                        1895 ..lin.D.3A.5Cusr.5Cusage.5CDelivery.5CCBD17x.5CCBD1700369.5CD04.5Cexternal.5CBSW.5CFlash.5Cbuild.5Cobj.5Cr_fcl_hw_access.144::
                        1896 .LDWlin144:
0000047c bd672b00       1897 	ld.bu	43[r29],r12
00000480 0ad0           1898 	mov	r10,r26
00000482 0c0601ff       1899 	addi	-255,r12,zero
00000486 a255*          1900 	be	.L3711
                        1901 --line1648
                        1902 ..lin.D.3A.5Cusr.5Cusage.5CDelivery.5CCBD17x.5CCBD1700369.5CD04.5Cexternal.5CBSW.5CFlash.5Cbuild.5Cobj.5Cr_fcl_hw_access.145::
                        1903 .LDWlin145:
00000488 380683de1b43   1904 	mov	1125899907,r24
0000048e 6462           1905 	cmp	4,r12
00000490 8925*          1906 	bnl	.L3713
                        1907 --line1650
                        1908 ..lin.D.3A.5Cusr.5Cusage.5CDelivery.5CCBD17x.5CCBD1700369.5CD04.5Cexternal.5CBSW.5CFlash.5Cbuild.5Cobj.5Cr_fcl_hw_access.146::
                        1909 .LDWlin146:
00000492 260664020100   1910 	mov	66148,r6
                        1911 	jarl	_R_FCL_I_read_memory_u08,lp
                        1911 <EXPANSION BEGIN>
                        1911 jarl22 _R_FCL_I_read_memory_u08 , lp 
00000498 bfff74fb*      1911 <EXPANSION END>
                        1912 --line1652
                        1913 ..lin.D.3A.5Cusr.5Cusage.5CDelivery.5CCBD17x.5CCBD1700369.5CD04.5Cexternal.5CBSW.5CFlash.5Cbuild.5Cobj.5Cr_fcl_hw_access.147::
                        1914 .LDWlin147:
0000049c 5d572c00       1915 	st.b	r10,44[r29]
000004a0 06361000       1916 	addi	16,r6,r6
                        1917 	jarl	_R_FCL_I_read_memory_u32,lp
                        1917 <EXPANSION BEGIN>
                        1917 jarl22 _R_FCL_I_read_memory_u32 , lp 
000004a4 bfff5cfb*      1917 <EXPANSION END>
000004a8 1840           1918 	mov	r24,r8
000004aa ea47224a       1919 	mulu	r10,r8,r9
                        1920 --line1656
                        1921 ..lin.D.3A.5Cusr.5Cusage.5CDelivery.5CCBD17x.5CCBD1700369.5CD04.5Cexternal.5CBSW.5CFlash.5Cbuild.5Cobj.5Cr_fcl_hw_access.148::
                        1922 .LDWlin148:
000004ae 2d06ffffff00   1923 	mov	16777215,r13
000004b4 5a69           1924 	and	r26,r13
000004b6 260630313200   1925 	mov	3289392,r6
000004bc 924a           1926 	shr	18,r9
000004be e669           1927 	cmp	r6,r13
000004c0 7d4f1400       1928 	st.h	r9,20[r29]
000004c4 e21d*          1929 	be	.L3720

                                                                      Page 36
                                                              D:\TEMP\gh_00001gs1.s
000004c6 469e2800       1930 	movhi	40,r6,r19
000004ca f369           1931 	cmp	r19,r13
000004cc ca1d*          1932 	bne	.L3718
000004ce 951d*          1933 	br	.L3720
                        1934 .L3713:
                        1935 --line1665
                        1936 ..lin.D.3A.5Cusr.5Cusage.5CDelivery.5CCBD17x.5CCBD1700369.5CD04.5Cexternal.5CBSW.5CFlash.5Cbuild.5Cobj.5Cr_fcl_hw_access.149::
                        1937 .LDWlin149:
000004d0 260665020100   1938 	mov	66149,r6
                        1939 	jarl	_R_FCL_I_read_memory_u08,lp
                        1939 <EXPANSION BEGIN>
                        1939 jarl22 _R_FCL_I_read_memory_u08 , lp 
000004d6 bfff36fb*      1939 <EXPANSION END>
                        1940 --line1667
                        1941 ..lin.D.3A.5Cusr.5Cusage.5CDelivery.5CCBD17x.5CCBD1700369.5CD04.5Cexternal.5CBSW.5CFlash.5Cbuild.5Cobj.5Cr_fcl_hw_access.150::
                        1942 .LDWlin150:
000004da 5d572c00       1943 	st.b	r10,44[r29]
000004de 06361300       1944 	addi	19,r6,r6
                        1945 	jarl	_R_FCL_I_read_memory_u32,lp
                        1945 <EXPANSION BEGIN>
                        1945 jarl22 _R_FCL_I_read_memory_u32 , lp 
000004e2 bfff1efb*      1945 <EXPANSION END>
000004e6 1830           1946 	mov	r24,r6
000004e8 ea37223a       1947 	mulu	r10,r6,r7
                        1948 --line1671
                        1949 ..lin.D.3A.5Cusr.5Cusage.5CDelivery.5CCBD17x.5CCBD1700369.5CD04.5Cexternal.5CBSW.5CFlash.5Cbuild.5Cobj.5Cr_fcl_hw_access.151::
                        1950 .LDWlin151:
000004ec 26061e020100   1951 	mov	66078,r6
000004f2 923a           1952 	shr	18,r7
000004f4 7d3f1400       1953 	st.h	r7,20[r29]
                        1954 	jarl	_R_FCL_I_read_memory_u08,lp
                        1954 <EXPANSION BEGIN>
                        1954 jarl22 _R_FCL_I_read_memory_u08 , lp 
000004f8 bfff14fb*      1954 <EXPANSION END>
000004fc e051           1955 	cmp	zero,r10
000004fe ba05*          1956 	bne	.L3718
                        1957 .L3720:
                        1958 --line1673
                        1959 ..lin.D.3A.5Cusr.5Cusage.5CDelivery.5CCBD17x.5CCBD1700369.5CD04.5Cexternal.5CBSW.5CFlash.5Cbuild.5Cobj.5Cr_fcl_hw_access.152::
                        1960 .LDWlin152:
00000500 5d072f00       1961 	st.b	zero,47[r29]
                        1962 .L3718:
00000504 260634020100   1963 	mov	66100,r6
                        1964 	jarl	_R_FCL_I_read_memory_u32,lp
                        1964 <EXPANSION BEGIN>
                        1964 jarl22 _R_FCL_I_read_memory_u32 , lp 
0000050a bffff6fa*      1964 <EXPANSION END>
                        1965 --line1680
                        1966 ..lin.D.3A.5Cusr.5Cusage.5CDelivery.5CCBD17x.5CCBD1700369.5CD04.5Cexternal.5CBSW.5CFlash.5Cbuild.5Cobj.5Cr_fcl_hw_access.153::
                        1967 .LDWlin153:
0000050e 1890           1968 	mov	r24,r18
00000510 4432           1969 	add	4,r6
00000512 ea97229a       1970 	mulu	r10,r18,r19
00000516 929a           1971 	shr	18,r19
00000518 7d9f1200       1972 	st.h	r19,18[r29]
                        1973 	jarl	_R_FCL_I_read_memory_u32,lp
                        1973 <EXPANSION BEGIN>
                        1973 jarl22 _R_FCL_I_read_memory_u32 , lp 
0000051c bfffe4fa*      1973 <EXPANSION END>
00000520 eac7228a       1974 	mulu	r10,r24,r17
00000524 928a           1975 	shr	18,r17

                                                                      Page 37
                                                              D:\TEMP\gh_00001gs1.s
00000526 7d8f1000       1976 	st.h	r17,16[r29]
                        1977 .L3711:
                        1978 --line1683
                        1979 ..lin.D.3A.5Cusr.5Cusage.5CDelivery.5CCBD17x.5CCBD1700369.5CD04.5Cexternal.5CBSW.5CFlash.5Cbuild.5Cobj.5Cr_fcl_hw_access.154::
                        1980 .LDWlin154:
0000052a 1bf0           1981 	mov	r27,ep
0000052c 84d3           1982 	sst.b	r26,4[ep]
0000052e 1a78           1983 	mov	r26,r15
00000530 1a80           1984 	mov	r26,r16
00000532 887a           1985 	shr	8,r15
00000534 1c36d800       1986 	addi	216,r28,r6
00000538 857b           1987 	sst.b	r15,5[ep]
0000053a 9082           1988 	shr	16,r16
0000053c 8683           1989 	sst.b	r16,6[ep]
0000053e 98d2           1990 	shr	24,r26
00000540 87d3           1991 	sst.b	r26,7[ep]
                        1992 	jarl	_R_FCL_I_read_memory_u32,lp
                        1992 <EXPANSION BEGIN>
                        1992 jarl22 _R_FCL_I_read_memory_u32 , lp 
00000542 bfffbefa*      1992 <EXPANSION END>
                        1993 --line1688
                        1994 ..lin.D.3A.5Cusr.5Cusage.5CDelivery.5CCBD17x.5CCBD1700369.5CD04.5Cexternal.5CBSW.5CFlash.5Cbuild.5Cobj.5Cr_fcl_hw_access.155::
                        1995 .LDWlin155:
00000546 1bf0           1996 	mov	r27,ep
00000548 8853           1997 	sst.b	r10,8[ep]
0000054a 0a70           1998 	mov	r10,r14
0000054c 0a78           1999 	mov	r10,r15
0000054e 8872           2000 	shr	8,r14
00000550 1c36dc00       2001 	addi	220,r28,r6
00000554 8973           2002 	sst.b	r14,9[ep]
00000556 907a           2003 	shr	16,r15
00000558 8a7b           2004 	sst.b	r15,10[ep]
0000055a 9852           2005 	shr	24,r10
0000055c 8b53           2006 	sst.b	r10,11[ep]
                        2007 	jarl	_R_FCL_I_read_memory_u32,lp
                        2007 <EXPANSION BEGIN>
                        2007 jarl22 _R_FCL_I_read_memory_u32 , lp 
0000055e bfffa2fa*      2007 <EXPANSION END>
                        2008 --line1693
                        2009 ..lin.D.3A.5Cusr.5Cusage.5CDelivery.5CCBD17x.5CCBD1700369.5CD04.5Cexternal.5CBSW.5CFlash.5Cbuild.5Cobj.5Cr_fcl_hw_access.156::
                        2010 .LDWlin156:
00000562 1bf0           2011 	mov	r27,ep
00000564 8c53           2012 	sst.b	r10,12[ep]
00000566 0a68           2013 	mov	r10,r13
00000568 0a70           2014 	mov	r10,r14
0000056a 886a           2015 	shr	8,r13
0000056c 8d6b           2016 	sst.b	r13,13[ep]
0000056e 9072           2017 	shr	16,r14
00000570 8e73           2018 	sst.b	r14,14[ep]
00000572 9852           2019 	shr	24,r10
00000574 8f53           2020 	sst.b	r10,15[ep]
00000576 2606400030ff   2021 	mov	-13631424,r6
                        2022 	jarl	_R_FCL_I_read_memory_u32,lp
                        2022 <EXPANSION BEGIN>
                        2022 jarl22 _R_FCL_I_read_memory_u32 , lp 
0000057c bfff84fa*      2022 <EXPANSION END>
                        2023 --line1702
                        2024 ..lin.D.3A.5Cusr.5Cusage.5CDelivery.5CCBD17x.5CCBD1700369.5CD04.5Cexternal.5CBSW.5CFlash.5Cbuild.5Cobj.5Cr_fcl_hw_access.157::
                        2025 .LDWlin157:
00000580 1df0           2026 	mov	r29,ep
00000582 0065           2027 	sld.w	0[ep],r12

                                                                      Page 38
                                                              D:\TEMP\gh_00001gs1.s
00000584 9d9f2b00       2028 	ld.bu	42[r29],r19
00000588 025d           2029 	sld.w	4[ep],r11
0000058a 0755           2030 	sst.w	r10,12[ep]
0000058c d361           2031 	add	r19,r12
0000058e cc59           2032 	add	r12,r11
00000590 8b5c           2033 	sst.h	r11,22[ep]
                        2034 --	    .ef
                        2035 .LDW36:
00000592 4006ffb0       2036 	dispose	0,{r24,r26,r27,r28,r29,r31},[lp]
                        2037 ___ghs_eofn_R_FCL_FCUFct_GetDeviceInfo:
                        2038 	.type	_R_FCL_FCUFct_GetDeviceInfo,@function
                        2039 	.size	_R_FCL_FCUFct_GetDeviceInfo,.-_R_FCL_FCUFct_GetDeviceInfo
                        2040 	.type	_R_FCL_FCUFct_GetDeviceInfo..D.3A.5Cusr.5Cusage.5CDelivery.5CCBD17x.5CCBD1700369.5CD04.5Cexternal.5CBSW.5CFlash.5Cbuild.5Cobj.5Cr_fcl_hw_access.,@function
                        2041 	.size	_R_FCL_FCUFct_GetDeviceInfo..D.3A.5Cusr.5Cusage.5CDelivery.5CCBD17x.5CCBD1700369.5CD04.5Cexternal.5CBSW.5CFlash.5Cbuild.5Cobj.5Cr_fcl_hw_access.,.-_R_FCL_FCUFct_GetDeviceInfo..D.3A.5Cusr.5Cusage.5CDelivery.5CCBD17x.5CCBD1700369.5CD04.5Cexternal.5CBSW.5CFlash.5Cbuild.5Cobj.5Cr_fcl_hw_access.
                        2042 	.align	2
                        2043 --_data	r26	local
                        2044 --_dataAddr	r28	local
                        2045 
                        2046 	.section ".bss","awb"
                        2047 .L3813:
                        2048 	.type	.L3813,@object
                        2049 	.size	.L3813,0
                        2050 	.data
                        2051 	.section ".R_FCL_CODE_RAM","ax"
                        2052 	.align	2
                        2053 	.align	2
                        2054 ..gh.f.f.1.e.27:
                        2055 	.type	..gh.f.f.1.e.27,@object
                        2056 	.size	..gh.f.f.1.e.27,0
                        2057 	.global	_R_FCL_FCUFct_PrepareEnvironment
                        2058 _R_FCL_FCUFct_PrepareEnvironment:
00000596 8007e100       2059 	prepare	{r28,r29,r31},0
                        2060 --	    .bf
                        2061 .LDW46:
0000059a 3d0600000000*  2062 	mov	_g_fcl_data_str,r29
000005a0 1d4f1200       2063 	ld.b	18[r29],r9
000005a4 3c065400a1ff   2064 	mov	-6225836,r28
000005aa 614a           2065 	cmp	1,r9
000005ac da2d*          2066 	bne	.L3899
                        2067 --line1454
                        2068 ..lin.D.3A.5Cusr.5Cusage.5CDelivery.5CCBD17x.5CCBD1700369.5CD04.5Cexternal.5CBSW.5CFlash.5Cbuild.5Cobj.5Cr_fcl_hw_access.158::
                        2069 .LDWlin158:
000005ae 1c363000       2070 	addi	48,r28,r6
                        2071 	jarl	_R_FCL_I_read_memory_u16,lp
                        2071 <EXPANSION BEGIN>
                        2071 jarl22 _R_FCL_I_read_memory_u16 , lp 
000005b2 bfff54fa*      2071 <EXPANSION END>
                        2072 --line1455
                        2073 ..lin.D.3A.5Cusr.5Cusage.5CDelivery.5CCBD17x.5CCBD1700369.5CD04.5Cexternal.5CBSW.5CFlash.5Cbuild.5Cobj.5Cr_fcl_hw_access.159::
                        2074 .LDWlin159:
000005b6 e051           2075 	cmp	zero,r10
000005b8 8a25*          2076 	bne	.L3901
                        2077 --line1460
                        2078 ..lin.D.3A.5Cusr.5Cusage.5CDelivery.5CCBD17x.5CCBD1700369.5CD04.5Cexternal.5CBSW.5CFlash.5Cbuild.5Cobj.5Cr_fcl_hw_access.160::
                        2079 .LDWlin160:
000005ba 5d4f1300       2080 	st.b	r9,19[r29]
000005be 1c30           2081 	mov	r28,r6
000005c0 803e03c4       2082 	ori	50179,zero,r7
                        2083 	jarl	_R_FCL_I_write_memory_u16,lp
                        2083 <EXPANSION BEGIN>
                        2083 jarl22 _R_FCL_I_write_memory_u16 , lp 

                                                                      Page 39
                                                              D:\TEMP\gh_00001gs1.s
000005c4 bfff92fa*      2083 <EXPANSION END>
                        2084 --line1464
                        2085 ..lin.D.3A.5Cusr.5Cusage.5CDelivery.5CCBD17x.5CCBD1700369.5CD04.5Cexternal.5CBSW.5CFlash.5Cbuild.5Cobj.5Cr_fcl_hw_access.161::
                        2086 .LDWlin161:
000005c8 0930           2087 	mov	r9,r6
                        2088 	jarl	_R_FCL_FCUFct_Switch_BFlash,lp
                        2088 <EXPANSION BEGIN>
                        2088 jarl22 _R_FCL_FCUFct_Switch_BFlash , lp 
000005ca 80ff0000*      2088 <EXPANSION END>
                        2089 --line1465
                        2090 ..lin.D.3A.5Cusr.5Cusage.5CDelivery.5CCBD17x.5CCBD1700369.5CD04.5Cexternal.5CBSW.5CFlash.5Cbuild.5Cobj.5Cr_fcl_hw_access.162::
                        2091 .LDWlin162:
                        2092 	jarl	_R_FCL_FCUFct_Clear_Cache,lp
                        2092 <EXPANSION BEGIN>
                        2092 jarl22 _R_FCL_FCUFct_Clear_Cache , lp 
000005ce 80ff0000*      2092 <EXPANSION END>
                        2093 --line1468
                        2094 ..lin.D.3A.5Cusr.5Cusage.5CDelivery.5CCBD17x.5CCBD1700369.5CD04.5Cexternal.5CBSW.5CFlash.5Cbuild.5Cobj.5Cr_fcl_hw_access.163::
                        2095 .LDWlin163:
                        2096 	jarl	_R_FCL_FCUFct_GetDeviceInfo,lp
                        2096 <EXPANSION BEGIN>
                        2096 jarl22 _R_FCL_FCUFct_GetDeviceInfo , lp 
000005d2 bfff1efe*      2096 <EXPANSION END>
                        2097 --line1471
                        2098 ..lin.D.3A.5Cusr.5Cusage.5CDelivery.5CCBD17x.5CCBD1700369.5CD04.5Cexternal.5CBSW.5CFlash.5Cbuild.5Cobj.5Cr_fcl_hw_access.164::
                        2099 .LDWlin164:
000005d6 1c3eac1f       2100 	addi	8108,r28,r7
000005da 1df0           2101 	mov	r29,ep
000005dc 260600700100   2102 	mov	94208,r6
000005e2 353d           2103 	sst.w	r7,104[ep]
000005e4 20460002       2104 	movea	512,zero,r8
000005e8 3735           2105 	sst.w	r6,108[ep]
                        2106 	jarl	_R_FCL_Fct_Copy_Code,lp
                        2106 <EXPANSION BEGIN>
                        2106 jarl22 _R_FCL_Fct_Copy_Code , lp 
000005ea 80ff0000*      2106 <EXPANSION END>
                        2107 --line1475
                        2108 ..lin.D.3A.5Cusr.5Cusage.5CDelivery.5CCBD17x.5CCBD1700369.5CD04.5Cexternal.5CBSW.5CFlash.5Cbuild.5Cobj.5Cr_fcl_hw_access.165::
                        2109 .LDWlin165:
000005ee 0282           2110 	mov	2,r16
000005f0 5d871200       2111 	st.b	r16,18[r29]
000005f4 4006ff00       2112 	dispose	0,{r28,r29,r31},[lp]
                        2113 .L3901:
                        2114 --line1479
                        2115 ..lin.D.3A.5Cusr.5Cusage.5CDelivery.5CCBD17x.5CCBD1700369.5CD04.5Cexternal.5CBSW.5CFlash.5Cbuild.5Cobj.5Cr_fcl_hw_access.166::
                        2116 .LDWlin166:
000005f8 067a           2117 	mov	6,r15
000005fa 1df0           2118 	mov	r29,ep
000005fc 937b           2119 	sst.b	r15,19[ep]
000005fe 0c72           2120 	mov	12,r14
00000600 9273           2121 	sst.b	r14,18[ep]
00000602 4006ff00       2122 	dispose	0,{r28,r29,r31},[lp]
                        2123 .L3899:
                        2124 --line1483
                        2125 ..lin.D.3A.5Cusr.5Cusage.5CDelivery.5CCBD17x.5CCBD1700369.5CD04.5Cexternal.5CBSW.5CFlash.5Cbuild.5Cobj.5Cr_fcl_hw_access.167::
                        2126 .LDWlin167:
00000606 624a           2127 	cmp	2,r9
00000608 fa2d*          2128 	bne	.L3905
                        2129 --line1485
                        2130 ..lin.D.3A.5Cusr.5Cusage.5CDelivery.5CCBD17x.5CCBD1700369.5CD04.5Cexternal.5CBSW.5CFlash.5Cbuild.5Cobj.5Cr_fcl_hw_access.168::
                        2131 .LDWlin168:

                                                                      Page 40
                                                              D:\TEMP\gh_00001gs1.s
0000060a 1df0           2132 	mov	r29,ep
0000060c 349d           2133 	sld.w	104[ep],r19
0000060e 3695           2134 	sld.w	108[ep],r18
00000610 1c6eac2f       2135 	addi	12204,r28,r13
00000614 133e0002       2136 	addi	512,r19,r7
00000618 353d           2137 	sst.w	r7,104[ep]
0000061a 12360002       2138 	addi	512,r18,r6
0000061e 3735           2139 	sst.w	r6,108[ep]
00000620 ed39           2140 	cmp	r13,r7
00000622 c11d*          2141 	bl	.L3907
                        2142 --line1491
                        2143 ..lin.D.3A.5Cusr.5Cusage.5CDelivery.5CCBD17x.5CCBD1700369.5CD04.5Cexternal.5CBSW.5CFlash.5Cbuild.5Cobj.5Cr_fcl_hw_access.169::
                        2144 .LDWlin169:
00000624 0032           2145 	mov	0,r6
                        2146 	jarl	_R_FCL_FCUFct_Switch_BFlash,lp
                        2146 <EXPANSION BEGIN>
                        2146 jarl22 _R_FCL_FCUFct_Switch_BFlash , lp 
00000626 80ff0000*      2146 <EXPANSION END>
                        2147 --line1492
                        2148 ..lin.D.3A.5Cusr.5Cusage.5CDelivery.5CCBD17x.5CCBD1700369.5CD04.5Cexternal.5CBSW.5CFlash.5Cbuild.5Cobj.5Cr_fcl_hw_access.170::
                        2149 .LDWlin170:
                        2150 	jarl	_R_FCL_FCUFct_Clear_Cache,lp
                        2150 <EXPANSION BEGIN>
                        2150 jarl22 _R_FCL_FCUFct_Clear_Cache , lp 
0000062a 80ff0000*      2150 <EXPANSION END>
                        2151 --line1495
                        2152 ..lin.D.3A.5Cusr.5Cusage.5CDelivery.5CCBD17x.5CCBD1700369.5CD04.5Cexternal.5CBSW.5CFlash.5Cbuild.5Cobj.5Cr_fcl_hw_access.171::
                        2153 .LDWlin171:
0000062e 1c30           2154 	mov	r28,r6
00000630 803e00c4       2155 	ori	50176,zero,r7
                        2156 	jarl	_R_FCL_I_write_memory_u16,lp
                        2156 <EXPANSION BEGIN>
                        2156 jarl22 _R_FCL_I_write_memory_u16 , lp 
00000634 bfff22fa*      2156 <EXPANSION END>
                        2157 --line1498
                        2158 ..lin.D.3A.5Cusr.5Cusage.5CDelivery.5CCBD17x.5CCBD1700369.5CD04.5Cexternal.5CBSW.5CFlash.5Cbuild.5Cobj.5Cr_fcl_hw_access.172::
                        2159 .LDWlin172:
00000638 20368000       2160 	movea	128,zero,r6
                        2161 	jarl	_R_FCL_FCUFct_SwitchMode_Start,lp
                        2161 <EXPANSION BEGIN>
                        2161 jarl22 _R_FCL_FCUFct_SwitchMode_Start , lp 
0000063c bfff20fc*      2161 <EXPANSION END>
                        2162 --line1499
                        2163 ..lin.D.3A.5Cusr.5Cusage.5CDelivery.5CCBD17x.5CCBD1700369.5CD04.5Cexternal.5CBSW.5CFlash.5Cbuild.5Cobj.5Cr_fcl_hw_access.173::
                        2164 .LDWlin173:
00000640 e051           2165 	cmp	zero,r10
00000642 ea05*          2166 	bne	.L3909
                        2167 --line1501
                        2168 ..lin.D.3A.5Cusr.5Cusage.5CDelivery.5CCBD17x.5CCBD1700369.5CD04.5Cexternal.5CBSW.5CFlash.5Cbuild.5Cobj.5Cr_fcl_hw_access.174::
                        2169 .LDWlin174:
00000644 0362           2170 	mov	3,r12
00000646 5d671200       2171 	st.b	r12,18[r29]
0000064a 4006ff00       2172 	dispose	0,{r28,r29,r31},[lp]
                        2173 .L3909:
                        2174 --line1506
                        2175 ..lin.D.3A.5Cusr.5Cusage.5CDelivery.5CCBD17x.5CCBD1700369.5CD04.5Cexternal.5CBSW.5CFlash.5Cbuild.5Cobj.5Cr_fcl_hw_access.175::
                        2176 .LDWlin175:
0000064e 1df0           2177 	mov	r29,ep
00000650 0c5a           2178 	mov	12,r11
00000652 9353           2179 	sst.b	r10,19[ep]
00000654 925b           2180 	sst.b	r11,18[ep]

                                                                      Page 41
                                                              D:\TEMP\gh_00001gs1.s
00000656 4006ff00       2181 	dispose	0,{r28,r29,r31},[lp]
                        2182 .L3907:
                        2183 --line1511
                        2184 ..lin.D.3A.5Cusr.5Cusage.5CDelivery.5CCBD17x.5CCBD1700369.5CD04.5Cexternal.5CBSW.5CFlash.5Cbuild.5Cobj.5Cr_fcl_hw_access.176::
                        2185 .LDWlin176:
0000065a 20460002       2186 	movea	512,zero,r8
                        2187 	jarl	_R_FCL_Fct_Copy_Code,lp
                        2187 <EXPANSION BEGIN>
                        2187 jarl22 _R_FCL_Fct_Copy_Code , lp 
0000065e 80ff0000*      2187 <EXPANSION END>
00000662 4006ff00       2188 	dispose	0,{r28,r29,r31},[lp]
                        2189 .L3905:
                        2190 --line1516
                        2191 ..lin.D.3A.5Cusr.5Cusage.5CDelivery.5CCBD17x.5CCBD1700369.5CD04.5Cexternal.5CBSW.5CFlash.5Cbuild.5Cobj.5Cr_fcl_hw_access.177::
                        2192 .LDWlin177:
00000666 634a           2193 	cmp	3,r9
00000668 9a15*          2194 	bne	.L3914
                        2195 --line1518
                        2196 ..lin.D.3A.5Cusr.5Cusage.5CDelivery.5CCBD17x.5CCBD1700369.5CD04.5Cexternal.5CBSW.5CFlash.5Cbuild.5Cobj.5Cr_fcl_hw_access.178::
                        2197 .LDWlin178:
                        2198 	jarl	_R_FCL_FCUFct_SwitchMode_Check,lp
                        2198 <EXPANSION BEGIN>
                        2198 jarl22 _R_FCL_FCUFct_SwitchMode_Check , lp 
0000066a bfff66fc*      2198 <EXPANSION END>
                        2199 --line1519
                        2200 ..lin.D.3A.5Cusr.5Cusage.5CDelivery.5CCBD17x.5CCBD1700369.5CD04.5Cexternal.5CBSW.5CFlash.5Cbuild.5Cobj.5Cr_fcl_hw_access.179::
                        2201 .LDWlin179:
0000066e e051           2202 	cmp	zero,r10
00000670 8a3d*          2203 	bne	.L3897
                        2204 --line1521
                        2205 ..lin.D.3A.5Cusr.5Cusage.5CDelivery.5CCBD17x.5CCBD1700369.5CD04.5Cexternal.5CBSW.5CFlash.5Cbuild.5Cobj.5Cr_fcl_hw_access.180::
                        2206 .LDWlin180:
                        2207 	jarl	_R_FCL_FCUFct_ForcedStop,lp
                        2207 <EXPANSION BEGIN>
                        2207 jarl22 _R_FCL_FCUFct_ForcedStop , lp 
00000672 bfff82fc*      2207 <EXPANSION END>
                        2208 --line1522
                        2209 ..lin.D.3A.5Cusr.5Cusage.5CDelivery.5CCBD17x.5CCBD1700369.5CD04.5Cexternal.5CBSW.5CFlash.5Cbuild.5Cobj.5Cr_fcl_hw_access.181::
                        2210 .LDWlin181:
                        2211 	jarl	_R_FCL_FCUFct_ClearStatus,lp
                        2211 <EXPANSION BEGIN>
                        2211 jarl22 _R_FCL_FCUFct_ClearStatus , lp 
00000676 bfffa6fb*      2211 <EXPANSION END>
                        2212 --line1524
                        2213 ..lin.D.3A.5Cusr.5Cusage.5CDelivery.5CCBD17x.5CCBD1700369.5CD04.5Cexternal.5CBSW.5CFlash.5Cbuild.5Cobj.5Cr_fcl_hw_access.182::
                        2214 .LDWlin182:
0000067a 0032           2215 	mov	0,r6
                        2216 	jarl	_R_FCL_FCUFct_SwitchMode_Start,lp
                        2216 <EXPANSION BEGIN>
                        2216 jarl22 _R_FCL_FCUFct_SwitchMode_Start , lp 
0000067c bfffe0fb*      2216 <EXPANSION END>
                        2217 --line1525
                        2218 ..lin.D.3A.5Cusr.5Cusage.5CDelivery.5CCBD17x.5CCBD1700369.5CD04.5Cexternal.5CBSW.5CFlash.5Cbuild.5Cobj.5Cr_fcl_hw_access.183::
                        2219 .LDWlin183:
00000680 0452           2220 	mov	4,r10
00000682 5d571200       2221 	st.b	r10,18[r29]
00000686 4006ff00       2222 	dispose	0,{r28,r29,r31},[lp]
                        2223 .L3914:
                        2224 --line1528
                        2225 ..lin.D.3A.5Cusr.5Cusage.5CDelivery.5CCBD17x.5CCBD1700369.5CD04.5Cexternal.5CBSW.5CFlash.5Cbuild.5Cobj.5Cr_fcl_hw_access.184::
                        2226 .LDWlin184:

                                                                      Page 42
                                                              D:\TEMP\gh_00001gs1.s
0000068a 644a           2227 	cmp	4,r9
0000068c 9a0d*          2228 	bne	.L3919
                        2229 --line1530
                        2230 ..lin.D.3A.5Cusr.5Cusage.5CDelivery.5CCBD17x.5CCBD1700369.5CD04.5Cexternal.5CBSW.5CFlash.5Cbuild.5Cobj.5Cr_fcl_hw_access.185::
                        2231 .LDWlin185:
                        2232 	jarl	_R_FCL_FCUFct_SwitchMode_Check,lp
                        2232 <EXPANSION BEGIN>
                        2232 jarl22 _R_FCL_FCUFct_SwitchMode_Check , lp 
0000068e bfff42fc*      2232 <EXPANSION END>
                        2233 --line1531
                        2234 ..lin.D.3A.5Cusr.5Cusage.5CDelivery.5CCBD17x.5CCBD1700369.5CD04.5Cexternal.5CBSW.5CFlash.5Cbuild.5Cobj.5Cr_fcl_hw_access.186::
                        2235 .LDWlin186:
00000692 e051           2236 	cmp	zero,r10
00000694 ea25*          2237 	bne	.L3897
                        2238 --line1533
                        2239 ..lin.D.3A.5Cusr.5Cusage.5CDelivery.5CCBD17x.5CCBD1700369.5CD04.5Cexternal.5CBSW.5CFlash.5Cbuild.5Cobj.5Cr_fcl_hw_access.187::
                        2240 .LDWlin187:
                        2241 	jarl	_R_FCL_FCUFct_VerifyChecksum,lp
                        2241 <EXPANSION BEGIN>
                        2241 jarl22 _R_FCL_FCUFct_VerifyChecksum , lp 
00000696 bfff98fa*      2241 <EXPANSION END>
0000069a 4006ff00       2242 	dispose	0,{r28,r29,r31},[lp]
                        2243 .L3919:
                        2244 --line1536
                        2245 ..lin.D.3A.5Cusr.5Cusage.5CDelivery.5CCBD17x.5CCBD1700369.5CD04.5Cexternal.5CBSW.5CFlash.5Cbuild.5Cobj.5Cr_fcl_hw_access.188::
                        2246 .LDWlin188:
0000069e 654a           2247 	cmp	5,r9
000006a0 fa0d*          2248 	bne	.L3924
                        2249 --line1539
                        2250 ..lin.D.3A.5Cusr.5Cusage.5CDelivery.5CCBD17x.5CCBD1700369.5CD04.5Cexternal.5CBSW.5CFlash.5Cbuild.5Cobj.5Cr_fcl_hw_access.189::
                        2251 .LDWlin189:
                        2252 	jarl	_R_FCL_FCUFct_VerifyID,lp
                        2252 <EXPANSION BEGIN>
                        2252 jarl22 _R_FCL_FCUFct_VerifyID , lp 
000006a2 bfff3cfa*      2252 <EXPANSION END>
                        2253 --line1540
                        2254 ..lin.D.3A.5Cusr.5Cusage.5CDelivery.5CCBD17x.5CCBD1700369.5CD04.5Cexternal.5CBSW.5CFlash.5Cbuild.5Cobj.5Cr_fcl_hw_access.190::
                        2255 .LDWlin190:
000006a6 e051           2256 	cmp	zero,r10
000006a8 ca05*          2257 	bne	.L3926
                        2258 --line1542
                        2259 ..lin.D.3A.5Cusr.5Cusage.5CDelivery.5CCBD17x.5CCBD1700369.5CD04.5Cexternal.5CBSW.5CFlash.5Cbuild.5Cobj.5Cr_fcl_hw_access.191::
                        2260 .LDWlin191:
                        2261 	jarl	_R_FCL_FCUFct_SetFrequency,lp
                        2261 <EXPANSION BEGIN>
                        2261 jarl22 _R_FCL_FCUFct_SetFrequency , lp 
000006aa bfff02fb*      2261 <EXPANSION END>
000006ae b505*          2262 	br	.L3928
                        2263 .L3926:
                        2264 --line1546
                        2265 ..lin.D.3A.5Cusr.5Cusage.5CDelivery.5CCBD17x.5CCBD1700369.5CD04.5Cexternal.5CBSW.5CFlash.5Cbuild.5Cobj.5Cr_fcl_hw_access.192::
                        2266 .LDWlin192:
000006b0 5d571300       2267 	st.b	r10,19[r29]
                        2268 .L3928:
000006b4 0c4a           2269 	mov	12,r9
000006b6 5d4f1200       2270 	st.b	r9,18[r29]
000006ba 4006ff00       2271 	dispose	0,{r28,r29,r31},[lp]
                        2272 .L3924:
                        2273 --line1554
                        2274 ..lin.D.3A.5Cusr.5Cusage.5CDelivery.5CCBD17x.5CCBD1700369.5CD04.5Cexternal.5CBSW.5CFlash.5Cbuild.5Cobj.5Cr_fcl_hw_access.193::
                        2275 .LDWlin193:

                                                                      Page 43
                                                              D:\TEMP\gh_00001gs1.s
000006be 3df70500       2276 	ld.w	4[r29],ep
000006c2 0132           2277 	mov	1,r6
000006c4 1d471300       2278 	ld.b	19[r29],r8
000006c8 8e43           2279 	sst.b	r8,14[ep]
000006ca 0e3b           2280 	sld.b	14[ep],r7
000006cc 1df0           2281 	mov	r29,ep
000006ce 9203           2282 	sst.b	zero,18[ep]
000006d0 a203           2283 	sst.b	zero,34[ep]
000006d2 0b05           2284 	sst.w	zero,20[ep]
000006d4 a603           2285 	sst.b	zero,38[ep]
000006d6 e039           2286 	cmp	zero,r7
000006d8 e503           2287 	sst.b	zero,101[ep]
000006da e2370433       2288 	cmove	2,r6,r6
000006de ac33           2289 	sst.b	r6,44[ep]
                        2290 .L3897:
                        2291 --	    .ef
                        2292 .LDW56:
000006e0 4006ff00       2293 	dispose	0,{r28,r29,r31},[lp]
                        2294 	.global	___ghs_eofn_R_FCL_FCUFct_PrepareEnvironment
                        2295 ___ghs_eofn_R_FCL_FCUFct_PrepareEnvironment:
                        2296 	.type	_R_FCL_FCUFct_PrepareEnvironment,@function
                        2297 	.size	_R_FCL_FCUFct_PrepareEnvironment,.-_R_FCL_FCUFct_PrepareEnvironment
                        2298 	.align	2
                        2299 --_ret	r10	local
                        2300 
                        2301 	.section ".bss","awb"
                        2302 .L4153:
                        2303 	.type	.L4153,@object
                        2304 	.size	.L4153,0
                        2305 	.data
                        2306 	.section ".R_FCL_CODE_RAM","ax"
                        2307 	.section ".R_FCL_CODE_ROMRAM","ax"
                        2308 	.align	2
                        2309 	.align	2
                        2310 ..gh.f.f.1.e.28:
                        2311 	.type	..gh.f.f.1.e.28,@object
                        2312 	.size	..gh.f.f.1.e.28,0
                        2313 	.global	_R_FCL_FCUFct_Erase
                        2314 _R_FCL_FCUFct_Erase:
00000388 80072100       2315 	prepare	{r31},0
                        2316 --	    .bf
                        2317 .LDW66:
                        2318 	jarl	_R_FCL_FCUFct_CheckMode,lp
                        2318 <EXPANSION BEGIN>
                        2318 jarl22 _R_FCL_FCUFct_CheckMode , lp 
0000038c bfff6cfd*      2318 <EXPANSION END>
00000390 3e0600000000*  2319 	mov	_g_fcl_data_str,ep
00000396 0295           2320 	sld.w	4[ep],r18
00000398 e051           2321 	cmp	zero,r10
0000039a ea05*          2322 	bne	.L4379
                        2323 --line1735
                        2324 ..lin.D.3A.5Cusr.5Cusage.5CDelivery.5CCBD17x.5CCBD1700369.5CD04.5Cexternal.5CBSW.5CFlash.5Cbuild.5Cobj.5Cr_fcl_hw_access.194::
                        2325 .LDWlin194:
0000039c 038a           2326 	mov	3,r17
0000039e 528f0e00       2327 	st.b	r17,14[r18]
000003a2 40063f00       2328 	dispose	0,{r31},[lp]
                        2329 .L4379:
                        2330 --line1739
                        2331 ..lin.D.3A.5Cusr.5Cusage.5CDelivery.5CCBD17x.5CCBD1700369.5CD04.5Cexternal.5CBSW.5CFlash.5Cbuild.5Cobj.5Cr_fcl_hw_access.195::
                        2332 .LDWlin195:
000003a6 325f0900       2333 	ld.w	8[r18],r11

                                                                      Page 44
                                                              D:\TEMP\gh_00001gs1.s
000003aa 32670900       2334 	ld.w	8[r18],r12
000003ae f27f0d00       2335 	ld.hu	12[r18],r15
000003b2 c15a           2336 	shl	1,r11
000003b4 8925*          2337 	bnl	.L4382
                        2338 --line1744
                        2339 ..lin.D.3A.5Cusr.5Cusage.5CDelivery.5CCBD17x.5CCBD1700369.5CD04.5Cexternal.5CBSW.5CFlash.5Cbuild.5Cobj.5Cr_fcl_hw_access.196::
                        2340 .LDWlin196:
000003b6 1c75           2341 	sld.w	56[ep],r14
000003b8 2706ffffff7f   2342 	mov	2147483647,r7
000003be 4761           2343 	and	r7,r12
000003c0 cc79           2344 	add	r12,r15
000003c2 ee79           2345 	cmp	r14,r15
000003c4 ab4d*          2346 	bh	.L4390
000003c6 f26f0d00       2347 	ld.hu	12[r18],r13
000003ca e069           2348 	cmp	zero,r13
000003cc e245*          2349 	be	.L4390
000003ce 5f63           2350 	sld.b	95[ep],r12
000003d0 e061           2351 	cmp	zero,r12
000003d2 b245*          2352 	be	.L4390
                        2353 --line1754
                        2354 ..lin.D.3A.5Cusr.5Cusage.5CDelivery.5CCBD17x.5CCBD1700369.5CD04.5Cexternal.5CBSW.5CFlash.5Cbuild.5Cobj.5Cr_fcl_hw_access.197::
                        2355 .LDWlin197:
000003d4 f25f0d00       2356 	ld.hu	12[r18],r11
000003d8 034a           2357 	mov	3,r9
000003da 326f0900       2358 	ld.w	8[r18],r13
000003de 0132           2359 	mov	1,r6
000003e0 ac4b           2360 	sst.b	r9,44[ep]
000003e2 9333           2361 	sst.b	r6,19[ep]
000003e4 885c           2362 	sst.h	r11,16[ep]
000003e6 9233           2363 	sst.b	r6,18[ep]
000003e8 cf6a           2364 	shl	15,r13
000003ea 4d560001       2365 	movhi	256,r13,r10
000003ee 0555           2366 	sst.w	r10,8[ep]
000003f0 40063f00       2367 	dispose	0,{r31},[lp]
                        2368 .L4382:
                        2369 --line1770
                        2370 ..lin.D.3A.5Cusr.5Cusage.5CDelivery.5CCBD17x.5CCBD1700369.5CD04.5Cexternal.5CBSW.5CFlash.5Cbuild.5Cobj.5Cr_fcl_hw_access.198::
                        2371 .LDWlin198:
000003f4 fe474700       2372 	ld.hu	70[ep],r8
000003f8 cc79           2373 	add	r12,r15
000003fa e879           2374 	cmp	r8,r15
000003fc eb2d*          2375 	bh	.L4390
000003fe f23f0d00       2376 	ld.hu	12[r18],r7
00000402 e039           2377 	cmp	zero,r7
00000404 a22d*          2378 	be	.L4390
                        2379 --line1774
                        2380 ..lin.D.3A.5Cusr.5Cusage.5CDelivery.5CCBD17x.5CCBD1700369.5CD04.5Cexternal.5CBSW.5CFlash.5Cbuild.5Cobj.5Cr_fcl_hw_access.199::
                        2381 .LDWlin199:
00000406 f2370d00       2382 	ld.hu	12[r18],r6
0000040a 9e775b00       2383 	ld.bu	90[ep],r14
0000040e 329f0900       2384 	ld.w	8[r18],r19
00000412 8834           2385 	sst.h	r6,16[ep]
00000414 ee99           2386 	cmp	r14,r19
00000416 329f0900       2387 	ld.w	8[r18],r19
0000041a c905*          2388 	bnl	.L4393
                        2389 --line1777
                        2390 ..lin.D.3A.5Cusr.5Cusage.5CDelivery.5CCBD17x.5CCBD1700369.5CD04.5Cexternal.5CBSW.5CFlash.5Cbuild.5Cobj.5Cr_fcl_hw_access.200::
                        2391 .LDWlin200:
0000041c 1388           2392 	mov	r19,r17
0000041e cd8a           2393 	shl	13,r17
00000420 c515*          2394 	br	.L4395

                                                                      Page 45
                                                              D:\TEMP\gh_00001gs1.s
                        2395 .L4393:
                        2396 --line1780
                        2397 ..lin.D.3A.5Cusr.5Cusage.5CDelivery.5CCBD17x.5CCBD1700369.5CD04.5Cexternal.5CBSW.5CFlash.5Cbuild.5Cobj.5Cr_fcl_hw_access.201::
                        2398 .LDWlin201:
00000422 1845           2399 	sld.w	48[ep],r8
00000424 32870900       2400 	ld.w	8[r18],r16
00000428 0850           2401 	mov	r8,r10
0000042a ce51           2402 	add	r14,r10
0000042c ea99           2403 	cmp	r10,r19
0000042e 890d*          2404 	bnl	.L4396
                        2405 --line1785
                        2406 ..lin.D.3A.5Cusr.5Cusage.5CDelivery.5CCBD17x.5CCBD1700369.5CD04.5Cexternal.5CBSW.5CFlash.5Cbuild.5Cobj.5Cr_fcl_hw_access.202::
                        2407 .LDWlin202:
00000430 1088           2408 	mov	r16,r17
00000432 0e48           2409 	mov	r14,r9
00000434 ae89           2410 	sub	r14,r17
00000436 cd4a           2411 	shl	13,r9
00000438 cf8a           2412 	shl	15,r17
0000043a c989           2413 	add	r9,r17
0000043c e505*          2414 	br	.L4395
                        2415 .L4396:
                        2416 --line1793
                        2417 ..lin.D.3A.5Cusr.5Cusage.5CDelivery.5CCBD17x.5CCBD1700369.5CD04.5Cexternal.5CBSW.5CFlash.5Cbuild.5Cobj.5Cr_fcl_hw_access.203::
                        2418 .LDWlin203:
0000043e ae81           2419 	sub	r14,r16
00000440 a881           2420 	sub	r8,r16
00000442 cf82           2421 	shl	15,r16
00000444 508e8000       2422 	movhi	128,r16,r17
                        2423 .L4395:
00000448 0392           2424 	mov	3,r18
0000044a ac93           2425 	sst.b	r18,44[ep]
0000044c 058d           2426 	sst.w	r17,8[ep]
0000044e 0192           2427 	mov	1,r18
00000450 9393           2428 	sst.b	r18,19[ep]
00000452 9293           2429 	sst.b	r18,18[ep]
00000454 40063f00       2430 	dispose	0,{r31},[lp]
                        2431 .L4390:
                        2432 --line1804
                        2433 ..lin.D.3A.5Cusr.5Cusage.5CDelivery.5CCBD17x.5CCBD1700369.5CD04.5Cexternal.5CBSW.5CFlash.5Cbuild.5Cobj.5Cr_fcl_hw_access.204::
                        2434 .LDWlin204:
00000458 048a           2435 	mov	4,r17
0000045a 528f0e00       2436 	st.b	r17,14[r18]
                        2437 --	    .ef
                        2438 .LDW76:
0000045e 40063f00       2439 	dispose	0,{r31},[lp]
                        2440 	.global	___ghs_eofn_R_FCL_FCUFct_Erase
                        2441 ___ghs_eofn_R_FCL_FCUFct_Erase:
                        2442 	.type	_R_FCL_FCUFct_Erase,@function
                        2443 	.size	_R_FCL_FCUFct_Erase,.-_R_FCL_FCUFct_Erase
                        2444 	.align	2
                        2445 --_blockCnt	r12	local
                        2446 
                        2447 	.section ".bss","awb"
                        2448 .L4512:
                        2449 	.type	.L4512,@object
                        2450 	.size	.L4512,0
                        2451 	.data
                        2452 	.section ".R_FCL_CODE_ROMRAM","ax"
                        2453 	.align	2
                        2454 	.align	2
                        2455 ..gh.f.f.1.e.29:

                                                                      Page 46
                                                              D:\TEMP\gh_00001gs1.s
                        2456 	.type	..gh.f.f.1.e.29,@object
                        2457 	.size	..gh.f.f.1.e.29,0
                        2458 	.global	_R_FCL_FCUFct_Write
                        2459 _R_FCL_FCUFct_Write:
00000462 80072100       2460 	prepare	{r31},0
                        2461 --	    .bf
                        2462 .LDW86:
                        2463 	jarl	_R_FCL_FCUFct_CheckMode,lp
                        2463 <EXPANSION BEGIN>
                        2463 jarl22 _R_FCL_FCUFct_CheckMode , lp 
00000466 bfff92fc*      2463 <EXPANSION END>
0000046a 320600000000*  2464 	mov	_g_fcl_data_str,r18
00000470 32f70500       2465 	ld.w	4[r18],ep
00000474 e051           2466 	cmp	zero,r10
00000476 da05*          2467 	bne	.L4673
                        2468 --line1838
                        2469 ..lin.D.3A.5Cusr.5Cusage.5CDelivery.5CCBD17x.5CCBD1700369.5CD04.5Cexternal.5CBSW.5CFlash.5Cbuild.5Cobj.5Cr_fcl_hw_access.205::
                        2470 .LDWlin205:
00000478 0332           2471 	mov	3,r6
0000047a 8e33           2472 	sst.b	r6,14[ep]
0000047c 40063f00       2473 	dispose	0,{r31},[lp]
                        2474 .L4673:
                        2475 --line1845
                        2476 ..lin.D.3A.5Cusr.5Cusage.5CDelivery.5CCBD17x.5CCBD1700369.5CD04.5Cexternal.5CBSW.5CFlash.5Cbuild.5Cobj.5Cr_fcl_hw_access.206::
                        2477 .LDWlin206:
00000480 32873100       2478 	ld.w	48[r18],r16
00000484 92675b00       2479 	ld.bu	90[r18],r12
00000488 046d           2480 	sld.w	8[ep],r13
0000048a 7688           2481 	sld.hu	12[ep],r17
0000048c cf82           2482 	shl	15,r16
0000048e cd62           2483 	shl	13,r12
00000490 c88a           2484 	shl	8,r17
00000492 cc81           2485 	add	r12,r16
00000494 cd89           2486 	add	r13,r17
00000496 f089           2487 	cmp	r16,r17
00000498 8315*          2488 	bnh	.L4679
0000049a 7678           2489 	sld.hu	12[ep],r15
0000049c 325f3500       2490 	ld.w	52[r18],r11
000004a0 c87a           2491 	shl	8,r15
000004a2 cd79           2492 	add	r13,r15
000004a4 cf5a           2493 	shl	15,r11
000004a6 4b9e8000       2494 	movhi	128,r11,r19
000004aa f379           2495 	cmp	r19,r15
000004ac cb0d*          2496 	bh	.L4676
000004ae 0485           2497 	sld.w	8[ep],r16
000004b0 408e8000       2498 	movhi	hi(8388608),zero,r17
000004b4 f181           2499 	cmp	r17,r16
000004b6 f105*          2500 	bl	.L4676
                        2501 .L4679:
000004b8 0455           2502 	sld.w	8[ep],r10
000004ba d852           2503 	shl	24,r10
000004bc ca05*          2504 	bne	.L4676
000004be 7678           2505 	sld.hu	12[ep],r15
000004c0 e079           2506 	cmp	zero,r15
000004c2 aa1d*          2507 	bne	.L4684
                        2508 .L4676:
                        2509 --line1862
                        2510 ..lin.D.3A.5Cusr.5Cusage.5CDelivery.5CCBD17x.5CCBD1700369.5CD04.5Cexternal.5CBSW.5CFlash.5Cbuild.5Cobj.5Cr_fcl_hw_access.207::
                        2511 .LDWlin207:
000004c4 7670           2512 	sld.hu	12[ep],r14
000004c6 324f3900       2513 	ld.w	56[r18],r9

                                                                      Page 47
                                                              D:\TEMP\gh_00001gs1.s
000004ca c872           2514 	shl	8,r14
000004cc cd71           2515 	add	r13,r14
000004ce cf4a           2516 	shl	15,r9
000004d0 496e0001       2517 	movhi	256,r9,r13
000004d4 ed71           2518 	cmp	r13,r14
000004d6 8b25*          2519 	bh	.L4683
000004d8 0445           2520 	sld.w	8[ep],r8
000004da d842           2521 	shl	24,r8
000004dc da1d*          2522 	bne	.L4683
000004de 7660           2523 	sld.hu	12[ep],r12
000004e0 e061           2524 	cmp	zero,r12
000004e2 a21d*          2525 	be	.L4683
000004e4 0455           2526 	sld.w	8[ep],r10
000004e6 405e0001       2527 	movhi	hi(16777216),zero,r11
000004ea eb51           2528 	cmp	r11,r10
000004ec d115*          2529 	bl	.L4683
000004ee 124f5f00       2530 	ld.b	95[r18],r9
000004f2 e049           2531 	cmp	zero,r9
000004f4 9215*          2532 	be	.L4683
                        2533 .L4684:
                        2534 --line1874
                        2535 ..lin.D.3A.5Cusr.5Cusage.5CDelivery.5CCBD17x.5CCBD1700369.5CD04.5Cexternal.5CBSW.5CFlash.5Cbuild.5Cobj.5Cr_fcl_hw_access.208::
                        2536 .LDWlin208:
000004f6 0245           2537 	sld.w	4[ep],r8
000004f8 039a           2538 	mov	3,r19
000004fa 7638           2539 	sld.hu	12[ep],r7
000004fc 72470d00       2540 	st.w	r8,12[r18]
00000500 0435           2541 	sld.w	8[ep],r6
00000502 723f1000       2542 	st.h	r7,16[r18]
00000506 12f0           2543 	mov	r18,ep
00000508 ac9b           2544 	sst.b	r19,44[ep]
0000050a 013a           2545 	mov	1,r7
0000050c 933b           2546 	sst.b	r7,19[ep]
0000050e 0535           2547 	sst.w	r6,8[ep]
00000510 923b           2548 	sst.b	r7,18[ep]
00000512 40063f00       2549 	dispose	0,{r31},[lp]
                        2550 .L4683:
                        2551 --line1881
                        2552 ..lin.D.3A.5Cusr.5Cusage.5CDelivery.5CCBD17x.5CCBD1700369.5CD04.5Cexternal.5CBSW.5CFlash.5Cbuild.5Cobj.5Cr_fcl_hw_access.209::
                        2553 .LDWlin209:
00000516 0492           2554 	mov	4,r18
00000518 8e93           2555 	sst.b	r18,14[ep]
                        2556 --	    .ef
                        2557 .LDW96:
0000051a 40063f00       2558 	dispose	0,{r31},[lp]
                        2559 	.global	___ghs_eofn_R_FCL_FCUFct_Write
                        2560 ___ghs_eofn_R_FCL_FCUFct_Write:
                        2561 	.type	_R_FCL_FCUFct_Write,@function
                        2562 	.size	_R_FCL_FCUFct_Write,.-_R_FCL_FCUFct_Write
                        2563 	.align	2
                        2564 --_startAddr	r13	local
                        2565 
                        2566 	.section ".bss","awb"
                        2567 .L4804:
                        2568 	.type	.L4804,@object
                        2569 	.size	.L4804,0
                        2570 	.data
                        2571 	.section ".R_FCL_CODE_ROMRAM","ax"
                        2572 	.section ".R_FCL_CODE_RAM","ax"
                        2573 	.align	2
                        2574 	.align	2

                                                                      Page 48
                                                              D:\TEMP\gh_00001gs1.s
                        2575 ..gh.f.f.1.e.30:
                        2576 	.type	..gh.f.f.1.e.30,@object
                        2577 	.size	..gh.f.f.1.e.30,0
                        2578 	.global	_R_FCL_FCUFct_HandleMultiOperation
                        2579 _R_FCL_FCUFct_HandleMultiOperation:
000006e4 8007e130       2580 	prepare	{r26,r27,r28,r29,r31},0
                        2581 --	    .bf
                        2582 .LDW07:
000006e8 3d0600000000*  2583 	mov	_g_fcl_data_str,r29
000006ee 1d371200       2584 	ld.b	18[r29],r6
000006f2 3c062000a1ff   2585 	mov	-6225888,r28
000006f8 6132           2586 	cmp	1,r6
000006fa 8a35*          2587 	bne	.L4947
                        2588 --line1921
                        2589 ..lin.D.3A.5Cusr.5Cusage.5CDelivery.5CCBD17x.5CCBD1700369.5CD04.5Cexternal.5CBSW.5CFlash.5Cbuild.5Cobj.5Cr_fcl_hw_access.210::
                        2590 .LDWlin210:
000006fc 1c30           2591 	mov	r28,r6
                        2592 	jarl	_R_FCL_I_read_memory_u16,lp
                        2592 <EXPANSION BEGIN>
                        2592 jarl22 _R_FCL_I_read_memory_u16 , lp 
000006fe bfff08f9*      2592 <EXPANSION END>
                        2593 --line1923
                        2594 ..lin.D.3A.5Cusr.5Cusage.5CDelivery.5CCBD17x.5CCBD1700369.5CD04.5Cexternal.5CBSW.5CFlash.5Cbuild.5Cobj.5Cr_fcl_hw_access.211::
                        2595 .LDWlin211:
00000702 1df0           2596 	mov	r29,ep
00000704 2433           2597 	sld.b	36[ep],r6
00000706 a454           2598 	sst.h	r10,72[ep]
00000708 e031           2599 	cmp	zero,r6
0000070a 9a25*          2600 	bne	.L4949
                        2601 --line1925
                        2602 ..lin.D.3A.5Cusr.5Cusage.5CDelivery.5CCBD17x.5CCBD1700369.5CD04.5Cexternal.5CBSW.5CFlash.5Cbuild.5Cobj.5Cr_fcl_hw_access.212::
                        2603 .LDWlin212:
0000070c 02f5           2604 	sld.w	4[ep],ep
0000070e 009b           2605 	sld.b	0[ep],r19
00000710 639a           2606 	cmp	3,r19
00000712 821d*          2607 	be	.L4952
00000714 0093           2608 	sld.b	0[ep],r18
00000716 6492           2609 	cmp	4,r18
00000718 d215*          2610 	be	.L4952
0000071a 008b           2611 	sld.b	0[ep],r17
0000071c 618a           2612 	cmp	1,r17
0000071e a215*          2613 	be	.L4952
00000720 0083           2614 	sld.b	0[ep],r16
00000722 0132           2615 	mov	1,r6
00000724 6282           2616 	cmp	2,r16
00000726 8a15*          2617 	bne	.L4951
                        2618 .L4956:
                        2619 	jarl	_R_FCL_FCUFct_SwitchMode_Start,lp
                        2619 <EXPANSION BEGIN>
                        2619 jarl22 _R_FCL_FCUFct_SwitchMode_Start , lp 
00000728 bfff34fb*      2619 <EXPANSION END>
                        2620 --line1938
                        2621 ..lin.D.3A.5Cusr.5Cusage.5CDelivery.5CCBD17x.5CCBD1700369.5CD04.5Cexternal.5CBSW.5CFlash.5Cbuild.5Cobj.5Cr_fcl_hw_access.213::
                        2622 .LDWlin213:
0000072c e051           2623 	cmp	zero,r10
0000072e 0672           2624 	mov	6,r14
00000730 e157047b       2625 	cmove	1,r10,r15
00000734 1df0           2626 	mov	r29,ep
00000736 937b           2627 	sst.b	r15,19[ep]
00000738 ec77146b       2628 	cmovne	12,r14,r13
0000073c 926b           2629 	sst.b	r13,18[ep]

                                                                      Page 49
                                                              D:\TEMP\gh_00001gs1.s
0000073e 4006ff30       2630 	dispose	0,{r26,r27,r28,r29,r31},[lp]
                        2631 .L4952:
                        2632 --line1930
                        2633 ..lin.D.3A.5Cusr.5Cusage.5CDelivery.5CCBD17x.5CCBD1700369.5CD04.5Cexternal.5CBSW.5CFlash.5Cbuild.5Cobj.5Cr_fcl_hw_access.214::
                        2634 .LDWlin214:
00000742 0132           2635 	mov	1,r6
00000744 a5f5*          2636 	br	.L4956
                        2637 .L4951:
                        2638 --line1935
                        2639 ..lin.D.3A.5Cusr.5Cusage.5CDelivery.5CCBD17x.5CCBD1700369.5CD04.5Cexternal.5CBSW.5CFlash.5Cbuild.5Cobj.5Cr_fcl_hw_access.215::
                        2640 .LDWlin215:
00000746 20368000       2641 	movea	128,zero,r6
0000074a f5ed*          2642 	br	.L4956
                        2643 .L4949:
                        2644 --line1954
                        2645 ..lin.D.3A.5Cusr.5Cusage.5CDelivery.5CCBD17x.5CCBD1700369.5CD04.5Cexternal.5CBSW.5CFlash.5Cbuild.5Cobj.5Cr_fcl_hw_access.216::
                        2646 .LDWlin216:
0000074c 1263           2647 	sld.b	18[ep],r12
0000074e 0c5a           2648 	mov	12,r11
00000750 9454           2649 	sst.h	r10,40[ep]
00000752 925b           2650 	sst.b	r11,18[ep]
00000754 a263           2651 	sst.b	r12,34[ep]
00000756 4006ff30       2652 	dispose	0,{r26,r27,r28,r29,r31},[lp]
                        2653 .L4947:
                        2654 --line1957
                        2655 ..lin.D.3A.5Cusr.5Cusage.5CDelivery.5CCBD17x.5CCBD1700369.5CD04.5Cexternal.5CBSW.5CFlash.5Cbuild.5Cobj.5Cr_fcl_hw_access.217::
                        2656 .LDWlin217:
0000075a 6632           2657 	cmp	6,r6
0000075c da15*          2658 	bne	.L4962
                        2659 --line1959
                        2660 ..lin.D.3A.5Cusr.5Cusage.5CDelivery.5CCBD17x.5CCBD1700369.5CD04.5Cexternal.5CBSW.5CFlash.5Cbuild.5Cobj.5Cr_fcl_hw_access.218::
                        2661 .LDWlin218:
                        2662 	jarl	_R_FCL_FCUFct_SwitchMode_Check,lp
                        2662 <EXPANSION BEGIN>
                        2662 jarl22 _R_FCL_FCUFct_SwitchMode_Check , lp 
0000075e bfff72fb*      2662 <EXPANSION END>
                        2663 --line1960
                        2664 ..lin.D.3A.5Cusr.5Cusage.5CDelivery.5CCBD17x.5CCBD1700369.5CD04.5Cexternal.5CBSW.5CFlash.5Cbuild.5Cobj.5Cr_fcl_hw_access.219::
                        2665 .LDWlin219:
00000762 e051           2666 	cmp	zero,r10
00000764 ea07c704*      2667 	bne	.L4945
                        2668 --line1962
                        2669 ..lin.D.3A.5Cusr.5Cusage.5CDelivery.5CCBD17x.5CCBD1700369.5CD04.5Cexternal.5CBSW.5CFlash.5Cbuild.5Cobj.5Cr_fcl_hw_access.220::
                        2670 .LDWlin220:
00000768 1d576500       2671 	ld.b	101[r29],r10
0000076c e051           2672 	cmp	zero,r10
0000076e ea07c901*      2673 	bne	.L4975
                        2674 --line1964
                        2675 ..lin.D.3A.5Cusr.5Cusage.5CDelivery.5CCBD17x.5CCBD1700369.5CD04.5Cexternal.5CBSW.5CFlash.5Cbuild.5Cobj.5Cr_fcl_hw_access.221::
                        2676 .LDWlin221:
00000772 1d4f2400       2677 	ld.b	36[r29],r9
00000776 e049           2678 	cmp	zero,r9
00000778 ea07ab01*      2679 	bne	.L4977
                        2680 --line1966
                        2681 ..lin.D.3A.5Cusr.5Cusage.5CDelivery.5CCBD17x.5CCBD1700369.5CD04.5Cexternal.5CBSW.5CFlash.5Cbuild.5Cobj.5Cr_fcl_hw_access.222::
                        2682 .LDWlin222:
0000077c 0742           2683 	mov	7,r8
0000077e 5d471200       2684 	st.b	r8,18[r29]
00000782 4006ff30       2685 	dispose	0,{r26,r27,r28,r29,r31},[lp]
                        2686 .L4962:
                        2687 --line1982

                                                                      Page 50
                                                              D:\TEMP\gh_00001gs1.s
                        2688 ..lin.D.3A.5Cusr.5Cusage.5CDelivery.5CCBD17x.5CCBD1700369.5CD04.5Cexternal.5CBSW.5CFlash.5Cbuild.5Cobj.5Cr_fcl_hw_access.223::
                        2689 .LDWlin223:
00000786 6732           2690 	cmp	7,r6
00000788 ea07bd01*      2691 	bne	.L4973
                        2692 --line1984
                        2693 ..lin.D.3A.5Cusr.5Cusage.5CDelivery.5CCBD17x.5CCBD1700369.5CD04.5Cexternal.5CBSW.5CFlash.5Cbuild.5Cobj.5Cr_fcl_hw_access.224::
                        2694 .LDWlin224:
0000078c 1d3f6500       2695 	ld.b	101[r29],r7
00000790 e039           2696 	cmp	zero,r7
00000792 ea07a501*      2697 	bne	.L4975
                        2698 --line1986
                        2699 ..lin.D.3A.5Cusr.5Cusage.5CDelivery.5CCBD17x.5CCBD1700369.5CD04.5Cexternal.5CBSW.5CFlash.5Cbuild.5Cobj.5Cr_fcl_hw_access.225::
                        2700 .LDWlin225:
00000796 1d372400       2701 	ld.b	36[r29],r6
0000079a e031           2702 	cmp	zero,r6
0000079c ea078701*      2703 	bne	.L4977
                        2704 --line1989
                        2705 ..lin.D.3A.5Cusr.5Cusage.5CDelivery.5CCBD17x.5CCBD1700369.5CD04.5Cexternal.5CBSW.5CFlash.5Cbuild.5Cobj.5Cr_fcl_hw_access.226::
                        2706 .LDWlin226:
000007a0 3df70500       2707 	ld.w	4[r29],ep
000007a4 009b           2708 	sld.b	0[ep],r19
000007a6 639a           2709 	cmp	3,r19
000007a8 a20d*          2710 	be	.L4980
000007aa 0093           2711 	sld.b	0[ep],r18
000007ac 6492           2712 	cmp	4,r18
000007ae f205*          2713 	be	.L4980
000007b0 008b           2714 	sld.b	0[ep],r17
000007b2 618a           2715 	cmp	1,r17
000007b4 c205*          2716 	be	.L4980
000007b6 0083           2717 	sld.b	0[ep],r16
000007b8 6282           2718 	cmp	2,r16
000007ba ca1d*          2719 	bne	.L4979
                        2720 .L4980:
                        2721 --line1994
                        2722 ..lin.D.3A.5Cusr.5Cusage.5CDelivery.5CCBD17x.5CCBD1700369.5CD04.5Cexternal.5CBSW.5CFlash.5Cbuild.5Cobj.5Cr_fcl_hw_access.227::
                        2723 .LDWlin227:
000007bc 1d6f5e00       2724 	ld.b	94[r29],r13
000007c0 207e0155       2725 	movea	21761,zero,r15
000007c4 20760055       2726 	movea	21760,zero,r14
000007c8 616a           2727 	cmp	1,r13
000007ca ef77343b       2728 	cmovne	r15,r14,r7
000007ce 1c366800       2729 	addi	104,r28,r6
                        2730 	jarl	_R_FCL_I_write_memory_u16,lp
                        2730 <EXPANSION BEGIN>
                        2730 jarl22 _R_FCL_I_write_memory_u16 , lp 
000007d2 bfff84f8*      2730 <EXPANSION END>
000007d6 3d4f0900       2731 	ld.w	8[r29],r9
000007da 40560001       2732 	movhi	hi(16777216),zero,r10
000007de 2066023b       2733 	movea	15106,zero,r12
000007e2 205e003b       2734 	movea	15104,zero,r11
                        2735 --line2012
                        2736 ..lin.D.3A.5Cusr.5Cusage.5CDelivery.5CCBD17x.5CCBD1700369.5CD04.5Cexternal.5CBSW.5CFlash.5Cbuild.5Cobj.5Cr_fcl_hw_access.228::
                        2737 .LDWlin228:
000007e6 1c30           2738 	mov	r28,r6
000007e8 ea49           2739 	cmp	r10,r9
000007ea ec5f323b       2740 	cmovnl	r12,r11,r7
                        2741 	jarl	_R_FCL_I_write_memory_u16,lp
                        2741 <EXPANSION BEGIN>
                        2741 jarl22 _R_FCL_I_write_memory_u16 , lp 
000007ee bfff68f8*      2741 <EXPANSION END>
                        2742 .L4979:

                                                                      Page 51
                                                              D:\TEMP\gh_00001gs1.s
                        2743 --line2017
                        2744 ..lin.D.3A.5Cusr.5Cusage.5CDelivery.5CCBD17x.5CCBD1700369.5CD04.5Cexternal.5CBSW.5CFlash.5Cbuild.5Cobj.5Cr_fcl_hw_access.229::
                        2745 .LDWlin229:
000007f2 3d3f0900       2746 	ld.w	8[r29],r7
000007f6 1c361000       2747 	addi	16,r28,r6
                        2748 	jarl	_R_FCL_I_write_memory_u32,lp
                        2748 <EXPANSION BEGIN>
                        2748 jarl22 _R_FCL_I_write_memory_u32 , lp 
000007fa bfff56f8*      2748 <EXPANSION END>
                        2749 --line2018
                        2750 ..lin.D.3A.5Cusr.5Cusage.5CDelivery.5CCBD17x.5CCBD1700369.5CD04.5Cexternal.5CBSW.5CFlash.5Cbuild.5Cobj.5Cr_fcl_hw_access.230::
                        2751 .LDWlin230:
000007fe 3df70500       2752 	ld.w	4[r29],ep
00000802 0043           2753 	sld.b	0[ep],r8
00000804 6142           2754 	cmp	1,r8
00000806 ba15*          2755 	bne	.L4990
                        2756 --line2020
                        2757 ..lin.D.3A.5Cusr.5Cusage.5CDelivery.5CCBD17x.5CCBD1700369.5CD04.5Cexternal.5CBSW.5CFlash.5Cbuild.5Cobj.5Cr_fcl_hw_access.231::
                        2758 .LDWlin231:
00000808 4036a2ff       2759 	movhi	65442,zero,r6
0000080c 203e2000       2760 	movea	32,zero,r7
                        2761 	jarl	_R_FCL_I_write_memory_u08,lp
                        2761 <EXPANSION BEGIN>
                        2761 jarl22 _R_FCL_I_write_memory_u08 , lp 
00000810 bfff02f8*      2761 <EXPANSION END>
                        2762 --line2021
                        2763 ..lin.D.3A.5Cusr.5Cusage.5CDelivery.5CCBD17x.5CCBD1700369.5CD04.5Cexternal.5CBSW.5CFlash.5Cbuild.5Cobj.5Cr_fcl_hw_access.232::
                        2764 .LDWlin232:
00000814 203ed000       2765 	movea	208,zero,r7
                        2766 	jarl	_R_FCL_I_write_memory_u08,lp
                        2766 <EXPANSION BEGIN>
                        2766 jarl22 _R_FCL_I_write_memory_u08 , lp 
00000818 bffffaf7*      2766 <EXPANSION END>
                        2767 --line2022
                        2768 ..lin.D.3A.5Cusr.5Cusage.5CDelivery.5CCBD17x.5CCBD1700369.5CD04.5Cexternal.5CBSW.5CFlash.5Cbuild.5Cobj.5Cr_fcl_hw_access.233::
                        2769 .LDWlin233:
0000081c 1df0           2770 	mov	r29,ep
0000081e 7888           2771 	sld.hu	16[ep],r17
00000820 0932           2772 	mov	9,r6
00000822 9233           2773 	sst.b	r6,18[ep]
00000824 5f8a           2774 	add	-1,r17
00000826 888c           2775 	sst.h	r17,16[ep]
00000828 4006ff30       2776 	dispose	0,{r26,r27,r28,r29,r31},[lp]
                        2777 .L4990:
                        2778 --line2025
                        2779 ..lin.D.3A.5Cusr.5Cusage.5CDelivery.5CCBD17x.5CCBD1700369.5CD04.5Cexternal.5CBSW.5CFlash.5Cbuild.5Cobj.5Cr_fcl_hw_access.234::
                        2780 .LDWlin234:
0000082c 009b           2781 	sld.b	0[ep],r19
0000082e 629a           2782 	cmp	2,r19
00000830 fa2d*          2783 	bne	.L4993
                        2784 --line2028
                        2785 ..lin.D.3A.5Cusr.5Cusage.5CDelivery.5CCBD17x.5CCBD1700369.5CD04.5Cexternal.5CBSW.5CFlash.5Cbuild.5Cobj.5Cr_fcl_hw_access.235::
                        2786 .LDWlin235:
00000832 4036a2ff       2787 	movhi	65442,zero,r6
00000836 203ee800       2788 	movea	232,zero,r7
                        2789 	jarl	_R_FCL_I_write_memory_u08,lp
                        2789 <EXPANSION BEGIN>
                        2789 jarl22 _R_FCL_I_write_memory_u08 , lp 
0000083a bfffd8f7*      2789 <EXPANSION END>
                        2790 --line2029
                        2791 ..lin.D.3A.5Cusr.5Cusage.5CDelivery.5CCBD17x.5CCBD1700369.5CD04.5Cexternal.5CBSW.5CFlash.5Cbuild.5Cobj.5Cr_fcl_hw_access.236::

                                                                      Page 52
                                                              D:\TEMP\gh_00001gs1.s
                        2792 .LDWlin236:
0000083e 203e8000       2793 	movea	128,zero,r7
                        2794 	jarl	_R_FCL_I_write_memory_u08,lp
                        2794 <EXPANSION BEGIN>
                        2794 jarl22 _R_FCL_I_write_memory_u08 , lp 
00000842 bfffd0f7*      2794 <EXPANSION END>
                        2795 --line2032
                        2796 ..lin.D.3A.5Cusr.5Cusage.5CDelivery.5CCBD17x.5CCBD1700369.5CD04.5Cexternal.5CBSW.5CFlash.5Cbuild.5Cobj.5Cr_fcl_hw_access.237::
                        2797 .LDWlin237:
00000846 20d64000       2798 	movea	64,zero,r26
                        2799 .L9814:
0000084a 3d4f0d00       2800 	ld.w	12[r29],r9
0000084e 09360100       2801 	addi	1,r9,r6
                        2802 	jarl	_R_FCL_I_read_memory_u08,lp
                        2802 <EXPANSION BEGIN>
                        2802 jarl22 _R_FCL_I_read_memory_u08 , lp 
00000852 bfffbaf7*      2802 <EXPANSION END>
                        2803 --line2037
                        2804 ..lin.D.3A.5Cusr.5Cusage.5CDelivery.5CCBD17x.5CCBD1700369.5CD04.5Cexternal.5CBSW.5CFlash.5Cbuild.5Cobj.5Cr_fcl_hw_access.238::
                        2805 .LDWlin238:
00000856 3d370d00       2806 	ld.w	12[r29],r6
0000085a c852           2807 	shl	8,r10
0000085c 0a38           2808 	mov	r10,r7
                        2809 	jarl	_R_FCL_I_read_memory_u08,lp
                        2809 <EXPANSION BEGIN>
                        2809 jarl22 _R_FCL_I_read_memory_u08 , lp 
0000085e bfffaef7*      2809 <EXPANSION END>
                        2810 --line2038
                        2811 ..lin.D.3A.5Cusr.5Cusage.5CDelivery.5CCBD17x.5CCBD1700369.5CD04.5Cexternal.5CBSW.5CFlash.5Cbuild.5Cobj.5Cr_fcl_hw_access.239::
                        2812 .LDWlin239:
00000862 1df0           2813 	mov	r29,ep
00000864 064d           2814 	sld.w	12[ep],r9
00000866 ca39           2815 	add	r10,r7
00000868 4036a2ff       2816 	movhi	65442,zero,r6
0000086c 424a           2817 	add	2,r9
0000086e 074d           2818 	sst.w	r9,12[ep]
                        2819 	jarl	_R_FCL_I_write_memory_u16,lp
                        2819 <EXPANSION BEGIN>
                        2819 jarl22 _R_FCL_I_write_memory_u16 , lp 
00000870 bfffe6f7*      2819 <EXPANSION END>
                        2820 .L9815:
                        2821 --line2042
                        2822 ..lin.D.3A.5Cusr.5Cusage.5CDelivery.5CCBD17x.5CCBD1700369.5CD04.5Cexternal.5CBSW.5CFlash.5Cbuild.5Cobj.5Cr_fcl_hw_access.240::
                        2823 .LDWlin240:
00000874 1c366000       2824 	addi	96,r28,r6
                        2825 	jarl	_R_FCL_I_read_memory_u32,lp
                        2825 <EXPANSION BEGIN>
                        2825 jarl22 _R_FCL_I_read_memory_u32 , lp 
00000878 bfff88f7*      2825 <EXPANSION END>
                        2826 --line2044
                        2827 ..lin.D.3A.5Cusr.5Cusage.5CDelivery.5CCBD17x.5CCBD1700369.5CD04.5Cexternal.5CBSW.5CFlash.5Cbuild.5Cobj.5Cr_fcl_hw_access.241::
                        2828 .LDWlin241:
0000087c 8b52           2829 	shr	11,r10
0000087e b1fd*          2830 	bl	.L9815
                        2831 --line2032
                        2832 ..lin.D.3A.5Cusr.5Cusage.5CDelivery.5CCBD17x.5CCBD1700369.5CD04.5Cexternal.5CBSW.5CFlash.5Cbuild.5Cobj.5Cr_fcl_hw_access.242::
                        2833 .LDWlin242:
00000880 fa063700*      2834 	loop	r26,.L9814
                        2835 --line2046
                        2836 ..lin.D.3A.5Cusr.5Cusage.5CDelivery.5CCBD17x.5CCBD1700369.5CD04.5Cexternal.5CBSW.5CFlash.5Cbuild.5Cobj.5Cr_fcl_hw_access.243::
                        2837 .LDWlin243:

                                                                      Page 53
                                                              D:\TEMP\gh_00001gs1.s
00000884 083a           2838 	mov	8,r7
00000886 5d3f1200       2839 	st.b	r7,18[r29]
0000088a 4006ff30       2840 	dispose	0,{r26,r27,r28,r29,r31},[lp]
                        2841 .L4993:
                        2842 --line2048
                        2843 ..lin.D.3A.5Cusr.5Cusage.5CDelivery.5CCBD17x.5CCBD1700369.5CD04.5Cexternal.5CBSW.5CFlash.5Cbuild.5Cobj.5Cr_fcl_hw_access.244::
                        2844 .LDWlin244:
0000088e 0033           2845 	sld.b	0[ep],r6
00000890 6432           2846 	cmp	4,r6
00000892 8a15*          2847 	bne	.L5002
                        2848 --line2051
                        2849 ..lin.D.3A.5Cusr.5Cusage.5CDelivery.5CCBD17x.5CCBD1700369.5CD04.5Cexternal.5CBSW.5CFlash.5Cbuild.5Cobj.5Cr_fcl_hw_access.245::
                        2850 .LDWlin245:
00000894 4036a2ff       2851 	movhi	65442,zero,r6
00000898 203e7100       2852 	movea	113,zero,r7
                        2853 	jarl	_R_FCL_I_write_memory_u08,lp
                        2853 <EXPANSION BEGIN>
                        2853 jarl22 _R_FCL_I_write_memory_u08 , lp 
0000089c bfff76f7*      2853 <EXPANSION END>
                        2854 --line2052
                        2855 ..lin.D.3A.5Cusr.5Cusage.5CDelivery.5CCBD17x.5CCBD1700369.5CD04.5Cexternal.5CBSW.5CFlash.5Cbuild.5Cobj.5Cr_fcl_hw_access.246::
                        2856 .LDWlin246:
000008a0 203ed000       2857 	movea	208,zero,r7
                        2858 	jarl	_R_FCL_I_write_memory_u08,lp
                        2858 <EXPANSION BEGIN>
                        2858 jarl22 _R_FCL_I_write_memory_u08 , lp 
000008a4 bfff6ef7*      2858 <EXPANSION END>
                        2859 --line2053
                        2860 ..lin.D.3A.5Cusr.5Cusage.5CDelivery.5CCBD17x.5CCBD1700369.5CD04.5Cexternal.5CBSW.5CFlash.5Cbuild.5Cobj.5Cr_fcl_hw_access.247::
                        2861 .LDWlin247:
000008a8 0992           2862 	mov	9,r18
000008aa 5d971200       2863 	st.b	r18,18[r29]
000008ae 4006ff30       2864 	dispose	0,{r26,r27,r28,r29,r31},[lp]
                        2865 .L5002:
                        2866 --line2055
                        2867 ..lin.D.3A.5Cusr.5Cusage.5CDelivery.5CCBD17x.5CCBD1700369.5CD04.5Cexternal.5CBSW.5CFlash.5Cbuild.5Cobj.5Cr_fcl_hw_access.248::
                        2868 .LDWlin248:
000008b2 008b           2869 	sld.b	0[ep],r17
000008b4 638a           2870 	cmp	3,r17
000008b6 8a15*          2871 	bne	.L5005
                        2872 --line2058
                        2873 ..lin.D.3A.5Cusr.5Cusage.5CDelivery.5CCBD17x.5CCBD1700369.5CD04.5Cexternal.5CBSW.5CFlash.5Cbuild.5Cobj.5Cr_fcl_hw_access.249::
                        2874 .LDWlin249:
000008b8 4036a2ff       2875 	movhi	65442,zero,r6
000008bc 203e7700       2876 	movea	119,zero,r7
                        2877 	jarl	_R_FCL_I_write_memory_u08,lp
                        2877 <EXPANSION BEGIN>
                        2877 jarl22 _R_FCL_I_write_memory_u08 , lp 
000008c0 bfff52f7*      2877 <EXPANSION END>
                        2878 --line2059
                        2879 ..lin.D.3A.5Cusr.5Cusage.5CDelivery.5CCBD17x.5CCBD1700369.5CD04.5Cexternal.5CBSW.5CFlash.5Cbuild.5Cobj.5Cr_fcl_hw_access.250::
                        2880 .LDWlin250:
000008c4 203ed000       2881 	movea	208,zero,r7
                        2882 	jarl	_R_FCL_I_write_memory_u08,lp
                        2882 <EXPANSION BEGIN>
                        2882 jarl22 _R_FCL_I_write_memory_u08 , lp 
000008c8 bfff4af7*      2882 <EXPANSION END>
                        2883 --line2060
                        2884 ..lin.D.3A.5Cusr.5Cusage.5CDelivery.5CCBD17x.5CCBD1700369.5CD04.5Cexternal.5CBSW.5CFlash.5Cbuild.5Cobj.5Cr_fcl_hw_access.251::
                        2885 .LDWlin251:
000008cc 097a           2886 	mov	9,r15

                                                                      Page 54
                                                              D:\TEMP\gh_00001gs1.s
000008ce 5d7f1200       2887 	st.b	r15,18[r29]
000008d2 4006ff30       2888 	dispose	0,{r26,r27,r28,r29,r31},[lp]
                        2889 .L5005:
                        2890 --line2065
                        2891 ..lin.D.3A.5Cusr.5Cusage.5CDelivery.5CCBD17x.5CCBD1700369.5CD04.5Cexternal.5CBSW.5CFlash.5Cbuild.5Cobj.5Cr_fcl_hw_access.252::
                        2892 .LDWlin252:
000008d6 0073           2893 	sld.b	0[ep],r14
000008d8 203e4000       2894 	movea	64,zero,r7
000008dc 6772           2895 	cmp	7,r14
000008de aa05*          2896 	bne	.L5010
                        2897 --line2067
                        2898 ..lin.D.3A.5Cusr.5Cusage.5CDelivery.5CCBD17x.5CCBD1700369.5CD04.5Cexternal.5CBSW.5CFlash.5Cbuild.5Cobj.5Cr_fcl_hw_access.253::
                        2899 .LDWlin253:
000008e0 453a           2900 	add	5,r7
                        2901 .L5010:
000008e2 4036a2ff       2902 	movhi	65442,zero,r6
                        2903 	jarl	_R_FCL_I_write_memory_u08,lp
                        2903 <EXPANSION BEGIN>
                        2903 jarl22 _R_FCL_I_write_memory_u08 , lp 
000008e6 bfff2cf7*      2903 <EXPANSION END>
000008ea 083a           2904 	mov	8,r7
                        2905 	jarl	_R_FCL_I_write_memory_u08,lp
                        2905 <EXPANSION BEGIN>
                        2905 jarl22 _R_FCL_I_write_memory_u08 , lp 
000008ec bfff26f7*      2905 <EXPANSION END>
                        2906 --line2074
                        2907 ..lin.D.3A.5Cusr.5Cusage.5CDelivery.5CCBD17x.5CCBD1700369.5CD04.5Cexternal.5CBSW.5CFlash.5Cbuild.5Cobj.5Cr_fcl_hw_access.254::
                        2908 .LDWlin254:
000008f0 07d0           2909 	mov	r7,r26
                        2910 .L9817:
000008f2 3d470d00       2911 	ld.w	12[r29],r8
000008f6 08360100       2912 	addi	1,r8,r6
                        2913 	jarl	_R_FCL_I_read_memory_u08,lp
                        2913 <EXPANSION BEGIN>
                        2913 jarl22 _R_FCL_I_read_memory_u08 , lp 
000008fa bfff12f7*      2913 <EXPANSION END>
                        2914 --line2079
                        2915 ..lin.D.3A.5Cusr.5Cusage.5CDelivery.5CCBD17x.5CCBD1700369.5CD04.5Cexternal.5CBSW.5CFlash.5Cbuild.5Cobj.5Cr_fcl_hw_access.255::
                        2916 .LDWlin255:
000008fe 3d370d00       2917 	ld.w	12[r29],r6
00000902 c852           2918 	shl	8,r10
00000904 0a38           2919 	mov	r10,r7
                        2920 	jarl	_R_FCL_I_read_memory_u08,lp
                        2920 <EXPANSION BEGIN>
                        2920 jarl22 _R_FCL_I_read_memory_u08 , lp 
00000906 bfff06f7*      2920 <EXPANSION END>
                        2921 --line2080
                        2922 ..lin.D.3A.5Cusr.5Cusage.5CDelivery.5CCBD17x.5CCBD1700369.5CD04.5Cexternal.5CBSW.5CFlash.5Cbuild.5Cobj.5Cr_fcl_hw_access.256::
                        2923 .LDWlin256:
0000090a 1df0           2924 	mov	r29,ep
0000090c 064d           2925 	sld.w	12[ep],r9
0000090e ca39           2926 	add	r10,r7
00000910 4036a2ff       2927 	movhi	65442,zero,r6
00000914 424a           2928 	add	2,r9
00000916 074d           2929 	sst.w	r9,12[ep]
                        2930 	jarl	_R_FCL_I_write_memory_u16,lp
                        2930 <EXPANSION BEGIN>
                        2930 jarl22 _R_FCL_I_write_memory_u16 , lp 
00000918 bfff3ef7*      2930 <EXPANSION END>
                        2931 --line2074
                        2932 ..lin.D.3A.5Cusr.5Cusage.5CDelivery.5CCBD17x.5CCBD1700369.5CD04.5Cexternal.5CBSW.5CFlash.5Cbuild.5Cobj.5Cr_fcl_hw_access.257::

                                                                      Page 55
                                                              D:\TEMP\gh_00001gs1.s
                        2933 .LDWlin257:
0000091c fa062b00*      2934 	loop	r26,.L9817
00000920 b535*          2935 	br	.L5019
                        2936 .L4977:
                        2937 --line2089
                        2938 ..lin.D.3A.5Cusr.5Cusage.5CDelivery.5CCBD17x.5CCBD1700369.5CD04.5Cexternal.5CBSW.5CFlash.5Cbuild.5Cobj.5Cr_fcl_hw_access.258::
                        2939 .LDWlin258:
00000922 fd474900       2940 	ld.hu	72[r29],r8
00000926 1df0           2941 	mov	r29,ep
00000928 013a           2942 	mov	1,r7
0000092a 0a32           2943 	mov	10,r6
0000092c a23b           2944 	sst.b	r7,34[ep]
0000092e 9233           2945 	sst.b	r6,18[ep]
00000930 9444           2946 	sst.h	r8,40[ep]
00000932 4006ff30       2947 	dispose	0,{r26,r27,r28,r29,r31},[lp]
                        2948 .L4975:
                        2949 --line2096
                        2950 ..lin.D.3A.5Cusr.5Cusage.5CDelivery.5CCBD17x.5CCBD1700369.5CD04.5Cexternal.5CBSW.5CFlash.5Cbuild.5Cobj.5Cr_fcl_hw_access.259::
                        2951 .LDWlin259:
                        2952 	jarl	_R_FCL_FCUFct_ForcedStop,lp
                        2952 <EXPANSION BEGIN>
                        2952 jarl22 _R_FCL_FCUFct_ForcedStop , lp 
00000936 bfffbef9*      2952 <EXPANSION END>
                        2953 --line2097
                        2954 ..lin.D.3A.5Cusr.5Cusage.5CDelivery.5CCBD17x.5CCBD1700369.5CD04.5Cexternal.5CBSW.5CFlash.5Cbuild.5Cobj.5Cr_fcl_hw_access.260::
                        2955 .LDWlin260:
0000093a 0a9a           2956 	mov	10,r19
0000093c 5d9f1200       2957 	st.b	r19,18[r29]
00000940 4006ff30       2958 	dispose	0,{r26,r27,r28,r29,r31},[lp]
                        2959 .L4973:
                        2960 --line2100
                        2961 ..lin.D.3A.5Cusr.5Cusage.5CDelivery.5CCBD17x.5CCBD1700369.5CD04.5Cexternal.5CBSW.5CFlash.5Cbuild.5Cobj.5Cr_fcl_hw_access.261::
                        2962 .LDWlin261:
00000944 6832           2963 	cmp	8,r6
00000946 ba2d*          2964 	bne	.L5017
                        2965 --line2103
                        2966 ..lin.D.3A.5Cusr.5Cusage.5CDelivery.5CCBD17x.5CCBD1700369.5CD04.5Cexternal.5CBSW.5CFlash.5Cbuild.5Cobj.5Cr_fcl_hw_access.262::
                        2967 .LDWlin262:
00000948 20d64000       2968 	movea	64,zero,r26
                        2969 .L9818:
0000094c 3d3f0d00       2970 	ld.w	12[r29],r7
00000950 07360100       2971 	addi	1,r7,r6
                        2972 	jarl	_R_FCL_I_read_memory_u08,lp
                        2972 <EXPANSION BEGIN>
                        2972 jarl22 _R_FCL_I_read_memory_u08 , lp 
00000954 bfffb8f6*      2972 <EXPANSION END>
                        2973 --line2108
                        2974 ..lin.D.3A.5Cusr.5Cusage.5CDelivery.5CCBD17x.5CCBD1700369.5CD04.5Cexternal.5CBSW.5CFlash.5Cbuild.5Cobj.5Cr_fcl_hw_access.263::
                        2975 .LDWlin263:
00000958 3d370d00       2976 	ld.w	12[r29],r6
0000095c c852           2977 	shl	8,r10
0000095e 0a38           2978 	mov	r10,r7
                        2979 	jarl	_R_FCL_I_read_memory_u08,lp
                        2979 <EXPANSION BEGIN>
                        2979 jarl22 _R_FCL_I_read_memory_u08 , lp 
00000960 bfffacf6*      2979 <EXPANSION END>
                        2980 --line2109
                        2981 ..lin.D.3A.5Cusr.5Cusage.5CDelivery.5CCBD17x.5CCBD1700369.5CD04.5Cexternal.5CBSW.5CFlash.5Cbuild.5Cobj.5Cr_fcl_hw_access.264::
                        2982 .LDWlin264:
00000964 1df0           2983 	mov	r29,ep
00000966 064d           2984 	sld.w	12[ep],r9

                                                                      Page 56
                                                              D:\TEMP\gh_00001gs1.s
00000968 ca39           2985 	add	r10,r7
0000096a 4036a2ff       2986 	movhi	65442,zero,r6
0000096e 424a           2987 	add	2,r9
00000970 074d           2988 	sst.w	r9,12[ep]
                        2989 	jarl	_R_FCL_I_write_memory_u16,lp
                        2989 <EXPANSION BEGIN>
                        2989 jarl22 _R_FCL_I_write_memory_u16 , lp 
00000972 bfffe4f6*      2989 <EXPANSION END>
                        2990 .L9819:
                        2991 --line2113
                        2992 ..lin.D.3A.5Cusr.5Cusage.5CDelivery.5CCBD17x.5CCBD1700369.5CD04.5Cexternal.5CBSW.5CFlash.5Cbuild.5Cobj.5Cr_fcl_hw_access.265::
                        2993 .LDWlin265:
00000976 1c366000       2994 	addi	96,r28,r6
                        2995 	jarl	_R_FCL_I_read_memory_u32,lp
                        2995 <EXPANSION BEGIN>
                        2995 jarl22 _R_FCL_I_read_memory_u32 , lp 
0000097a bfff86f6*      2995 <EXPANSION END>
                        2996 --line2115
                        2997 ..lin.D.3A.5Cusr.5Cusage.5CDelivery.5CCBD17x.5CCBD1700369.5CD04.5Cexternal.5CBSW.5CFlash.5Cbuild.5Cobj.5Cr_fcl_hw_access.266::
                        2998 .LDWlin266:
0000097e 8b52           2999 	shr	11,r10
00000980 b1fd*          3000 	bl	.L9819
                        3001 --line2103
                        3002 ..lin.D.3A.5Cusr.5Cusage.5CDelivery.5CCBD17x.5CCBD1700369.5CD04.5Cexternal.5CBSW.5CFlash.5Cbuild.5Cobj.5Cr_fcl_hw_access.267::
                        3003 .LDWlin267:
00000982 fa063700*      3004 	loop	r26,.L9818
                        3005 .L5019:
                        3006 --line2117
                        3007 ..lin.D.3A.5Cusr.5Cusage.5CDelivery.5CCBD17x.5CCBD1700369.5CD04.5Cexternal.5CBSW.5CFlash.5Cbuild.5Cobj.5Cr_fcl_hw_access.268::
                        3008 .LDWlin268:
00000986 4036a2ff       3009 	movhi	65442,zero,r6
0000098a 203ed000       3010 	movea	208,zero,r7
                        3011 	jarl	_R_FCL_I_write_memory_u08,lp
                        3011 <EXPANSION BEGIN>
                        3011 jarl22 _R_FCL_I_write_memory_u08 , lp 
0000098e bfff84f6*      3011 <EXPANSION END>
                        3012 --line2118
                        3013 ..lin.D.3A.5Cusr.5Cusage.5CDelivery.5CCBD17x.5CCBD1700369.5CD04.5Cexternal.5CBSW.5CFlash.5Cbuild.5Cobj.5Cr_fcl_hw_access.269::
                        3014 .LDWlin269:
00000992 0932           3015 	mov	9,r6
00000994 5d371200       3016 	st.b	r6,18[r29]
00000998 4006ff30       3017 	dispose	0,{r26,r27,r28,r29,r31},[lp]
                        3018 .L5017:
                        3019 --line2120
                        3020 ..lin.D.3A.5Cusr.5Cusage.5CDelivery.5CCBD17x.5CCBD1700369.5CD04.5Cexternal.5CBSW.5CFlash.5Cbuild.5Cobj.5Cr_fcl_hw_access.270::
                        3021 .LDWlin270:
0000099c 6932           3022 	cmp	9,r6
0000099e ea078f01*      3023 	bne	.L5026
                        3024 --line2122
                        3025 ..lin.D.3A.5Cusr.5Cusage.5CDelivery.5CCBD17x.5CCBD1700369.5CD04.5Cexternal.5CBSW.5CFlash.5Cbuild.5Cobj.5Cr_fcl_hw_access.271::
                        3026 .LDWlin271:
000009a2 1ddf6500       3027 	ld.b	101[r29],r27
000009a6 e0d9           3028 	cmp	zero,r27
000009a8 ea075d01*      3029 	bne	.L5028
                        3030 --line2126
                        3031 ..lin.D.3A.5Cusr.5Cusage.5CDelivery.5CCBD17x.5CCBD1700369.5CD04.5Cexternal.5CBSW.5CFlash.5Cbuild.5Cobj.5Cr_fcl_hw_access.272::
                        3032 .LDWlin272:
000009ac 1d9f2400       3033 	ld.b	36[r29],r19
000009b0 619a           3034 	cmp	1,r19
000009b2 aa1d*          3035 	bne	.L5030
000009b4 3d971500       3036 	ld.w	20[r29],r18

                                                                      Page 57
                                                              D:\TEMP\gh_00001gs1.s
000009b8 e091           3037 	cmp	zero,r18
000009ba ea15*          3038 	bne	.L5030
                        3039 --line2129
                        3040 ..lin.D.3A.5Cusr.5Cusage.5CDelivery.5CCBD17x.5CCBD1700369.5CD04.5Cexternal.5CBSW.5CFlash.5Cbuild.5Cobj.5Cr_fcl_hw_access.273::
                        3041 .LDWlin273:
000009bc 1c30           3042 	mov	r28,r6
                        3043 	jarl	_R_FCL_I_read_memory_u16,lp
                        3043 <EXPANSION BEGIN>
                        3043 jarl22 _R_FCL_I_read_memory_u16 , lp 
000009be bfff48f6*      3043 <EXPANSION END>
                        3044 --line2130
                        3045 ..lin.D.3A.5Cusr.5Cusage.5CDelivery.5CCBD17x.5CCBD1700369.5CD04.5Cexternal.5CBSW.5CFlash.5Cbuild.5Cobj.5Cr_fcl_hw_access.274::
                        3046 .LDWlin274:
000009c2 7d572800       3047 	st.h	r10,40[r29]
000009c6 06366000       3048 	addi	96,r6,r6
                        3049 	jarl	_R_FCL_I_read_memory_u32,lp
                        3049 <EXPANSION BEGIN>
                        3049 jarl22 _R_FCL_I_read_memory_u32 , lp 
000009ca bfff36f6*      3049 <EXPANSION END>
                        3050 --line2131
                        3051 ..lin.D.3A.5Cusr.5Cusage.5CDelivery.5CCBD17x.5CCBD1700369.5CD04.5Cexternal.5CBSW.5CFlash.5Cbuild.5Cobj.5Cr_fcl_hw_access.275::
                        3052 .LDWlin275:
000009ce 8c52           3053 	shr	12,r10
000009d0 b90d*          3054 	bnl	.L5030
                        3055 --line2133
                        3056 ..lin.D.3A.5Cusr.5Cusage.5CDelivery.5CCBD17x.5CCBD1700369.5CD04.5Cexternal.5CBSW.5CFlash.5Cbuild.5Cobj.5Cr_fcl_hw_access.276::
                        3057 .LDWlin276:
000009d2 4036a2ff       3058 	movhi	65442,zero,r6
000009d6 203eb000       3059 	movea	176,zero,r7
                        3060 	jarl	_R_FCL_I_write_memory_u08,lp
                        3060 <EXPANSION BEGIN>
                        3060 jarl22 _R_FCL_I_write_memory_u08 , lp 
000009da bfff38f6*      3060 <EXPANSION END>
                        3061 --line2134
                        3062 ..lin.D.3A.5Cusr.5Cusage.5CDelivery.5CCBD17x.5CCBD1700369.5CD04.5Cexternal.5CBSW.5CFlash.5Cbuild.5Cobj.5Cr_fcl_hw_access.277::
                        3063 .LDWlin277:
000009de 1df0           3064 	mov	r29,ep
000009e0 027d           3065 	sld.w	4[ep],r15
000009e2 13d8           3066 	mov	r19,r27
000009e4 0b7d           3067 	sst.w	r15,20[ep]
                        3068 .L5030:
000009e6 1b30           3069 	mov	r27,r6
                        3070 	jarl	_R_FCL_FCUFct_GetResult,lp
                        3070 <EXPANSION BEGIN>
                        3070 jarl22 _R_FCL_FCUFct_GetResult , lp 
000009e8 bfff6cf9*      3070 <EXPANSION END>
                        3071 --line2141
                        3072 ..lin.D.3A.5Cusr.5Cusage.5CDelivery.5CCBD17x.5CCBD1700369.5CD04.5Cexternal.5CBSW.5CFlash.5Cbuild.5Cobj.5Cr_fcl_hw_access.278::
                        3073 .LDWlin278:
000009ec 6152           3074 	cmp	1,r10
000009ee e2071d01*      3075 	be	.L5074
                        3076 --line2143
                        3077 ..lin.D.3A.5Cusr.5Cusage.5CDelivery.5CCBD17x.5CCBD1700369.5CD04.5Cexternal.5CBSW.5CFlash.5Cbuild.5Cobj.5Cr_fcl_hw_access.279::
                        3078 .LDWlin279:
000009f2 3d771500       3079 	ld.w	20[r29],r14
000009f6 e071           3080 	cmp	zero,r14
000009f8 b215*          3081 	be	.L5037
000009fa 1d6f2400       3082 	ld.b	36[r29],r13
000009fe 616a           3083 	cmp	1,r13
00000a00 fa0d*          3084 	bne	.L5037
                        3085 --line2146

                                                                      Page 58
                                                              D:\TEMP\gh_00001gs1.s
                        3086 ..lin.D.3A.5Cusr.5Cusage.5CDelivery.5CCBD17x.5CCBD1700369.5CD04.5Cexternal.5CBSW.5CFlash.5Cbuild.5Cobj.5Cr_fcl_hw_access.280::
                        3087 .LDWlin280:
00000a02 e051           3088 	cmp	zero,r10
00000a04 920d*          3089 	be	.L5040
                        3090 --line2148
                        3091 ..lin.D.3A.5Cusr.5Cusage.5CDelivery.5CCBD17x.5CCBD1700369.5CD04.5Cexternal.5CBSW.5CFlash.5Cbuild.5Cobj.5Cr_fcl_hw_access.281::
                        3092 .LDWlin281:
00000a06 1df0           3093 	mov	r29,ep
00000a08 9353           3094 	sst.b	r10,19[ep]
00000a0a a403           3095 	sst.b	zero,36[ep]
                        3096 .L6963:
00000a0c 0a4a           3097 	mov	10,r9
00000a0e 5d4f1200       3098 	st.b	r9,18[r29]
00000a12 80070201*      3099 	br	.L5076
                        3100 .L5040:
                        3101 --line2153
                        3102 ..lin.D.3A.5Cusr.5Cusage.5CDelivery.5CCBD17x.5CCBD1700369.5CD04.5Cexternal.5CBSW.5CFlash.5Cbuild.5Cobj.5Cr_fcl_hw_access.282::
                        3103 .LDWlin282:
00000a16 0962           3104 	mov	9,r12
00000a18 5d672200       3105 	st.b	r12,34[r29]
00000a1c 85fd*          3106 	br	.L6963
                        3107 .L5037:
                        3108 --line2161
                        3109 ..lin.D.3A.5Cusr.5Cusage.5CDelivery.5CCBD17x.5CCBD1700369.5CD04.5Cexternal.5CBSW.5CFlash.5Cbuild.5Cobj.5Cr_fcl_hw_access.283::
                        3110 .LDWlin283:
00000a1e 5d571300       3111 	st.b	r10,19[r29]
00000a22 e051           3112 	cmp	zero,r10
00000a24 caf5*          3113 	bne	.L6963
                        3114 --line2168
                        3115 ..lin.D.3A.5Cusr.5Cusage.5CDelivery.5CCBD17x.5CCBD1700369.5CD04.5Cexternal.5CBSW.5CFlash.5Cbuild.5Cobj.5Cr_fcl_hw_access.284::
                        3116 .LDWlin284:
00000a26 3df70500       3117 	ld.w	4[r29],ep
00000a2a 005b           3118 	sld.b	0[ep],r11
00000a2c 625a           3119 	cmp	2,r11
00000a2e ba15*          3120 	bne	.L5047
                        3121 --line2172
                        3122 ..lin.D.3A.5Cusr.5Cusage.5CDelivery.5CCBD17x.5CCBD1700369.5CD04.5Cexternal.5CBSW.5CFlash.5Cbuild.5Cobj.5Cr_fcl_hw_access.285::
                        3123 .LDWlin285:
00000a30 3d970900       3124 	ld.w	8[r29],r18
00000a34 043d           3125 	sld.w	8[ep],r7
00000a36 7688           3126 	sld.hu	12[ep],r17
00000a38 c88a           3127 	shl	8,r17
00000a3a 12960001       3128 	addi	256,r18,r18
00000a3e c789           3129 	add	r7,r17
00000a40 f191           3130 	cmp	r17,r18
00000a42 d9e5*          3131 	bnl	.L6963
                        3132 --line2177
                        3133 ..lin.D.3A.5Cusr.5Cusage.5CDelivery.5CCBD17x.5CCBD1700369.5CD04.5Cexternal.5CBSW.5CFlash.5Cbuild.5Cobj.5Cr_fcl_hw_access.286::
                        3134 .LDWlin286:
00000a44 1df0           3135 	mov	r29,ep
00000a46 0752           3136 	mov	7,r10
00000a48 0595           3137 	sst.w	r18,8[ep]
00000a4a 014a           3138 	mov	1,r9
00000a4c 9253           3139 	sst.b	r10,18[ep]
00000a4e 934b           3140 	sst.b	r9,19[ep]
00000a50 4006ff30       3141 	dispose	0,{r26,r27,r28,r29,r31},[lp]
                        3142 .L5047:
                        3143 --line2186
                        3144 ..lin.D.3A.5Cusr.5Cusage.5CDelivery.5CCBD17x.5CCBD1700369.5CD04.5Cexternal.5CBSW.5CFlash.5Cbuild.5Cobj.5Cr_fcl_hw_access.287::
                        3145 .LDWlin287:
00000a54 0043           3146 	sld.b	0[ep],r8

                                                                      Page 59
                                                              D:\TEMP\gh_00001gs1.s
00000a56 6142           3147 	cmp	1,r8
00000a58 ba35*          3148 	bne	.L5053
                        3149 --line2188
                        3150 ..lin.D.3A.5Cusr.5Cusage.5CDelivery.5CCBD17x.5CCBD1700369.5CD04.5Cexternal.5CBSW.5CFlash.5Cbuild.5Cobj.5Cr_fcl_hw_access.288::
                        3151 .LDWlin288:
00000a5a fd9f1100       3152 	ld.hu	16[r29],r19
00000a5e e099           3153 	cmp	zero,r19
00000a60 e2d5*          3154 	be	.L6963
                        3155 --line2191
                        3156 ..lin.D.3A.5Cusr.5Cusage.5CDelivery.5CCBD17x.5CCBD1700369.5CD04.5Cexternal.5CBSW.5CFlash.5Cbuild.5Cobj.5Cr_fcl_hw_access.289::
                        3157 .LDWlin289:
00000a62 073a           3158 	mov	7,r7
00000a64 5d3f1200       3159 	st.b	r7,18[r29]
00000a68 043d           3160 	sld.w	8[ep],r7
00000a6a 7680           3161 	sld.hu	12[ep],r16
00000a6c 9d375b00       3162 	ld.bu	90[r29],r6
00000a70 3206ffffff7f   3163 	mov	2147483647,r18
00000a76 5d471300       3164 	st.b	r8,19[r29]
00000a7a 5239           3165 	and	r18,r7
00000a7c b381           3166 	sub	r19,r16
00000a7e c781           3167 	add	r7,r16
00000a80 e681           3168 	cmp	r6,r16
00000a82 8b0d*          3169 	bh	.L5057
                        3170 --line2200
                        3171 ..lin.D.3A.5Cusr.5Cusage.5CDelivery.5CCBD17x.5CCBD1700369.5CD04.5Cexternal.5CBSW.5CFlash.5Cbuild.5Cobj.5Cr_fcl_hw_access.290::
                        3172 .LDWlin290:
00000a84 1df0           3173 	mov	r29,ep
00000a86 0475           3174 	sld.w	8[ep],r14
00000a88 0e760020       3175 	addi	8192,r14,r14
00000a8c 0575           3176 	sst.w	r14,8[ep]
00000a8e 4006ff30       3177 	dispose	0,{r26,r27,r28,r29,r31},[lp]
                        3178 .L5057:
                        3179 --line2202
                        3180 ..lin.D.3A.5Cusr.5Cusage.5CDelivery.5CCBD17x.5CCBD1700369.5CD04.5Cexternal.5CBSW.5CFlash.5Cbuild.5Cobj.5Cr_fcl_hw_access.291::
                        3181 .LDWlin291:
00000a92 3d473100       3182 	ld.w	48[r29],r8
00000a96 7678           3183 	sld.hu	12[ep],r15
00000a98 b379           3184 	sub	r19,r15
00000a9a c641           3185 	add	r6,r8
00000a9c c779           3186 	add	r7,r15
00000a9e e879           3187 	cmp	r8,r15
00000aa0 fa05*          3188 	bne	.L5060
                        3189 --line2208
                        3190 ..lin.D.3A.5Cusr.5Cusage.5CDelivery.5CCBD17x.5CCBD1700369.5CD04.5Cexternal.5CBSW.5CFlash.5Cbuild.5Cobj.5Cr_fcl_hw_access.292::
                        3191 .LDWlin292:
00000aa2 408e8000       3192 	movhi	hi(8388608),zero,r17
00000aa6 7d8f0900       3193 	st.w	r17,8[r29]
00000aaa 4006ff30       3194 	dispose	0,{r26,r27,r28,r29,r31},[lp]
                        3195 .L5060:
                        3196 --line2213
                        3197 ..lin.D.3A.5Cusr.5Cusage.5CDelivery.5CCBD17x.5CCBD1700369.5CD04.5Cexternal.5CBSW.5CFlash.5Cbuild.5Cobj.5Cr_fcl_hw_access.293::
                        3198 .LDWlin293:
00000aae 1df0           3199 	mov	r29,ep
00000ab0 043d           3200 	sld.w	8[ep],r7
00000ab2 80860080       3201 	ori	32768,zero,r16
00000ab6 d039           3202 	add	r16,r7
00000ab8 053d           3203 	sst.w	r7,8[ep]
00000aba 4006ff30       3204 	dispose	0,{r26,r27,r28,r29,r31},[lp]
                        3205 .L5053:
                        3206 --line2222
                        3207 ..lin.D.3A.5Cusr.5Cusage.5CDelivery.5CCBD17x.5CCBD1700369.5CD04.5Cexternal.5CBSW.5CFlash.5Cbuild.5Cobj.5Cr_fcl_hw_access.294::

                                                                      Page 60
                                                              D:\TEMP\gh_00001gs1.s
                        3208 .LDWlin294:
00000abe 007b           3209 	sld.b	0[ep],r15
00000ac0 647a           3210 	cmp	4,r15
00000ac2 ea0d*          3211 	bne	.L5065
                        3212 --line2224
                        3213 ..lin.D.3A.5Cusr.5Cusage.5CDelivery.5CCBD17x.5CCBD1700369.5CD04.5Cexternal.5CBSW.5CFlash.5Cbuild.5Cobj.5Cr_fcl_hw_access.295::
                        3214 .LDWlin295:
00000ac4 1c367000       3215 	addi	112,r28,r6
                        3216 	jarl	_R_FCL_I_read_memory_u08,lp
                        3216 <EXPANSION BEGIN>
                        3216 jarl22 _R_FCL_I_read_memory_u08 , lp 
00000ac8 bfff44f5*      3216 <EXPANSION END>
                        3217 --line2225
                        3218 ..lin.D.3A.5Cusr.5Cusage.5CDelivery.5CCBD17x.5CCBD1700369.5CD04.5Cexternal.5CBSW.5CFlash.5Cbuild.5Cobj.5Cr_fcl_hw_access.296::
                        3219 .LDWlin296:
00000acc 3df70500       3220 	ld.w	4[r29],ep
00000ad0 2a70           3221 	not	r10,r14
00000ad2 ce3e0100       3222 	andi	1,r14,r7
00000ad6 0235           3223 	sld.w	4[ep],r6
                        3224 	jarl	_R_FCL_I_write_unaligned_memory_u32,lp
                        3224 <EXPANSION BEGIN>
                        3224 jarl22 _R_FCL_I_write_unaligned_memory_u32 , lp 
00000ad8 bfff40f5*      3224 <EXPANSION END>
00000adc 859d*          3225 	br	.L6963
                        3226 .L5065:
                        3227 --line2229
                        3228 ..lin.D.3A.5Cusr.5Cusage.5CDelivery.5CCBD17x.5CCBD1700369.5CD04.5Cexternal.5CBSW.5CFlash.5Cbuild.5Cobj.5Cr_fcl_hw_access.297::
                        3229 .LDWlin297:
00000ade 006b           3230 	sld.b	0[ep],r13
00000ae0 636a           3231 	cmp	3,r13
00000ae2 d295*          3232 	be	.L6963
                        3233 --line2236
                        3234 ..lin.D.3A.5Cusr.5Cusage.5CDelivery.5CCBD17x.5CCBD1700369.5CD04.5Cexternal.5CBSW.5CFlash.5Cbuild.5Cobj.5Cr_fcl_hw_access.298::
                        3235 .LDWlin298:
00000ae4 1df0           3236 	mov	r29,ep
00000ae6 7898           3237 	sld.hu	16[ep],r19
00000ae8 589a           3238 	add	-8,r19
00000aea 889c           3239 	sst.h	r19,16[ep]
00000aec d09a           3240 	shl	16,r19
00000aee f28d*          3241 	be	.L6963
                        3242 --line2240
                        3243 ..lin.D.3A.5Cusr.5Cusage.5CDelivery.5CCBD17x.5CCBD1700369.5CD04.5Cexternal.5CBSW.5CFlash.5Cbuild.5Cobj.5Cr_fcl_hw_access.299::
                        3244 .LDWlin299:
00000af0 0495           3245 	sld.w	8[ep],r18
00000af2 0762           3246 	mov	7,r12
00000af4 9263           3247 	sst.b	r12,18[ep]
00000af6 015a           3248 	mov	1,r11
00000af8 935b           3249 	sst.b	r11,19[ep]
00000afa 12961000       3250 	addi	16,r18,r18
00000afe 0595           3251 	sst.w	r18,8[ep]
00000b00 4006ff30       3252 	dispose	0,{r26,r27,r28,r29,r31},[lp]
                        3253 .L5028:
                        3254 --line2256
                        3255 ..lin.D.3A.5Cusr.5Cusage.5CDelivery.5CCBD17x.5CCBD1700369.5CD04.5Cexternal.5CBSW.5CFlash.5Cbuild.5Cobj.5Cr_fcl_hw_access.300::
                        3256 .LDWlin300:
                        3257 	jarl	_R_FCL_FCUFct_ForcedStop,lp
                        3257 <EXPANSION BEGIN>
                        3257 jarl22 _R_FCL_FCUFct_ForcedStop , lp 
00000b04 bffff0f7*      3257 <EXPANSION END>
00000b08 a585*          3258 	br	.L6963
                        3259 .L5074:

                                                                      Page 61
                                                              D:\TEMP\gh_00001gs1.s
                        3260 --line2260
                        3261 ..lin.D.3A.5Cusr.5Cusage.5CDelivery.5CCBD17x.5CCBD1700369.5CD04.5Cexternal.5CBSW.5CFlash.5Cbuild.5Cobj.5Cr_fcl_hw_access.301::
                        3262 .LDWlin301:
00000b0a 1d571200       3263 	ld.b	18[r29],r10
00000b0e 6a52           3264 	cmp	10,r10
00000b10 ea071b01*      3265 	bne	.L4945
                        3266 .L5076:
                        3267 --line2262
                        3268 ..lin.D.3A.5Cusr.5Cusage.5CDelivery.5CCBD17x.5CCBD1700369.5CD04.5Cexternal.5CBSW.5CFlash.5Cbuild.5Cobj.5Cr_fcl_hw_access.302::
                        3269 .LDWlin302:
00000b14 fd374900       3270 	ld.hu	72[r29],r6
00000b18 063e003b       3271 	addi	15104,r6,r7
00000b1c c700           3272 	zxh	r7
00000b1e 1c30           3273 	mov	r28,r6
                        3274 	jarl	_R_FCL_I_write_memory_u16,lp
                        3274 <EXPANSION BEGIN>
                        3274 jarl22 _R_FCL_I_write_memory_u16 , lp 
00000b20 bfff36f5*      3274 <EXPANSION END>
                        3275 --line2264
                        3276 ..lin.D.3A.5Cusr.5Cusage.5CDelivery.5CCBD17x.5CCBD1700369.5CD04.5Cexternal.5CBSW.5CFlash.5Cbuild.5Cobj.5Cr_fcl_hw_access.303::
                        3277 .LDWlin303:
                        3278 	jarl	_R_FCL_FCUFct_ClearStatus,lp
                        3278 <EXPANSION BEGIN>
                        3278 jarl22 _R_FCL_FCUFct_ClearStatus , lp 
00000b24 bffff8f6*      3278 <EXPANSION END>
00000b28 4006ff30       3279 	dispose	0,{r26,r27,r28,r29,r31},[lp]
                        3280 .L5026:
                        3281 --line2267
                        3282 ..lin.D.3A.5Cusr.5Cusage.5CDelivery.5CCBD17x.5CCBD1700369.5CD04.5Cexternal.5CBSW.5CFlash.5Cbuild.5Cobj.5Cr_fcl_hw_access.304::
                        3283 .LDWlin304:
00000b2c 6a32           3284 	cmp	10,r6
00000b2e 9a0d*          3285 	bne	.L5078
                        3286 --line2269
                        3287 ..lin.D.3A.5Cusr.5Cusage.5CDelivery.5CCBD17x.5CCBD1700369.5CD04.5Cexternal.5CBSW.5CFlash.5Cbuild.5Cobj.5Cr_fcl_hw_access.305::
                        3288 .LDWlin305:
00000b30 0032           3289 	mov	0,r6
                        3290 	jarl	_R_FCL_FCUFct_SwitchMode_Start,lp
                        3290 <EXPANSION BEGIN>
                        3290 jarl22 _R_FCL_FCUFct_SwitchMode_Start , lp 
00000b32 bfff2af7*      3290 <EXPANSION END>
                        3291 --line2270
                        3292 ..lin.D.3A.5Cusr.5Cusage.5CDelivery.5CCBD17x.5CCBD1700369.5CD04.5Cexternal.5CBSW.5CFlash.5Cbuild.5Cobj.5Cr_fcl_hw_access.306::
                        3293 .LDWlin306:
00000b36 0b32           3294 	mov	11,r6
00000b38 5d371200       3295 	st.b	r6,18[r29]
00000b3c 4006ff30       3296 	dispose	0,{r26,r27,r28,r29,r31},[lp]
                        3297 .L5078:
                        3298 --line2272
                        3299 ..lin.D.3A.5Cusr.5Cusage.5CDelivery.5CCBD17x.5CCBD1700369.5CD04.5Cexternal.5CBSW.5CFlash.5Cbuild.5Cobj.5Cr_fcl_hw_access.307::
                        3300 .LDWlin307:
00000b40 6b32           3301 	cmp	11,r6
00000b42 aa0d*          3302 	bne	.L5081
                        3303 --line2274
                        3304 ..lin.D.3A.5Cusr.5Cusage.5CDelivery.5CCBD17x.5CCBD1700369.5CD04.5Cexternal.5CBSW.5CFlash.5Cbuild.5Cobj.5Cr_fcl_hw_access.308::
                        3305 .LDWlin308:
                        3306 	jarl	_R_FCL_FCUFct_SwitchMode_Check,lp
                        3306 <EXPANSION BEGIN>
                        3306 jarl22 _R_FCL_FCUFct_SwitchMode_Check , lp 
00000b44 bfff8cf7*      3306 <EXPANSION END>
                        3307 --line2275
                        3308 ..lin.D.3A.5Cusr.5Cusage.5CDelivery.5CCBD17x.5CCBD1700369.5CD04.5Cexternal.5CBSW.5CFlash.5Cbuild.5Cobj.5Cr_fcl_hw_access.309::

                                                                      Page 62
                                                              D:\TEMP\gh_00001gs1.s
                        3309 .LDWlin309:
00000b48 e051           3310 	cmp	zero,r10
00000b4a 8a75*          3311 	bne	.L4945
                        3312 --line2277
                        3313 ..lin.D.3A.5Cusr.5Cusage.5CDelivery.5CCBD17x.5CCBD1700369.5CD04.5Cexternal.5CBSW.5CFlash.5Cbuild.5Cobj.5Cr_fcl_hw_access.310::
                        3314 .LDWlin310:
00000b4c 0c9a           3315 	mov	12,r19
00000b4e 5d9f1200       3316 	st.b	r19,18[r29]
00000b52 4006ff30       3317 	dispose	0,{r26,r27,r28,r29,r31},[lp]
                        3318 .L5081:
                        3319 --line2282
                        3320 ..lin.D.3A.5Cusr.5Cusage.5CDelivery.5CCBD17x.5CCBD1700369.5CD04.5Cexternal.5CBSW.5CFlash.5Cbuild.5Cobj.5Cr_fcl_hw_access.311::
                        3321 .LDWlin311:
00000b56 1d976500       3322 	ld.b	101[r29],r18
00000b5a e091           3323 	cmp	zero,r18
00000b5c 9a45*          3324 	bne	.L5086
                        3325 --line2284
                        3326 ..lin.D.3A.5Cusr.5Cusage.5CDelivery.5CCBD17x.5CCBD1700369.5CD04.5Cexternal.5CBSW.5CFlash.5Cbuild.5Cobj.5Cr_fcl_hw_access.312::
                        3327 .LDWlin312:
00000b5e 1d8f2400       3328 	ld.b	36[r29],r17
00000b62 e089           3329 	cmp	zero,r17
00000b64 ea15*          3330 	bne	.L5088
                        3331 --line2287
                        3332 ..lin.D.3A.5Cusr.5Cusage.5CDelivery.5CCBD17x.5CCBD1700369.5CD04.5Cexternal.5CBSW.5CFlash.5Cbuild.5Cobj.5Cr_fcl_hw_access.313::
                        3333 .LDWlin313:
00000b66 3df70500       3334 	ld.w	4[r29],ep
00000b6a 0083           3335 	sld.b	0[ep],r16
00000b6c 6182           3336 	cmp	1,r16
00000b6e c205*          3337 	be	.L5091
00000b70 007b           3338 	sld.b	0[ep],r15
00000b72 627a           3339 	cmp	2,r15
00000b74 ba05*          3340 	bne	.L5090
                        3341 .L5091:
                        3342 --line2290
                        3343 ..lin.D.3A.5Cusr.5Cusage.5CDelivery.5CCBD17x.5CCBD1700369.5CD04.5Cexternal.5CBSW.5CFlash.5Cbuild.5Cobj.5Cr_fcl_hw_access.314::
                        3344 .LDWlin314:
                        3345 	jarl	_R_FCL_FCUFct_Clear_Cache,lp
                        3345 <EXPANSION BEGIN>
                        3345 jarl22 _R_FCL_FCUFct_Clear_Cache , lp 
00000b76 80ff0000*      3345 <EXPANSION END>
                        3346 .L5090:
                        3347 --line2292
                        3348 ..lin.D.3A.5Cusr.5Cusage.5CDelivery.5CCBD17x.5CCBD1700369.5CD04.5Cexternal.5CBSW.5CFlash.5Cbuild.5Cobj.5Cr_fcl_hw_access.315::
                        3349 .LDWlin315:
00000b7a 3df70500       3350 	ld.w	4[r29],ep
00000b7e 1d771300       3351 	ld.b	19[r29],r14
00000b82 8e73           3352 	sst.b	r14,14[ep]
                        3353 	jarl	_R_FCL_FCUFct_RestoreLastState,lp
                        3353 <EXPANSION BEGIN>
                        3353 jarl22 _R_FCL_FCUFct_RestoreLastState , lp 
00000b84 bfffbcf7*      3353 <EXPANSION END>
                        3354 --line2294
                        3355 ..lin.D.3A.5Cusr.5Cusage.5CDelivery.5CCBD17x.5CCBD1700369.5CD04.5Cexternal.5CBSW.5CFlash.5Cbuild.5Cobj.5Cr_fcl_hw_access.316::
                        3356 .LDWlin316:
00000b88 5d071200       3357 	st.b	zero,18[r29]
00000b8c 4006ff30       3358 	dispose	0,{r26,r27,r28,r29,r31},[lp]
                        3359 .L5088:
                        3360 --line2298
                        3361 ..lin.D.3A.5Cusr.5Cusage.5CDelivery.5CCBD17x.5CCBD1700369.5CD04.5Cexternal.5CBSW.5CFlash.5Cbuild.5Cobj.5Cr_fcl_hw_access.317::
                        3362 .LDWlin317:
00000b90 fd9f4900       3363 	ld.hu	72[r29],r19

                                                                      Page 63
                                                              D:\TEMP\gh_00001gs1.s
00000b94 1c30           3364 	mov	r28,r6
00000b96 133e003b       3365 	addi	15104,r19,r7
00000b9a c700           3366 	zxh	r7
                        3367 	jarl	_R_FCL_I_write_memory_u16,lp
                        3367 <EXPANSION BEGIN>
                        3367 jarl22 _R_FCL_I_write_memory_u16 , lp 
00000b9c bfffbaf4*      3367 <EXPANSION END>
                        3368 --line2300
                        3369 ..lin.D.3A.5Cusr.5Cusage.5CDelivery.5CCBD17x.5CCBD1700369.5CD04.5Cexternal.5CBSW.5CFlash.5Cbuild.5Cobj.5Cr_fcl_hw_access.318::
                        3370 .LDWlin318:
00000ba0 3d371500       3371 	ld.w	20[r29],r6
00000ba4 e031           3372 	cmp	zero,r6
00000ba6 8a0d*          3373 	bne	.L5094
00000ba8 1d9f2200       3374 	ld.b	34[r29],r19
00000bac e099           3375 	cmp	zero,r19
00000bae ca05*          3376 	bne	.L5094
                        3377 --line2303
                        3378 ..lin.D.3A.5Cusr.5Cusage.5CDelivery.5CCBD17x.5CCBD1700369.5CD04.5Cexternal.5CBSW.5CFlash.5Cbuild.5Cobj.5Cr_fcl_hw_access.319::
                        3379 .LDWlin319:
00000bb0 0c92           3380 	mov	12,r18
00000bb2 5d972200       3381 	st.b	r18,34[r29]
                        3382 .L5094:
00000bb6 1df0           3383 	mov	r29,ep
00000bb8 0235           3384 	sld.w	4[ep],r6
00000bba 048d           3385 	sld.w	8[ep],r17
00000bbc 0472           3386 	mov	4,r14
00000bbe 7880           3387 	sld.hu	16[ep],r16
00000bc0 026a           3388 	mov	2,r13
00000bc2 137b           3389 	sld.b	19[ep],r15
00000bc4 0162           3390 	mov	1,r12
00000bc6 0b35           3391 	sst.w	r6,20[ep]
00000bc8 0d8d           3392 	sst.w	r17,24[ep]
00000bca 9084           3393 	sst.h	r16,32[ep]
00000bcc a37b           3394 	sst.b	r15,35[ep]
00000bce ac73           3395 	sst.b	r14,44[ep]
00000bd0 06f0           3396 	mov	r6,ep
00000bd2 8e6b           3397 	sst.b	r13,14[ep]
00000bd4 1df0           3398 	mov	r29,ep
00000bd6 a663           3399 	sst.b	r12,38[ep]
00000bd8 a403           3400 	sst.b	zero,36[ep]
00000bda 4006ff30       3401 	dispose	0,{r26,r27,r28,r29,r31},[lp]
                        3402 .L5086:
                        3403 --line2320
                        3404 ..lin.D.3A.5Cusr.5Cusage.5CDelivery.5CCBD17x.5CCBD1700369.5CD04.5Cexternal.5CBSW.5CFlash.5Cbuild.5Cobj.5Cr_fcl_hw_access.320::
                        3405 .LDWlin320:
00000bde 3d5f1500       3406 	ld.w	20[r29],r11
00000be2 0cda           3407 	mov	12,r27
00000be4 e059           3408 	cmp	zero,r11
00000be6 8215*          3409 	be	.L5106
                        3410 --line2325
                        3411 ..lin.D.3A.5Cusr.5Cusage.5CDelivery.5CCBD17x.5CCBD1700369.5CD04.5Cexternal.5CBSW.5CFlash.5Cbuild.5Cobj.5Cr_fcl_hw_access.321::
                        3412 .LDWlin321:
                        3413 	jarl	_R_FCL_FCUFct_ChkSuspended,lp
                        3413 <EXPANSION BEGIN>
                        3413 jarl22 _R_FCL_FCUFct_ChkSuspended , lp 
00000be8 bfff34f7*      3413 <EXPANSION END>
00000bec e051           3414 	cmp	zero,r10
00000bee c20d*          3415 	be	.L5106
                        3416 --line2327
                        3417 ..lin.D.3A.5Cusr.5Cusage.5CDelivery.5CCBD17x.5CCBD1700369.5CD04.5Cexternal.5CBSW.5CFlash.5Cbuild.5Cobj.5Cr_fcl_hw_access.322::
                        3418 .LDWlin322:

                                                                      Page 64
                                                              D:\TEMP\gh_00001gs1.s
00000bf0 0132           3419 	mov	1,r6
                        3420 	jarl	_R_FCL_FCUFct_SwitchMode_Start,lp
                        3420 <EXPANSION BEGIN>
                        3420 jarl22 _R_FCL_FCUFct_SwitchMode_Start , lp 
00000bf2 bfff6af6*      3420 <EXPANSION END>
                        3421 --line2328
                        3422 ..lin.D.3A.5Cusr.5Cusage.5CDelivery.5CCBD17x.5CCBD1700369.5CD04.5Cexternal.5CBSW.5CFlash.5Cbuild.5Cobj.5Cr_fcl_hw_access.323::
                        3423 .LDWlin323:
00000bf6 e051           3424 	cmp	zero,r10
00000bf8 ea05*          3425 	bne	.L5102
                        3426 --line2330
                        3427 ..lin.D.3A.5Cusr.5Cusage.5CDelivery.5CCBD17x.5CCBD1700369.5CD04.5Cexternal.5CBSW.5CFlash.5Cbuild.5Cobj.5Cr_fcl_hw_access.324::
                        3428 .LDWlin324:
00000bfa 064a           3429 	mov	6,r9
00000bfc 5d4f1200       3430 	st.b	r9,18[r29]
00000c00 4006ff30       3431 	dispose	0,{r26,r27,r28,r29,r31},[lp]
                        3432 .L5102:
                        3433 --line2335
                        3434 ..lin.D.3A.5Cusr.5Cusage.5CDelivery.5CCBD17x.5CCBD1700369.5CD04.5Cexternal.5CBSW.5CFlash.5Cbuild.5Cobj.5Cr_fcl_hw_access.325::
                        3435 .LDWlin325:
00000c04 0dda           3436 	mov	13,r27
                        3437 .L5106:
                        3438 	jarl	_R_FCL_FCUFct_Clear_Cache,lp
                        3438 <EXPANSION BEGIN>
                        3438 jarl22 _R_FCL_FCUFct_Clear_Cache , lp 
00000c06 80ff0000*      3438 <EXPANSION END>
                        3439 --line2344
                        3440 ..lin.D.3A.5Cusr.5Cusage.5CDelivery.5CCBD17x.5CCBD1700369.5CD04.5Cexternal.5CBSW.5CFlash.5Cbuild.5Cobj.5Cr_fcl_hw_access.326::
                        3441 .LDWlin326:
00000c0a 3df70500       3442 	ld.w	4[r29],ep
00000c0e 0242           3443 	mov	2,r8
00000c10 5d472c00       3444 	st.b	r8,44[r29]
00000c14 8edb           3445 	sst.b	r27,14[ep]
00000c16 1df0           3446 	mov	r29,ep
00000c18 9203           3447 	sst.b	zero,18[ep]
00000c1a e503           3448 	sst.b	zero,101[ep]
00000c1c 0af5           3449 	sld.w	20[ep],ep
00000c1e e0f1           3450 	cmp	zero,ep
00000c20 d205*          3451 	be	.L4945
                        3452 --line2350
                        3453 ..lin.D.3A.5Cusr.5Cusage.5CDelivery.5CCBD17x.5CCBD1700369.5CD04.5Cexternal.5CBSW.5CFlash.5Cbuild.5Cobj.5Cr_fcl_hw_access.327::
                        3454 .LDWlin327:
00000c22 8edb           3455 	sst.b	r27,14[ep]
00000c24 1df0           3456 	mov	r29,ep
00000c26 0b05           3457 	sst.w	zero,20[ep]
00000c28 a603           3458 	sst.b	zero,38[ep]
                        3459 .L4945:
                        3460 --	    .ef
                        3461 .LDW17:
00000c2a 4006ff30       3462 	dispose	0,{r26,r27,r28,r29,r31},[lp]
                        3463 	.global	___ghs_eofn_R_FCL_FCUFct_HandleMultiOperation
                        3464 ___ghs_eofn_R_FCL_FCUFct_HandleMultiOperation:
                        3465 	.type	_R_FCL_FCUFct_HandleMultiOperation,@function
                        3466 	.size	_R_FCL_FCUFct_HandleMultiOperation,.-_R_FCL_FCUFct_HandleMultiOperation
                        3467 	.align	2
                        3468 --_ret	r27	local
                        3469 --_data	r27	local
                        3470 --_readData	r7	local
                        3471 --_isCmdSpdExec	r27	local
                        3472 
                        3473 	.section ".bss","awb"

                                                                      Page 65
                                                              D:\TEMP\gh_00001gs1.s
                        3474 .L14457:
                        3475 	.type	.L14457,@object
                        3476 	.size	.L14457,0
                        3477 	.data
                        3478 	.section ".R_FCL_CODE_RAM","ax"
                        3479 	.section ".R_FCL_CODE_ROMRAM","ax"
                        3480 	.align	2
                        3481 	.align	2
                        3482 ..gh.f.f.1.e.31:
                        3483 	.type	..gh.f.f.1.e.31,@object
                        3484 	.size	..gh.f.f.1.e.31,0
                        3485 	.global	_R_FCL_FCUFct_HandleLockBit
                        3486 _R_FCL_FCUFct_HandleLockBit:
0000051e 80072100       3487 	prepare	{r31},0
                        3488 --	    .bf
                        3489 .LDW27:
                        3490 	jarl	_R_FCL_FCUFct_CheckMode,lp
                        3490 <EXPANSION BEGIN>
                        3490 jarl22 _R_FCL_FCUFct_CheckMode , lp 
00000522 bfffd6fb*      3490 <EXPANSION END>
00000526 3e0600000000*  3491 	mov	_g_fcl_data_str,ep
0000052c 028d           3492 	sld.w	4[ep],r17
0000052e e051           3493 	cmp	zero,r10
00000530 ea05*          3494 	bne	.L15407
                        3495 --line2594
                        3496 ..lin.D.3A.5Cusr.5Cusage.5CDelivery.5CCBD17x.5CCBD1700369.5CD04.5Cexternal.5CBSW.5CFlash.5Cbuild.5Cobj.5Cr_fcl_hw_access.328::
                        3497 .LDWlin328:
00000532 0332           3498 	mov	3,r6
00000534 51370e00       3499 	st.b	r6,14[r17]
00000538 40063f00       3500 	dispose	0,{r31},[lp]
                        3501 .L15407:
                        3502 --line2598
                        3503 ..lin.D.3A.5Cusr.5Cusage.5CDelivery.5CCBD17x.5CCBD1700369.5CD04.5Cexternal.5CBSW.5CFlash.5Cbuild.5Cobj.5Cr_fcl_hw_access.329::
                        3504 .LDWlin329:
0000053c 31670900       3505 	ld.w	8[r17],r12
00000540 316f0900       3506 	ld.w	8[r17],r13
00000544 c162           3507 	shl	1,r12
00000546 f915*          3508 	bnl	.L15410
                        3509 --line2601
                        3510 ..lin.D.3A.5Cusr.5Cusage.5CDelivery.5CCBD17x.5CCBD1700369.5CD04.5Cexternal.5CBSW.5CFlash.5Cbuild.5Cobj.5Cr_fcl_hw_access.330::
                        3511 .LDWlin330:
00000548 1c95           3512 	sld.w	56[ep],r18
0000054a 2806ffffff7f   3513 	mov	2147483647,r8
00000550 4869           3514 	and	r8,r13
00000552 f269           3515 	cmp	r18,r13
00000554 993d*          3516 	bnl	.L15417
00000556 5f83           3517 	sld.b	95[ep],r16
00000558 e081           3518 	cmp	zero,r16
0000055a e235*          3519 	be	.L15417
                        3520 --line2610
                        3521 ..lin.D.3A.5Cusr.5Cusage.5CDelivery.5CCBD17x.5CCBD1700369.5CD04.5Cexternal.5CBSW.5CFlash.5Cbuild.5Cobj.5Cr_fcl_hw_access.331::
                        3522 .LDWlin331:
0000055c 31770900       3523 	ld.w	8[r17],r14
00000560 016a           3524 	mov	1,r13
00000562 926b           3525 	sst.b	r13,18[ep]
00000564 cf72           3526 	shl	15,r14
00000566 4e7e0001       3527 	movhi	256,r14,r15
0000056a 057d           3528 	sst.w	r15,8[ep]
0000056c 0372           3529 	mov	3,r14
0000056e ac73           3530 	sst.b	r14,44[ep]
00000570 40063f00       3531 	dispose	0,{r31},[lp]

                                                                      Page 66
                                                              D:\TEMP\gh_00001gs1.s
                        3532 .L15410:
                        3533 --line2621
                        3534 ..lin.D.3A.5Cusr.5Cusage.5CDelivery.5CCBD17x.5CCBD1700369.5CD04.5Cexternal.5CBSW.5CFlash.5Cbuild.5Cobj.5Cr_fcl_hw_access.332::
                        3535 .LDWlin332:
00000574 fe674700       3536 	ld.hu	70[ep],r12
00000578 ec69           3537 	cmp	r12,r13
0000057a e925*          3538 	bnl	.L15417
                        3539 --line2624
                        3540 ..lin.D.3A.5Cusr.5Cusage.5CDelivery.5CCBD17x.5CCBD1700369.5CD04.5Cexternal.5CBSW.5CFlash.5Cbuild.5Cobj.5Cr_fcl_hw_access.333::
                        3541 .LDWlin333:
0000057c 9e7f5b00       3542 	ld.bu	90[ep],r15
00000580 315f0900       3543 	ld.w	8[r17],r11
00000584 313f0900       3544 	ld.w	8[r17],r7
00000588 ef59           3545 	cmp	r15,r11
0000058a c905*          3546 	bnl	.L15419
                        3547 --line2626
                        3548 ..lin.D.3A.5Cusr.5Cusage.5CDelivery.5CCBD17x.5CCBD1700369.5CD04.5Cexternal.5CBSW.5CFlash.5Cbuild.5Cobj.5Cr_fcl_hw_access.334::
                        3549 .LDWlin334:
0000058c 0790           3550 	mov	r7,r18
0000058e cd92           3551 	shl	13,r18
00000590 c515*          3552 	br	.L15421
                        3553 .L15419:
                        3554 --line2629
                        3555 ..lin.D.3A.5Cusr.5Cusage.5CDelivery.5CCBD17x.5CCBD1700369.5CD04.5Cexternal.5CBSW.5CFlash.5Cbuild.5Cobj.5Cr_fcl_hw_access.335::
                        3556 .LDWlin335:
00000592 184d           3557 	sld.w	48[ep],r9
00000594 31870900       3558 	ld.w	8[r17],r16
00000598 0958           3559 	mov	r9,r11
0000059a cf59           3560 	add	r15,r11
0000059c eb39           3561 	cmp	r11,r7
0000059e 890d*          3562 	bnl	.L15422
                        3563 --line2633
                        3564 ..lin.D.3A.5Cusr.5Cusage.5CDelivery.5CCBD17x.5CCBD1700369.5CD04.5Cexternal.5CBSW.5CFlash.5Cbuild.5Cobj.5Cr_fcl_hw_access.336::
                        3565 .LDWlin336:
000005a0 1090           3566 	mov	r16,r18
000005a2 0f50           3567 	mov	r15,r10
000005a4 af91           3568 	sub	r15,r18
000005a6 cd52           3569 	shl	13,r10
000005a8 cf92           3570 	shl	15,r18
000005aa ca91           3571 	add	r10,r18
000005ac e505*          3572 	br	.L15421
                        3573 .L15422:
                        3574 --line2641
                        3575 ..lin.D.3A.5Cusr.5Cusage.5CDelivery.5CCBD17x.5CCBD1700369.5CD04.5Cexternal.5CBSW.5CFlash.5Cbuild.5Cobj.5Cr_fcl_hw_access.337::
                        3576 .LDWlin337:
000005ae af81           3577 	sub	r15,r16
000005b0 a981           3578 	sub	r9,r16
000005b2 cf82           3579 	shl	15,r16
000005b4 50968000       3580 	movhi	128,r16,r18
                        3581 .L15421:
000005b8 0595           3582 	sst.w	r18,8[ep]
000005ba 014a           3583 	mov	1,r9
000005bc 924b           3584 	sst.b	r9,18[ep]
000005be 0352           3585 	mov	3,r10
000005c0 ac53           3586 	sst.b	r10,44[ep]
000005c2 40063f00       3587 	dispose	0,{r31},[lp]
                        3588 .L15417:
                        3589 --line2651
                        3590 ..lin.D.3A.5Cusr.5Cusage.5CDelivery.5CCBD17x.5CCBD1700369.5CD04.5Cexternal.5CBSW.5CFlash.5Cbuild.5Cobj.5Cr_fcl_hw_access.338::
                        3591 .LDWlin338:
000005c6 0442           3592 	mov	4,r8

                                                                      Page 67
                                                              D:\TEMP\gh_00001gs1.s
000005c8 51470e00       3593 	st.b	r8,14[r17]
                        3594 --	    .ef
                        3595 .LDW37:
000005cc 40063f00       3596 	dispose	0,{r31},[lp]
                        3597 	.global	___ghs_eofn_R_FCL_FCUFct_HandleLockBit
                        3598 ___ghs_eofn_R_FCL_FCUFct_HandleLockBit:
                        3599 	.type	_R_FCL_FCUFct_HandleLockBit,@function
                        3600 	.size	_R_FCL_FCUFct_HandleLockBit,.-_R_FCL_FCUFct_HandleLockBit
                        3601 	.align	2
                        3602 
                        3603 	.section ".bss","awb"
                        3604 .L15540:
                        3605 	.type	.L15540,@object
                        3606 	.size	.L15540,0
                        3607 	.data
                        3608 	.section ".R_FCL_CODE_ROMRAM","ax"
                        3609 	.align	2
                        3610 	.align	2
                        3611 ..gh.f.f.1.e.32:
                        3612 	.type	..gh.f.f.1.e.32,@object
                        3613 	.size	..gh.f.f.1.e.32,0
                        3614 	.global	_R_FCL_FCUFct_LockBitMode
                        3615 _R_FCL_FCUFct_LockBitMode:
000005d0 c600           3616 	zxh	r6
                        3617 --	    .bf
                        3618 .LDW47:
000005d2 6132           3619 	cmp	1,r6
000005d4 3e0600000000*  3620 	mov	_g_fcl_data_str,ep
000005da ea9f0000       3621 	setfne	r19
000005de de9b           3622 	sst.b	r19,94[ep]
000005e0 02f5           3623 	sld.w	4[ep],ep
000005e2 8e03           3624 	sst.b	zero,14[ep]
                        3625 --	    .ef
                        3626 .LDW57:
000005e4 7f00           3627 	jmp	[lp]
                        3628 	.global	___ghs_eofn_R_FCL_FCUFct_LockBitMode
                        3629 ___ghs_eofn_R_FCL_FCUFct_LockBitMode:
                        3630 	.type	_R_FCL_FCUFct_LockBitMode,@function
                        3631 	.size	_R_FCL_FCUFct_LockBitMode,.-_R_FCL_FCUFct_LockBitMode
                        3632 	.align	2
                        3633 
                        3634 --_mode_u16	r6	param
                        3635 
                        3636 	.section ".bss","awb"
                        3637 .L15726:
                        3638 	.type	.L15726,@object
                        3639 	.size	.L15726,0
                        3640 	.data
                        3641 	.section ".R_FCL_CODE_ROMRAM","ax"
                        3642 	.align	2
                        3643 --_g_fcl_data_str	_g_fcl_data_str	import
                        3644 
                        3645 	.data
                        3646 	.ghsnote version,17
                        3647 	.ghsnote tools,3
                        3648 	.ghsnote options,144
                        3649 	.section ".R_FCL_CODE_RAM","ax"
                        3650 	.align	2
                        3651 	.section ".R_FCL_CODE_ROMRAM","ax"
                        3652 	.align	2
                        3653 	.section ".R_FCL_CODE_RAM","ax"

                                                                      Page 68
                                                              D:\TEMP\gh_00001gs1.s
                        3654 ..eof.D.3A.5Cusr.5Cusage.5CDelivery.5CCBD17x.5CCBD1700369.5CD04.5Cexternal.5CBSW.5CFlash.5Cbuild.5Cobj.5Cr_fcl_hw_access...44.3A.5Cusr.5Cusage.5CDelivery.5CCBD17x.5CCBD1700369.5CD04.5Cexternal.5CBSW.5CFlash.5Cbuild..5A55ED5E..0::
                        3655 	.section ".R_FCL_CODE_ROMRAM","ax"
                        3656 ..eof.D.3A.5Cusr.5Cusage.5CDelivery.5CCBD17x.5CCBD1700369.5CD04.5Cexternal.5CBSW.5CFlash.5Cbuild.5Cobj.5Cr_fcl_hw_access...44.3A.5Cusr.5Cusage.5CDelivery.5CCBD17x.5CCBD1700369.5CD04.5Cexternal.5CBSW.5CFlash.5Cbuild..5A55ED5E..1::
                        3657 	.section	.debug_info
                        3658 .Ldw_begin:
00000000 471f0000       3659 	.word	.Ldw_end-.Ldw_begin-4
00000004 0200           3660 	.byte	2,0
00000006 00000000*      3661 	.word	.Ldw_abbr_begin
0000000a 04             3662 	.byte	4
                        3663 	.section	.debug_abbrev
                        3664 .Ldw_abbr_begin:
                        3665 	.section	.debug_info
0000000b 01             3666 	.byte	1
0000000c 00000000*      3667 	.word	..bof.D.3A.5Cusr.5Cusage.5CDelivery.5CCBD17x.5CCBD1700369.5CD04.5Cexternal.5CBSW.5CFlash.5Cbuild.5Cobj.5Cr_fcl_hw_access...44.3A.5Cusr.5Cusage.5CDelivery.5CCBD17x.5CCBD1700369.5CD04.5Cexternal.5CBSW.5CFlash.5Cbuild..5A55ED5E..1
00000010 00000000*      3668 	.word	..eof.D.3A.5Cusr.5Cusage.5CDelivery.5CCBD17x.5CCBD1700369.5CD04.5Cexternal.5CBSW.5CFlash.5Cbuild.5Cobj.5Cr_fcl_hw_access...44.3A.5Cusr.5Cusage.5CDelivery.5CCBD17x.5CCBD1700369.5CD04.5Cexternal.5CBSW.5CFlash.5Cbuild..5A55ED5E..1
00000014 2e2e2f2e2e2f   3669 	.strz	"../../../BSW/Flash/FlashLib/r_fcl_hw_access.c"
0000001a 2e2e2f425357 
00000020 2f466c617368 
00000026 2f466c617368 
0000002c 4c69622f725f 
00000032 66636c5f6877 
00000038 5f6163636573 
0000003e 732e6300 
00000042 443a5c757372   3670 	.strz	"D:\\usr\\usage\\Delivery\\CBD17x\\CBD1700369\\D04\\external\\BSW\\Flash\\build"
00000048 5c7573616765 
0000004e 5c44656c6976 
00000054 6572795c4342 
0000005a 443137785c43 
00000060 424431373030 
00000066 3336395c4430 
0000006c 345c65787465 
00000072 726e616c5c42 
00000078 53575c466c61 
0000007e 73685c627569 
00000084 6c6400 
00000087 474853204320   3671 	.strz	"GHS C 2015.1.7 [dual]"
0000008d 323031352e31 
00000093 2e37205b6475 
00000099 616c5d00 
0000009d 0100           3672 	.byte	1,0
0000009f 00000000*      3673 	.word	.Ldw_line_begin
000000a3 00000000*      3674 	.word	.Ldw_macinfo_begin
000000a7 00             3675 	.byte	0
                        3676 
                        3677 	.section	.debug_abbrev
00000000 01             3678 	.byte	1
00000001 11             3679 	.byte	17
00000002 01             3680 	.byte	1
00000003 1101           3681 	.byte	17,1
00000005 1201           3682 	.byte	18,1
00000007 0308           3683 	.byte	3,8
00000009 1b08           3684 	.byte	27,8
0000000b 2508           3685 	.byte	37,8
0000000d 1305           3686 	.byte	19,5
0000000f 1006           3687 	.byte	16,6
00000011 4306           3688 	.byte	67,6
00000013 420b           3689 	.byte	66,11
00000015 0000           3690 	.byte	0,0
                        3691 
                        3692 	.section	.debug_line
                        3693 .Ldw_line_begin:

                                                                      Page 69
                                                              D:\TEMP\gh_00001gs1.s
00000000 e8140000       3694 	.word	.Ldw_line_end-.Ldw_line_begin-4
00000004 0200           3695 	.byte	2,0
00000006 00000000*      3696 	.word	.Ldw_lpro_end-.Ldw_lpro_begin
                        3697 .Ldw_lpro_begin:
0000000a 01             3698 	.byte	1
0000000b 00             3699 	.byte	0
0000000c 00             3700 	.byte	0
0000000d 04             3701 	.byte	4
0000000e 0a             3702 	.byte	10
0000000f 000101         3703 	.byte	0,1,1
00000012 010100         3704 	.byte	1,1,0
00000015 000001         3705 	.byte	0,0,1
00000018 00             3706 	.byte	0
00000019 2e2e2f2e2e2f   3707 	.strz	"../../../BSW/Flash/FlashLib/r_fcl_hw_access.c"
0000001f 2e2e2f425357 
00000025 2f466c617368 
0000002b 2f466c617368 
00000031 4c69622f725f 
00000037 66636c5f6877 
0000003d 5f6163636573 
00000043 732e6300 
00000047 000000         3708 	.byte	0,0,0
0000004a 2e2e2f2e2e2f   3709 	.strz	"../../../BSW/Flash/FlashLib/r_typedefs.h"
00000050 2e2e2f425357 
00000056 2f466c617368 
0000005c 2f466c617368 
00000062 4c69622f725f 
00000068 747970656465 
0000006e 66732e6800 
00000073 000000         3710 	.byte	0,0,0
00000076 2e2e2f2e2e2f   3711 	.strz	"../../../BSW/Flash/FlashLib/fcl_cfg.h"
0000007c 2e2e2f425357 
00000082 2f466c617368 
00000088 2f466c617368 
0000008e 4c69622f6663 
00000094 6c5f6366672e 
0000009a 6800 
0000009c 000000         3712 	.byte	0,0,0
0000009f 2e2e2f2e2e2f   3713 	.strz	"../../../BSW/Flash/FlashLib/r_fcl_types.h"
000000a5 2e2e2f425357 
000000ab 2f466c617368 
000000b1 2f466c617368 
000000b7 4c69622f725f 
000000bd 66636c5f7479 
000000c3 7065732e6800 
000000c9 000000         3714 	.byte	0,0,0
000000cc 2e2e2f2e2e2f   3715 	.strz	"../../../BSW/Flash/FlashLib/r_fcl_global.h"
000000d2 2e2e2f425357 
000000d8 2f466c617368 
000000de 2f466c617368 
000000e4 4c69622f725f 
000000ea 66636c5f676c 
000000f0 6f62616c2e68 
000000f6 00 
000000f7 000000         3716 	.byte	0,0,0
000000fa 2e2e2f2e2e2f   3717 	.strz	"../../../BSW/Flash/FlashLib/r_fcl_env.h"
00000100 2e2e2f425357 
00000106 2f466c617368 
0000010c 2f466c617368 
00000112 4c69622f725f 
00000118 66636c5f656e 

                                                                      Page 70
                                                              D:\TEMP\gh_00001gs1.s
0000011e 762e6800 
00000122 000000         3718 	.byte	0,0,0
00000125 00             3719 	.byte	0
                        3720 .Ldw_lpro_end:
                        3721 	.section	.debug_macinfo
                        3722 .Ldw_macinfo_begin:
                        3723 	.section	.debug_frame
                        3724 .LDW_3c6e800:
00000000 00000000*      3725 	.word	.LDW_unq_2-.LDW_unq_1
                        3726 .LDW_unq_1:
00000004 ffffffff       3727 	.byte	255,255,255,255
00000008 01             3728 	.byte	1
00000009 00             3729 	.byte	0
0000000a 01             3730 	.byte	1
0000000b 01             3731 	.byte	1
0000000c 1f             3732 	.byte	31
0000000d 0c             3733 	.byte	12
0000000e 03             3734 	.byte	3
0000000f 00             3735 	.byte	0
00000010 07             3736 	.byte	7
00000011 00             3737 	.byte	0
00000012 07             3738 	.byte	7
00000013 01             3739 	.byte	1
00000014 07             3740 	.byte	7
00000015 02             3741 	.byte	2
00000016 07             3742 	.byte	7
00000017 03             3743 	.byte	3
00000018 07             3744 	.byte	7
00000019 04             3745 	.byte	4
0000001a 07             3746 	.byte	7
0000001b 05             3747 	.byte	5
0000001c 07             3748 	.byte	7
0000001d 06             3749 	.byte	6
0000001e 07             3750 	.byte	7
0000001f 07             3751 	.byte	7
00000020 07             3752 	.byte	7
00000021 08             3753 	.byte	8
00000022 07             3754 	.byte	7
00000023 09             3755 	.byte	9
00000024 07             3756 	.byte	7
00000025 0a             3757 	.byte	10
00000026 07             3758 	.byte	7
00000027 0b             3759 	.byte	11
00000028 07             3760 	.byte	7
00000029 0c             3761 	.byte	12
0000002a 07             3762 	.byte	7
0000002b 0d             3763 	.byte	13
0000002c 07             3764 	.byte	7
0000002d 0e             3765 	.byte	14
0000002e 07             3766 	.byte	7
0000002f 0f             3767 	.byte	15
00000030 07             3768 	.byte	7
00000031 10             3769 	.byte	16
00000032 07             3770 	.byte	7
00000033 11             3771 	.byte	17
00000034 07             3772 	.byte	7
00000035 12             3773 	.byte	18
00000036 07             3774 	.byte	7
00000037 13             3775 	.byte	19
00000038 08             3776 	.byte	8
00000039 14             3777 	.byte	20

                                                                      Page 71
                                                              D:\TEMP\gh_00001gs1.s
0000003a 08             3778 	.byte	8
0000003b 15             3779 	.byte	21
0000003c 08             3780 	.byte	8
0000003d 16             3781 	.byte	22
0000003e 08             3782 	.byte	8
0000003f 17             3783 	.byte	23
00000040 08             3784 	.byte	8
00000041 18             3785 	.byte	24
00000042 08             3786 	.byte	8
00000043 19             3787 	.byte	25
00000044 08             3788 	.byte	8
00000045 1a             3789 	.byte	26
00000046 08             3790 	.byte	8
00000047 1b             3791 	.byte	27
00000048 08             3792 	.byte	8
00000049 1c             3793 	.byte	28
0000004a 08             3794 	.byte	8
0000004b 1d             3795 	.byte	29
0000004c 07             3796 	.byte	7
0000004d 1e             3797 	.byte	30
0000004e 08             3798 	.byte	8
0000004f 1f             3799 	.byte	31
00000050 07             3800 	.byte	7
00000051 20             3801 	.byte	32
00000052 07             3802 	.byte	7
00000053 21             3803 	.byte	33
00000054 07             3804 	.byte	7
00000055 22             3805 	.byte	34
00000056 07             3806 	.byte	7
00000057 23             3807 	.byte	35
00000058 07             3808 	.byte	7
00000059 24             3809 	.byte	36
0000005a 07             3810 	.byte	7
0000005b 25             3811 	.byte	37
0000005c 07             3812 	.byte	7
0000005d 26             3813 	.byte	38
0000005e 07             3814 	.byte	7
0000005f 27             3815 	.byte	39
00000060 07             3816 	.byte	7
00000061 28             3817 	.byte	40
00000062 07             3818 	.byte	7
00000063 29             3819 	.byte	41
00000064 07             3820 	.byte	7
00000065 2a             3821 	.byte	42
00000066 07             3822 	.byte	7
00000067 2b             3823 	.byte	43
00000068 07             3824 	.byte	7
00000069 2c             3825 	.byte	44
0000006a 07             3826 	.byte	7
0000006b 2d             3827 	.byte	45
0000006c 07             3828 	.byte	7
0000006d 2e             3829 	.byte	46
0000006e 07             3830 	.byte	7
0000006f 2f             3831 	.byte	47
00000070 07             3832 	.byte	7
00000071 30             3833 	.byte	48
00000072 07             3834 	.byte	7
00000073 31             3835 	.byte	49
00000074 07             3836 	.byte	7
00000075 32             3837 	.byte	50
00000076 07             3838 	.byte	7

                                                                      Page 72
                                                              D:\TEMP\gh_00001gs1.s
00000077 33             3839 	.byte	51
00000078 07             3840 	.byte	7
00000079 34             3841 	.byte	52
0000007a 07             3842 	.byte	7
0000007b 35             3843 	.byte	53
0000007c 07             3844 	.byte	7
0000007d 36             3845 	.byte	54
0000007e 07             3846 	.byte	7
0000007f 37             3847 	.byte	55
00000080 07             3848 	.byte	7
00000081 38             3849 	.byte	56
00000082 07             3850 	.byte	7
00000083 39             3851 	.byte	57
00000084 07             3852 	.byte	7
00000085 3a             3853 	.byte	58
00000086 07             3854 	.byte	7
00000087 3b             3855 	.byte	59
00000088 07             3856 	.byte	7
00000089 3c             3857 	.byte	60
0000008a 07             3858 	.byte	7
0000008b 3d             3859 	.byte	61
0000008c 07             3860 	.byte	7
0000008d 3e             3861 	.byte	62
0000008e 07             3862 	.byte	7
0000008f 3f             3863 	.byte	63
                        3864 .LDW_unq_2:
                        3865 	.section	.debug_info
                        3866 .LDW_2f20e40:
000000a8 25             3867 	.byte	37
000000a9 756e7369676e   3868 	.strz	"unsigned long"
000000af 6564206c6f6e 
000000b5 6700 
000000b7 07             3869 	.byte	7
000000b8 04             3870 	.byte	4
                        3871 
                        3872 	.section	.debug_abbrev
00000017 25             3873 	.byte	37
00000018 24             3874 	.byte	36
00000019 00             3875 	.byte	0
0000001a 0308           3876 	.byte	3,8
0000001c 3e0b           3877 	.byte	62,11
0000001e 0b0b           3878 	.byte	11,11
00000020 0000           3879 	.byte	0,0
                        3880 
                        3881 	.section	.debug_info
                        3882 .LDW_3b83770:
000000b9 29             3883 	.byte	41
000000ba 00000000*      3884 	.word	.LDW_3b83718
                        3885 
                        3886 	.section	.debug_abbrev
00000022 29             3887 	.byte	41
00000023 26             3888 	.byte	38
00000024 00             3889 	.byte	0
00000025 4910           3890 	.byte	73,16
00000027 0000           3891 	.byte	0,0
                        3892 
                        3893 	.section	.debug_info
                        3894 .LDW_2f20e78:
000000be 44             3895 	.byte	68
000000bf 00000000*      3896 	.word	.LDW_3b83718
000000c3 01             3897 	.byte	1

                                                                      Page 73
                                                              D:\TEMP\gh_00001gs1.s
                        3898 
                        3899 	.section	.debug_abbrev
00000029 44             3900 	.byte	68
0000002a 15             3901 	.byte	21
0000002b 01             3902 	.byte	1
0000002c 4910           3903 	.byte	73,16
0000002e 270c           3904 	.byte	39,12
00000030 0000           3905 	.byte	0,0
                        3906 
                        3907 	.section	.debug_info
                        3908 .LDW_2f1bc00:
000000c4 12             3909 	.byte	18
000000c5 00000000*      3910 	.word	.LDW_3b83770
000000c9 00             3911 	.byte	0
                        3912 
                        3913 	.section	.debug_abbrev
00000032 12             3914 	.byte	18
00000033 05             3915 	.byte	5
00000034 00             3916 	.byte	0
00000035 4910           3917 	.byte	73,16
00000037 4b0c           3918 	.byte	75,12
00000039 0000           3919 	.byte	0,0
                        3920 
                        3921 	.section	.debug_info
000000ca 00             3922 	.byte	0
                        3923 
                        3924 .LDW_2f20eb0:
000000cb 25             3925 	.byte	37
000000cc 756e7369676e   3926 	.strz	"unsigned short"
000000d2 65642073686f 
000000d8 727400 
000000db 07             3927 	.byte	7
000000dc 02             3928 	.byte	2
                        3929 
                        3930 .LDW_2f20ee8:
000000dd 44             3931 	.byte	68
000000de 00000000*      3932 	.word	.LDW_3b838b8
000000e2 01             3933 	.byte	1
                        3934 
                        3935 .LDW_2f1bc60:
000000e3 12             3936 	.byte	18
000000e4 00000000*      3937 	.word	.LDW_3b83770
000000e8 00             3938 	.byte	0
                        3939 
000000e9 00             3940 	.byte	0
                        3941 
                        3942 .LDW_2f20f20:
000000ea 25             3943 	.byte	37
000000eb 756e7369676e   3944 	.strz	"unsigned char"
000000f1 656420636861 
000000f7 7200 
000000f9 08             3945 	.byte	8
000000fa 01             3946 	.byte	1
                        3947 
                        3948 .LDW_2f20f58:
000000fb 44             3949 	.byte	68
000000fc 00000000*      3950 	.word	.LDW_3b83a00
00000100 01             3951 	.byte	1
                        3952 
                        3953 .LDW_2f1bcc0:
00000101 12             3954 	.byte	18

                                                                      Page 74
                                                              D:\TEMP\gh_00001gs1.s
00000102 00000000*      3955 	.word	.LDW_3b83770
00000106 00             3956 	.byte	0
                        3957 
00000107 00             3958 	.byte	0
                        3959 
                        3960 .LDW_2f20fc8:
00000108 45             3961 	.byte	69
00000109 01             3962 	.byte	1
                        3963 
                        3964 	.section	.debug_abbrev
0000003b 45             3965 	.byte	69
0000003c 15             3966 	.byte	21
0000003d 01             3967 	.byte	1
0000003e 270c           3968 	.byte	39,12
00000040 0000           3969 	.byte	0,0
                        3970 
                        3971 	.section	.debug_info
                        3972 .LDW_2f1bd20:
0000010a 12             3973 	.byte	18
0000010b 00000000*      3974 	.word	.LDW_3b83770
0000010f 00             3975 	.byte	0
                        3976 
                        3977 .LDW_2f1bd50:
00000110 12             3978 	.byte	18
00000111 00000000*      3979 	.word	.LDW_3b83770
00000115 00             3980 	.byte	0
                        3981 
00000116 00             3982 	.byte	0
                        3983 
                        3984 .LDW_2f21000:
00000117 45             3985 	.byte	69
00000118 01             3986 	.byte	1
                        3987 
                        3988 .LDW_2f1bdb0:
00000119 12             3989 	.byte	18
0000011a 00000000*      3990 	.word	.LDW_3b83770
0000011e 00             3991 	.byte	0
                        3992 
                        3993 .LDW_2f1bde0:
0000011f 12             3994 	.byte	18
00000120 00000000*      3995 	.word	.LDW_3b83770
00000124 00             3996 	.byte	0
                        3997 
00000125 00             3998 	.byte	0
                        3999 
                        4000 .LDW_3bdbfe8:
00000126 29             4001 	.byte	41
00000127 00000000*      4002 	.word	.LDW_3b838b8
                        4003 
                        4004 .LDW_2f21038:
0000012b 45             4005 	.byte	69
0000012c 01             4006 	.byte	1
                        4007 
                        4008 .LDW_3bdb7f8:
0000012d 12             4009 	.byte	18
0000012e 00000000*      4010 	.word	.LDW_3b83770
00000132 00             4011 	.byte	0
                        4012 
                        4013 .LDW_3bdb828:
00000133 12             4014 	.byte	18
00000134 00000000*      4015 	.word	.LDW_3bdbfe8

                                                                      Page 75
                                                              D:\TEMP\gh_00001gs1.s
00000138 00             4016 	.byte	0
                        4017 
00000139 00             4018 	.byte	0
                        4019 
                        4020 .LDW_3bdc188:
0000013a 29             4021 	.byte	41
0000013b 00000000*      4022 	.word	.LDW_3b83a00
                        4023 
                        4024 .LDW_2f21070:
0000013f 45             4025 	.byte	69
00000140 01             4026 	.byte	1
                        4027 
                        4028 .LDW_3bdb888:
00000141 12             4029 	.byte	18
00000142 00000000*      4030 	.word	.LDW_3b83770
00000146 00             4031 	.byte	0
                        4032 
                        4033 .LDW_3bdb8b8:
00000147 12             4034 	.byte	18
00000148 00000000*      4035 	.word	.LDW_3bdc188
0000014c 00             4036 	.byte	0
                        4037 
0000014d 00             4038 	.byte	0
                        4039 
                        4040 .LDW_3bed698:
0000014e 45             4041 	.byte	69
0000014f 01             4042 	.byte	1
                        4043 
00000150 00             4044 	.byte	0
                        4045 
                        4046 .LDW_3bed6d0:
00000151 44             4047 	.byte	68
00000152 00000000*      4048 	.word	.LDW_3bdc340
00000156 01             4049 	.byte	1
                        4050 
00000157 00             4051 	.byte	0
                        4052 
                        4053 .LDW_3bed708:
00000158 45             4054 	.byte	69
00000159 01             4055 	.byte	1
                        4056 
0000015a 00             4057 	.byte	0
                        4058 
                        4059 .LDW_3bed740:
0000015b 45             4060 	.byte	69
0000015c 01             4061 	.byte	1
                        4062 
0000015d 00             4063 	.byte	0
                        4064 
                        4065 .LDW_3bed778:
0000015e 44             4066 	.byte	68
0000015f 00000000*      4067 	.word	.LDW_3bdc340
00000163 01             4068 	.byte	1
                        4069 
                        4070 .LDW_3bdb9d8:
00000164 12             4071 	.byte	18
00000165 00000000*      4072 	.word	.LDW_3bdc600
00000169 00             4073 	.byte	0
                        4074 
0000016a 00             4075 	.byte	0
                        4076 

                                                                      Page 76
                                                              D:\TEMP\gh_00001gs1.s
                        4077 .LDW_3bed7b0:
0000016b 44             4078 	.byte	68
0000016c 00000000*      4079 	.word	.LDW_3bdc340
00000170 01             4080 	.byte	1
                        4081 
00000171 00             4082 	.byte	0
                        4083 
                        4084 .LDW_3bed7e8:
00000172 45             4085 	.byte	69
00000173 01             4086 	.byte	1
                        4087 
00000174 00             4088 	.byte	0
                        4089 
                        4090 .LDW_3bed820:
00000175 44             4091 	.byte	68
00000176 00000000*      4092 	.word	.LDW_3bdc8c0
0000017a 01             4093 	.byte	1
                        4094 
0000017b 00             4095 	.byte	0
                        4096 
                        4097 .LDW_3bed858:
0000017c 45             4098 	.byte	69
0000017d 01             4099 	.byte	1
                        4100 
0000017e 00             4101 	.byte	0
                        4102 
                        4103 .LDW_3bed890:
0000017f 45             4104 	.byte	69
00000180 01             4105 	.byte	1
                        4106 
00000181 00             4107 	.byte	0
                        4108 
                        4109 .LDW_3bed8c8:
00000182 45             4110 	.byte	69
00000183 01             4111 	.byte	1
                        4112 
00000184 00             4113 	.byte	0
                        4114 
                        4115 .LDW_3bed900:
00000185 44             4116 	.byte	68
00000186 00000000*      4117 	.word	.LDW_3bdc8c0
0000018a 01             4118 	.byte	1
                        4119 
0000018b 00             4120 	.byte	0
                        4121 
                        4122 .LDW_3bed938:
0000018c 44             4123 	.byte	68
0000018d 00000000*      4124 	.word	.LDW_3bdc340
00000191 01             4125 	.byte	1
                        4126 
                        4127 .LDW_3bdbb88:
00000192 12             4128 	.byte	18
00000193 00000000*      4129 	.word	.LDW_3bdc8c0
00000197 00             4130 	.byte	0
                        4131 
00000198 00             4132 	.byte	0
                        4133 
                        4134 .LDW_3bed970:
00000199 45             4135 	.byte	69
0000019a 01             4136 	.byte	1
                        4137 

                                                                      Page 77
                                                              D:\TEMP\gh_00001gs1.s
0000019b 00             4138 	.byte	0
                        4139 
                        4140 .LDW_3bed9a8:
0000019c 45             4141 	.byte	69
0000019d 01             4142 	.byte	1
                        4143 
0000019e 00             4144 	.byte	0
                        4145 
                        4146 .LDW_3bed9e0:
0000019f 45             4147 	.byte	69
000001a0 01             4148 	.byte	1
                        4149 
000001a1 00             4150 	.byte	0
                        4151 
                        4152 .LDW_3beda18:
000001a2 45             4153 	.byte	69
000001a3 01             4154 	.byte	1
                        4155 
000001a4 00             4156 	.byte	0
                        4157 
                        4158 .LDW_3beda50:
000001a5 45             4159 	.byte	69
000001a6 01             4160 	.byte	1
                        4161 
000001a7 00             4162 	.byte	0
                        4163 
                        4164 .LDW_3beda88:
000001a8 45             4165 	.byte	69
000001a9 01             4166 	.byte	1
                        4167 
000001aa 00             4168 	.byte	0
                        4169 
                        4170 .LDW_3bedac0:
000001ab 45             4171 	.byte	69
000001ac 01             4172 	.byte	1
                        4173 
000001ad 00             4174 	.byte	0
                        4175 
                        4176 .LDW_3bedaf8:
000001ae 45             4177 	.byte	69
000001af 01             4178 	.byte	1
                        4179 
000001b0 00             4180 	.byte	0
                        4181 
                        4182 .LDW_3bedb30:
000001b1 45             4183 	.byte	69
000001b2 01             4184 	.byte	1
                        4185 
000001b3 00             4186 	.byte	0
                        4187 
                        4188 .LDW_3bedb68:
000001b4 45             4189 	.byte	69
000001b5 01             4190 	.byte	1
                        4191 
000001b6 00             4192 	.byte	0
                        4193 
                        4194 .LDW_3bedba0:
000001b7 45             4195 	.byte	69
000001b8 01             4196 	.byte	1
                        4197 
000001b9 00             4198 	.byte	0

                                                                      Page 78
                                                              D:\TEMP\gh_00001gs1.s
                        4199 
                        4200 .LDW_3bedbd8:
000001ba 45             4201 	.byte	69
000001bb 01             4202 	.byte	1
                        4203 
000001bc 00             4204 	.byte	0
                        4205 
                        4206 .LDW_3bedc10:
000001bd 45             4207 	.byte	69
000001be 01             4208 	.byte	1
                        4209 
                        4210 .LDW_3bdbe28:
000001bf 12             4211 	.byte	18
000001c0 00000000*      4212 	.word	.LDW_3b838b8
000001c4 00             4213 	.byte	0
                        4214 
000001c5 00             4215 	.byte	0
                        4216 
                        4217 .LDW_3bedcf0:
000001c6 25             4218 	.byte	37
000001c7 696e7400       4219 	.strz	"int"
000001cb 05             4220 	.byte	5
000001cc 04             4221 	.byte	4
                        4222 
                        4223 .LDW_3b7f2b0:
000001cd 3a             4224 	.byte	58
000001ce 00             4225 	.byte	0
000001cf 10             4226 	.byte	16
000001d0 00000000*      4227 	.word	.LDW_3b83718
                        4228 
                        4229 	.section	.debug_abbrev
00000042 3a             4230 	.byte	58
00000043 01             4231 	.byte	1
00000044 01             4232 	.byte	1
00000045 090b           4233 	.byte	9,11
00000047 0b0f           4234 	.byte	11,15
00000049 4910           4235 	.byte	73,16
0000004b 0000           4236 	.byte	0,0
                        4237 
                        4238 	.section	.debug_info
000001d4 32             4239 	.byte	50
000001d5 00000000*      4240 	.word	.LDW_3bedcf0
000001d9 04             4241 	.byte	4
000001da 00             4242 	.byte	0
000001db 03             4243 	.byte	3
                        4244 
                        4245 	.section	.debug_abbrev
0000004d 32             4246 	.byte	50
0000004e 21             4247 	.byte	33
0000004f 00             4248 	.byte	0
00000050 4910           4249 	.byte	73,16
00000052 0b0f           4250 	.byte	11,15
00000054 220d           4251 	.byte	34,13
00000056 2f0d           4252 	.byte	47,13
00000058 0000           4253 	.byte	0,0
                        4254 
                        4255 	.section	.debug_info
000001dc 00             4256 	.byte	0
                        4257 
                        4258 .LDW_3c29d80:
000001dd 2b             4259 	.byte	43

                                                                      Page 79
                                                              D:\TEMP\gh_00001gs1.s
000001de 00000000*      4260 	.word	.LDW_3c29d28
                        4261 
                        4262 	.section	.debug_abbrev
0000005a 2b             4263 	.byte	43
0000005b 35             4264 	.byte	53
0000005c 00             4265 	.byte	0
0000005d 4910           4266 	.byte	73,16
0000005f 0000           4267 	.byte	0,0
                        4268 
                        4269 	.section	.debug_info
                        4270 .LDW_3bedd28:
000001e2 2f             4271 	.byte	47
000001e3 00000000*      4272 	.word	.LDW_3c29dd8
                        4273 
                        4274 	.section	.debug_abbrev
00000061 2f             4275 	.byte	47
00000062 0f             4276 	.byte	15
00000063 00             4277 	.byte	0
00000064 4910           4278 	.byte	73,16
00000066 0000           4279 	.byte	0,0
                        4280 
                        4281 	.section	.debug_info
                        4282 .LDW_3b7f428:
000001e7 3a             4283 	.byte	58
000001e8 00             4284 	.byte	0
000001e9 10             4285 	.byte	16
000001ea 00000000*      4286 	.word	.LDW_3b83a00
                        4287 
000001ee 32             4288 	.byte	50
000001ef 00000000*      4289 	.word	.LDW_3bedcf0
000001f3 04             4290 	.byte	4
000001f4 00             4291 	.byte	0
000001f5 0f             4292 	.byte	15
                        4293 
000001f6 00             4294 	.byte	0
                        4295 
                        4296 .LDW_3bedd60:
000001f7 45             4297 	.byte	69
000001f8 01             4298 	.byte	1
                        4299 
000001f9 00             4300 	.byte	0
                        4301 
                        4302 .LDW_3bedd98:
000001fa 2f             4303 	.byte	47
000001fb 00000000*      4304 	.word	.LDW_3bedd60
                        4305 
                        4306 .LDW_3c2a1a0:
000001ff 29             4307 	.byte	41
00000200 00000000*      4308 	.word	.LDW_3c29c78
                        4309 
                        4310 .LDW_3beddd0:
00000204 2f             4311 	.byte	47
00000205 00000000*      4312 	.word	.LDW_3c2a1a0
                        4313 
                        4314 .LDW_3b7f4b0:
00000209 3a             4315 	.byte	58
0000020a 00             4316 	.byte	0
0000020b 10             4317 	.byte	16
0000020c 00000000*      4318 	.word	.LDW_3b83a00
                        4319 
00000210 32             4320 	.byte	50

                                                                      Page 80
                                                              D:\TEMP\gh_00001gs1.s
00000211 00000000*      4321 	.word	.LDW_3bedcf0
00000215 04             4322 	.byte	4
00000216 00             4323 	.byte	0
00000217 0f             4324 	.byte	15
                        4325 
00000218 00             4326 	.byte	0
                        4327 
                        4328 .LDW_3b7f6a0:
00000219 45             4329 	.byte	69
0000021a 01             4330 	.byte	1
                        4331 
                        4332 .LDW_3c4d7f0:
0000021b 12             4333 	.byte	18
0000021c 00000000*      4334 	.word	.LDW_3b83a00
00000220 00             4335 	.byte	0
                        4336 
00000221 00             4337 	.byte	0
                        4338 
                        4339 .LDW_3b7f6d8:
00000222 45             4340 	.byte	69
00000223 01             4341 	.byte	1
                        4342 
00000224 00             4343 	.byte	0
                        4344 
                        4345 .LDW_3b7f748:
00000225 44             4346 	.byte	68
00000226 00000000*      4347 	.word	.LDW_3b83718
0000022a 01             4348 	.byte	1
                        4349 
                        4350 .LDW_3c4d820:
0000022b 12             4351 	.byte	18
0000022c 00000000*      4352 	.word	.LDW_3b83718
00000230 00             4353 	.byte	0
                        4354 
                        4355 .LDW_3c4d850:
00000231 12             4356 	.byte	18
00000232 00000000*      4357 	.word	.LDW_3b83718
00000236 00             4358 	.byte	0
                        4359 
                        4360 .LDW_3c4d880:
00000237 12             4361 	.byte	18
00000238 00000000*      4362 	.word	.LDW_3b83718
0000023c 00             4363 	.byte	0
                        4364 
0000023d 00             4365 	.byte	0
                        4366 
                        4367 .LDW_3b83a00:
0000023e 28             4368 	.byte	40
0000023f 75696e74385f   4369 	.strz	"uint8_t"
00000245 7400 
00000247 56             4370 	.byte	86
00000248 17             4371 	.byte	23
00000249 02             4372 	.byte	2
0000024a 00000000*      4373 	.word	.LDW_2f20f20
                        4374 
                        4375 	.section	.debug_abbrev
00000068 28             4376 	.byte	40
00000069 16             4377 	.byte	22
0000006a 00             4378 	.byte	0
0000006b 0308           4379 	.byte	3,8
0000006d 3b0f           4380 	.byte	59,15

                                                                      Page 81
                                                              D:\TEMP\gh_00001gs1.s
0000006f 390f           4381 	.byte	57,15
00000071 3a0f           4382 	.byte	58,15
00000073 4910           4383 	.byte	73,16
00000075 0000           4384 	.byte	0,0
                        4385 
                        4386 	.section	.debug_info
                        4387 .LDW_3b838b8:
0000024e 28             4388 	.byte	40
0000024f 75696e743136   4389 	.strz	"uint16_t"
00000255 5f7400 
00000258 58             4390 	.byte	88
00000259 18             4391 	.byte	24
0000025a 02             4392 	.byte	2
0000025b 00000000*      4393 	.word	.LDW_2f20eb0
                        4394 
                        4395 .LDW_3b83718:
0000025f 28             4396 	.byte	40
00000260 75696e743332   4397 	.strz	"uint32_t"
00000266 5f7400 
00000269 5a             4398 	.byte	90
0000026a 17             4399 	.byte	23
0000026b 02             4400 	.byte	2
0000026c 00000000*      4401 	.word	.LDW_2f20e40
                        4402 
                        4403 .LDW_3c29c20:
00000270 40             4404 	.byte	64
00000271 525f46434c5f   4405 	.strz	"R_FCL_DESCRIPTOR_T"
00000277 444553435249 
0000027d 50544f525f54 
00000283 00 
00000284 4e             4406 	.byte	78
00000285 10             4407 	.byte	16
00000286 04             4408 	.byte	4
00000287 18             4409 	.byte	24
00000288 01             4410 	.byte	1
                        4411 
                        4412 	.section	.debug_abbrev
00000077 40             4413 	.byte	64
00000078 13             4414 	.byte	19
00000079 01             4415 	.byte	1
0000007a 0308           4416 	.byte	3,8
0000007c 3b0f           4417 	.byte	59,15
0000007e 390f           4418 	.byte	57,15
00000080 3a0f           4419 	.byte	58,15
00000082 0b0f           4420 	.byte	11,15
00000084 320b           4421 	.byte	50,11
00000086 0000           4422 	.byte	0,0
                        4423 
                        4424 	.section	.debug_info
                        4425 .LDW_3bab080:
00000289 23             4426 	.byte	35
0000028a 69645f617533   4427 	.strz	"id_au32"
00000290 3200 
00000292 50             4428 	.byte	80
00000293 11             4429 	.byte	17
00000294 04             4430 	.byte	4
00000295 00000000*      4431 	.word	.LDW_3b7f2b0
00000299 0223           4432 	.byte	2,35
0000029b 00             4433 	.byte	0
0000029c 01             4434 	.byte	1
                        4435 

                                                                      Page 82
                                                              D:\TEMP\gh_00001gs1.s
                        4436 	.section	.debug_abbrev
00000088 23             4437 	.byte	35
00000089 0d             4438 	.byte	13
0000008a 00             4439 	.byte	0
0000008b 0308           4440 	.byte	3,8
0000008d 3b0f           4441 	.byte	59,15
0000008f 390f           4442 	.byte	57,15
00000091 3a0f           4443 	.byte	58,15
00000093 4910           4444 	.byte	73,16
00000095 380a           4445 	.byte	56,10
00000097 320b           4446 	.byte	50,11
00000099 0000           4447 	.byte	0,0
                        4448 
                        4449 	.section	.debug_info
                        4450 .LDW_3bab0c8:
0000029d 23             4451 	.byte	35
0000029e 616464725261   4452 	.strz	"addrRam_u32"
000002a4 6d5f75333200 
000002aa 51             4453 	.byte	81
000002ab 11             4454 	.byte	17
000002ac 04             4455 	.byte	4
000002ad 00000000*      4456 	.word	.LDW_3b83718
000002b1 0223           4457 	.byte	2,35
000002b3 10             4458 	.byte	16
000002b4 01             4459 	.byte	1
                        4460 
                        4461 .LDW_3bab110:
000002b5 23             4462 	.byte	35
000002b6 667265717565   4463 	.strz	"frequencyCpuMHz_u16"
000002bc 6e6379437075 
000002c2 4d487a5f7531 
000002c8 3600 
000002ca 52             4464 	.byte	82
000002cb 11             4465 	.byte	17
000002cc 04             4466 	.byte	4
000002cd 00000000*      4467 	.word	.LDW_3b838b8
000002d1 0223           4468 	.byte	2,35
000002d3 14             4469 	.byte	20
000002d4 01             4470 	.byte	1
                        4471 
000002d5 00             4472 	.byte	0
                        4473 
                        4474 .LDW_3c29c78:
000002d6 28             4475 	.byte	40
000002d7 725f66636c5f   4476 	.strz	"r_fcl_descriptor_t"
000002dd 646573637269 
000002e3 70746f725f74 
000002e9 00 
000002ea 53             4477 	.byte	83
000002eb 03             4478 	.byte	3
000002ec 04             4479 	.byte	4
000002ed 00000000*      4480 	.word	.LDW_3c29c20
                        4481 
                        4482 .LDW_3bedf18:
000002f1 2e             4483 	.byte	46
000002f2 525f46434c5f   4484 	.strz	"R_FCL_STATUS_T"
000002f8 535441545553 
000002fe 5f5400 
00000301 59             4485 	.byte	89
00000302 0e             4486 	.byte	14
00000303 04             4487 	.byte	4

                                                                      Page 83
                                                              D:\TEMP\gh_00001gs1.s
00000304 01             4488 	.byte	1
00000305 01             4489 	.byte	1
                        4490 
                        4491 	.section	.debug_abbrev
0000009b 2e             4492 	.byte	46
0000009c 04             4493 	.byte	4
0000009d 01             4494 	.byte	1
0000009e 0308           4495 	.byte	3,8
000000a0 3b0f           4496 	.byte	59,15
000000a2 390f           4497 	.byte	57,15
000000a4 3a0f           4498 	.byte	58,15
000000a6 0b0f           4499 	.byte	11,15
000000a8 320b           4500 	.byte	50,11
000000aa 0000           4501 	.byte	0,0
                        4502 
                        4503 	.section	.debug_info
                        4504 .LDW_3bedf68:
00000306 2d             4505 	.byte	45
00000307 525f46434c5f   4506 	.strz	"R_FCL_OK"
0000030d 4f4b00 
00000310 5b             4507 	.byte	91
00000311 05             4508 	.byte	5
00000312 04             4509 	.byte	4
00000313 00             4510 	.byte	0
                        4511 
                        4512 	.section	.debug_abbrev
000000ac 2d             4513 	.byte	45
000000ad 28             4514 	.byte	40
000000ae 00             4515 	.byte	0
000000af 0308           4516 	.byte	3,8
000000b1 3b0f           4517 	.byte	59,15
000000b3 390f           4518 	.byte	57,15
000000b5 3a0f           4519 	.byte	58,15
000000b7 1c0d           4520 	.byte	28,13
000000b9 0000           4521 	.byte	0,0
                        4522 
                        4523 	.section	.debug_info
                        4524 .LDW_3bedfa8:
00000314 2d             4525 	.byte	45
00000315 525f46434c5f   4526 	.strz	"R_FCL_BUSY"
0000031b 4255535900 
00000320 5c             4527 	.byte	92
00000321 05             4528 	.byte	5
00000322 04             4529 	.byte	4
00000323 01             4530 	.byte	1
                        4531 
                        4532 .LDW_3bedfe8:
00000324 2d             4533 	.byte	45
00000325 525f46434c5f   4534 	.strz	"R_FCL_SUSPENDED"
0000032b 53555350454e 
00000331 44454400 
00000335 5d             4535 	.byte	93
00000336 05             4536 	.byte	5
00000337 04             4537 	.byte	4
00000338 02             4538 	.byte	2
                        4539 
                        4540 .LDW_3bee028:
00000339 2d             4541 	.byte	45
0000033a 525f46434c5f   4542 	.strz	"R_FCL_ERR_FLMD0"
00000340 4552525f464c 
00000346 4d443000 

                                                                      Page 84
                                                              D:\TEMP\gh_00001gs1.s
0000034a 5e             4543 	.byte	94
0000034b 05             4544 	.byte	5
0000034c 04             4545 	.byte	4
0000034d 03             4546 	.byte	3
                        4547 
                        4548 .LDW_3bee068:
0000034e 2d             4549 	.byte	45
0000034f 525f46434c5f   4550 	.strz	"R_FCL_ERR_PARAMETER"
00000355 4552525f5041 
0000035b 52414d455445 
00000361 5200 
00000363 5f             4551 	.byte	95
00000364 05             4552 	.byte	5
00000365 04             4553 	.byte	4
00000366 04             4554 	.byte	4
                        4555 
                        4556 .LDW_3bee0a8:
00000367 2d             4557 	.byte	45
00000368 525f46434c5f   4558 	.strz	"R_FCL_ERR_PROTECTION"
0000036e 4552525f5052 
00000374 4f5445435449 
0000037a 4f4e00 
0000037d 60             4559 	.byte	96
0000037e 05             4560 	.byte	5
0000037f 04             4561 	.byte	4
00000380 05             4562 	.byte	5
                        4563 
                        4564 .LDW_3bee0e8:
00000381 2d             4565 	.byte	45
00000382 525f46434c5f   4566 	.strz	"R_FCL_ERR_REJECTED"
00000388 4552525f5245 
0000038e 4a4543544544 
00000394 00 
00000395 61             4567 	.byte	97
00000396 05             4568 	.byte	5
00000397 04             4569 	.byte	4
00000398 06             4570 	.byte	6
                        4571 
                        4572 .LDW_3bee140:
00000399 2d             4573 	.byte	45
0000039a 525f46434c5f   4574 	.strz	"R_FCL_ERR_FLOW"
000003a0 4552525f464c 
000003a6 4f5700 
000003a9 62             4575 	.byte	98
000003aa 05             4576 	.byte	5
000003ab 04             4577 	.byte	4
000003ac 07             4578 	.byte	7
                        4579 
                        4580 .LDW_3bee180:
000003ad 2d             4581 	.byte	45
000003ae 525f46434c5f   4582 	.strz	"R_FCL_ERR_WRITE"
000003b4 4552525f5752 
000003ba 49544500 
000003be 63             4583 	.byte	99
000003bf 05             4584 	.byte	5
000003c0 04             4585 	.byte	4
000003c1 08             4586 	.byte	8
                        4587 
                        4588 .LDW_3bee1c0:
000003c2 2d             4589 	.byte	45
000003c3 525f46434c5f   4590 	.strz	"R_FCL_ERR_ERASE"

                                                                      Page 85
                                                              D:\TEMP\gh_00001gs1.s
000003c9 4552525f4552 
000003cf 41534500 
000003d3 64             4591 	.byte	100
000003d4 05             4592 	.byte	5
000003d5 04             4593 	.byte	4
000003d6 09             4594 	.byte	9
                        4595 
                        4596 .LDW_3bee200:
000003d7 2d             4597 	.byte	45
000003d8 525f46434c5f   4598 	.strz	"R_FCL_ERR_COMMAND"
000003de 4552525f434f 
000003e4 4d4d414e4400 
000003ea 65             4599 	.byte	101
000003eb 05             4600 	.byte	5
000003ec 04             4601 	.byte	4
000003ed 0a             4602 	.byte	10
                        4603 
                        4604 .LDW_3bee240:
000003ee 2d             4605 	.byte	45
000003ef 525f46434c5f   4606 	.strz	"R_FCL_ERR_SUSPEND_FAILED"
000003f5 4552525f5355 
000003fb 5350454e445f 
00000401 4641494c4544 
00000407 00 
00000408 66             4607 	.byte	102
00000409 05             4608 	.byte	5
0000040a 04             4609 	.byte	4
0000040b 0b             4610 	.byte	11
                        4611 
                        4612 .LDW_3bee280:
0000040c 2d             4613 	.byte	45
0000040d 525f46434c5f   4614 	.strz	"R_FCL_CANCELLED"
00000413 43414e43454c 
00000419 4c454400 
0000041d 67             4615 	.byte	103
0000041e 05             4616 	.byte	5
0000041f 04             4617 	.byte	4
00000420 0c             4618 	.byte	12
                        4619 
                        4620 .LDW_3bee2c0:
00000421 2d             4621 	.byte	45
00000422 525f46434c5f   4622 	.strz	"R_FCL_ERR_INTERNAL"
00000428 4552525f494e 
0000042e 5445524e414c 
00000434 00 
00000435 68             4623 	.byte	104
00000436 05             4624 	.byte	5
00000437 04             4625 	.byte	4
00000438 0d             4626 	.byte	13
                        4627 
00000439 00             4628 	.byte	0
                        4629 
                        4630 .LDW_3bdc340:
0000043a 28             4631 	.byte	40
0000043b 725f66636c5f   4632 	.strz	"r_fcl_status_t"
00000441 737461747573 
00000447 5f7400 
0000044a 69             4633 	.byte	105
0000044b 03             4634 	.byte	3
0000044c 04             4635 	.byte	4
0000044d 00000000*      4636 	.word	.LDW_3bedf18

                                                                      Page 86
                                                              D:\TEMP\gh_00001gs1.s
                        4637 
                        4638 .LDW_3b7f338:
00000451 2e             4639 	.byte	46
00000452 525f46434c5f   4640 	.strz	"R_FCL_COMMAND_T"
00000458 434f4d4d414e 
0000045e 445f5400 
00000462 6f             4641 	.byte	111
00000463 0e             4642 	.byte	14
00000464 04             4643 	.byte	4
00000465 01             4644 	.byte	1
00000466 01             4645 	.byte	1
                        4646 
                        4647 .LDW_3bee440:
00000467 2d             4648 	.byte	45
00000468 525f46434c5f   4649 	.strz	"R_FCL_CMD_PREPARE_ENV"
0000046e 434d445f5052 
00000474 45504152455f 
0000047a 454e5600 
0000047e 71             4650 	.byte	113
0000047f 05             4651 	.byte	5
00000480 04             4652 	.byte	4
00000481 00             4653 	.byte	0
                        4654 
                        4655 .LDW_3bee480:
00000482 2d             4656 	.byte	45
00000483 525f46434c5f   4657 	.strz	"R_FCL_CMD_ERASE"
00000489 434d445f4552 
0000048f 41534500 
00000493 72             4658 	.byte	114
00000494 05             4659 	.byte	5
00000495 04             4660 	.byte	4
00000496 01             4661 	.byte	1
                        4662 
                        4663 .LDW_3bee4c0:
00000497 2d             4664 	.byte	45
00000498 525f46434c5f   4665 	.strz	"R_FCL_CMD_WRITE"
0000049e 434d445f5752 
000004a4 49544500 
000004a8 73             4666 	.byte	115
000004a9 05             4667 	.byte	5
000004aa 04             4668 	.byte	4
000004ab 02             4669 	.byte	2
                        4670 
                        4671 .LDW_3bee500:
000004ac 2d             4672 	.byte	45
000004ad 525f46434c5f   4673 	.strz	"R_FCL_CMD_SET_LOCKBIT"
000004b3 434d445f5345 
000004b9 545f4c4f434b 
000004bf 42495400 
000004c3 74             4674 	.byte	116
000004c4 05             4675 	.byte	5
000004c5 04             4676 	.byte	4
000004c6 03             4677 	.byte	3
                        4678 
                        4679 .LDW_3bee540:
000004c7 2d             4680 	.byte	45
000004c8 525f46434c5f   4681 	.strz	"R_FCL_CMD_GET_LOCKBIT"
000004ce 434d445f4745 
000004d4 545f4c4f434b 
000004da 42495400 
000004de 75             4682 	.byte	117

                                                                      Page 87
                                                              D:\TEMP\gh_00001gs1.s
000004df 05             4683 	.byte	5
000004e0 04             4684 	.byte	4
000004e1 04             4685 	.byte	4
                        4686 
                        4687 .LDW_3bee580:
000004e2 2d             4688 	.byte	45
000004e3 525f46434c5f   4689 	.strz	"R_FCL_CMD_ENABLE_LOCKBITS"
000004e9 434d445f454e 
000004ef 41424c455f4c 
000004f5 4f434b424954 
000004fb 5300 
000004fd 76             4690 	.byte	118
000004fe 05             4691 	.byte	5
000004ff 04             4692 	.byte	4
00000500 05             4693 	.byte	5
                        4694 
                        4695 .LDW_3bee5c0:
00000501 2d             4696 	.byte	45
00000502 525f46434c5f   4697 	.strz	"R_FCL_CMD_DISABLE_LOCKBITS"
00000508 434d445f4449 
0000050e 5341424c455f 
00000514 4c4f434b4249 
0000051a 545300 
0000051d 77             4698 	.byte	119
0000051e 05             4699 	.byte	5
0000051f 04             4700 	.byte	4
00000520 06             4701 	.byte	6
                        4702 
                        4703 .LDW_3bee600:
00000521 2d             4704 	.byte	45
00000522 525f46434c5f   4705 	.strz	"R_FCL_CMD_SET_OTP"
00000528 434d445f5345 
0000052e 545f4f545000 
00000534 78             4706 	.byte	120
00000535 05             4707 	.byte	5
00000536 04             4708 	.byte	4
00000537 07             4709 	.byte	7
                        4710 
                        4711 .LDW_3bee640:
00000538 2d             4712 	.byte	45
00000539 525f46434c5f   4713 	.strz	"R_FCL_CMD_GET_OTP"
0000053f 434d445f4745 
00000545 545f4f545000 
0000054b 79             4714 	.byte	121
0000054c 05             4715 	.byte	5
0000054d 04             4716 	.byte	4
0000054e 08             4717 	.byte	8
                        4718 
                        4719 .LDW_3bee680:
0000054f 2d             4720 	.byte	45
00000550 525f46434c5f   4721 	.strz	"R_FCL_CMD_SET_OPB"
00000556 434d445f5345 
0000055c 545f4f504200 
00000562 7a             4722 	.byte	122
00000563 05             4723 	.byte	5
00000564 04             4724 	.byte	4
00000565 09             4725 	.byte	9
                        4726 
                        4727 .LDW_3bee6c0:
00000566 2d             4728 	.byte	45
00000567 525f46434c5f   4729 	.strz	"R_FCL_CMD_GET_OPB"

                                                                      Page 88
                                                              D:\TEMP\gh_00001gs1.s
0000056d 434d445f4745 
00000573 545f4f504200 
00000579 7b             4730 	.byte	123
0000057a 05             4731 	.byte	5
0000057b 04             4732 	.byte	4
0000057c 0a             4733 	.byte	10
                        4734 
                        4735 .LDW_3bee700:
0000057d 2d             4736 	.byte	45
0000057e 525f46434c5f   4737 	.strz	"R_FCL_CMD_SET_ID"
00000584 434d445f5345 
0000058a 545f494400 
0000058f 7c             4738 	.byte	124
00000590 05             4739 	.byte	5
00000591 04             4740 	.byte	4
00000592 0b             4741 	.byte	11
                        4742 
                        4743 .LDW_3bee740:
00000593 2d             4744 	.byte	45
00000594 525f46434c5f   4745 	.strz	"R_FCL_CMD_GET_ID"
0000059a 434d445f4745 
000005a0 545f494400 
000005a5 7d             4746 	.byte	125
000005a6 05             4747 	.byte	5
000005a7 04             4748 	.byte	4
000005a8 0c             4749 	.byte	12
                        4750 
                        4751 .LDW_3bee780:
000005a9 2d             4752 	.byte	45
000005aa 525f46434c5f   4753 	.strz	"R_FCL_CMD_SET_READ_PROTECT_FLAG"
000005b0 434d445f5345 
000005b6 545f52454144 
000005bc 5f50524f5445 
000005c2 43545f464c41 
000005c8 4700 
000005ca 7e             4754 	.byte	126
000005cb 05             4755 	.byte	5
000005cc 04             4756 	.byte	4
000005cd 0d             4757 	.byte	13
                        4758 
                        4759 .LDW_3bee7c0:
000005ce 2d             4760 	.byte	45
000005cf 525f46434c5f   4761 	.strz	"R_FCL_CMD_GET_READ_PROTECT_FLAG"
000005d5 434d445f4745 
000005db 545f52454144 
000005e1 5f50524f5445 
000005e7 43545f464c41 
000005ed 4700 
000005ef 7f             4762 	.byte	127
000005f0 05             4763 	.byte	5
000005f1 04             4764 	.byte	4
000005f2 0e             4765 	.byte	14
                        4766 
                        4767 .LDW_3bee800:
000005f3 2d             4768 	.byte	45
000005f4 525f46434c5f   4769 	.strz	"R_FCL_CMD_SET_WRITE_PROTECT_FLAG"
000005fa 434d445f5345 
00000600 545f57524954 
00000606 455f50524f54 
0000060c 4543545f464c 
00000612 414700 

                                                                      Page 89
                                                              D:\TEMP\gh_00001gs1.s
00000615 8001           4770 	.byte	128,1
00000617 05             4771 	.byte	5
00000618 04             4772 	.byte	4
00000619 0f             4773 	.byte	15
                        4774 
                        4775 .LDW_3bee840:
0000061a 2d             4776 	.byte	45
0000061b 525f46434c5f   4777 	.strz	"R_FCL_CMD_GET_WRITE_PROTECT_FLAG"
00000621 434d445f4745 
00000627 545f57524954 
0000062d 455f50524f54 
00000633 4543545f464c 
00000639 414700 
0000063c 8101           4778 	.byte	129,1
0000063e 05             4779 	.byte	5
0000063f 04             4780 	.byte	4
00000640 10             4781 	.byte	16
                        4782 
                        4783 .LDW_3bee880:
00000641 2d             4784 	.byte	45
00000642 525f46434c5f   4785 	.strz	"R_FCL_CMD_SET_ERASE_PROTECT_FLAG"
00000648 434d445f5345 
0000064e 545f45524153 
00000654 455f50524f54 
0000065a 4543545f464c 
00000660 414700 
00000663 8201           4786 	.byte	130,1
00000665 05             4787 	.byte	5
00000666 04             4788 	.byte	4
00000667 11             4789 	.byte	17
                        4790 
                        4791 .LDW_3bee8c0:
00000668 2d             4792 	.byte	45
00000669 525f46434c5f   4793 	.strz	"R_FCL_CMD_GET_ERASE_PROTECT_FLAG"
0000066f 434d445f4745 
00000675 545f45524153 
0000067b 455f50524f54 
00000681 4543545f464c 
00000687 414700 
0000068a 8301           4794 	.byte	131,1
0000068c 05             4795 	.byte	5
0000068d 04             4796 	.byte	4
0000068e 12             4797 	.byte	18
                        4798 
                        4799 .LDW_3bee900:
0000068f 2d             4800 	.byte	45
00000690 525f46434c5f   4801 	.strz	"R_FCL_CMD_SET_SERIAL_PROG_DISABLED"
00000696 434d445f5345 
0000069c 545f53455249 
000006a2 414c5f50524f 
000006a8 475f44495341 
000006ae 424c454400 
000006b3 8401           4802 	.byte	132,1
000006b5 05             4803 	.byte	5
000006b6 04             4804 	.byte	4
000006b7 13             4805 	.byte	19
                        4806 
                        4807 .LDW_3bee940:
000006b8 2d             4808 	.byte	45
000006b9 525f46434c5f   4809 	.strz	"R_FCL_CMD_GET_SERIAL_PROG_DISABLED"
000006bf 434d445f4745 

                                                                      Page 90
                                                              D:\TEMP\gh_00001gs1.s
000006c5 545f53455249 
000006cb 414c5f50524f 
000006d1 475f44495341 
000006d7 424c454400 
000006dc 8501           4810 	.byte	133,1
000006de 05             4811 	.byte	5
000006df 04             4812 	.byte	4
000006e0 14             4813 	.byte	20
                        4814 
                        4815 .LDW_3bee980:
000006e1 2d             4816 	.byte	45
000006e2 525f46434c5f   4817 	.strz	"R_FCL_CMD_SET_SERIAL_ID_ENABLED"
000006e8 434d445f5345 
000006ee 545f53455249 
000006f4 414c5f49445f 
000006fa 454e41424c45 
00000700 4400 
00000702 8601           4818 	.byte	134,1
00000704 05             4819 	.byte	5
00000705 04             4820 	.byte	4
00000706 15             4821 	.byte	21
                        4822 
                        4823 .LDW_3bee9c0:
00000707 2d             4824 	.byte	45
00000708 525f46434c5f   4825 	.strz	"R_FCL_CMD_GET_SERIAL_ID_ENABLED"
0000070e 434d445f4745 
00000714 545f53455249 
0000071a 414c5f49445f 
00000720 454e41424c45 
00000726 4400 
00000728 8701           4826 	.byte	135,1
0000072a 05             4827 	.byte	5
0000072b 04             4828 	.byte	4
0000072c 16             4829 	.byte	22
                        4830 
                        4831 .LDW_3beea00:
0000072d 2d             4832 	.byte	45
0000072e 525f46434c5f   4833 	.strz	"R_FCL_CMD_SET_RESET_VECTOR"
00000734 434d445f5345 
0000073a 545f52455345 
00000740 545f56454354 
00000746 4f5200 
00000749 8801           4834 	.byte	136,1
0000074b 05             4835 	.byte	5
0000074c 04             4836 	.byte	4
0000074d 17             4837 	.byte	23
                        4838 
                        4839 .LDW_3beea40:
0000074e 2d             4840 	.byte	45
0000074f 525f46434c5f   4841 	.strz	"R_FCL_CMD_GET_RESET_VECTOR"
00000755 434d445f4745 
0000075b 545f52455345 
00000761 545f56454354 
00000767 4f5200 
0000076a 8901           4842 	.byte	137,1
0000076c 05             4843 	.byte	5
0000076d 04             4844 	.byte	4
0000076e 18             4845 	.byte	24
                        4846 
                        4847 .LDW_3beea80:
0000076f 2d             4848 	.byte	45

                                                                      Page 91
                                                              D:\TEMP\gh_00001gs1.s
00000770 525f46434c5f   4849 	.strz	"R_FCL_CMD_GET_BLOCK_CNT"
00000776 434d445f4745 
0000077c 545f424c4f43 
00000782 4b5f434e5400 
00000788 8a01           4850 	.byte	138,1
0000078a 05             4851 	.byte	5
0000078b 04             4852 	.byte	4
0000078c 19             4853 	.byte	25
                        4854 
                        4855 .LDW_3beeac0:
0000078d 2d             4856 	.byte	45
0000078e 525f46434c5f   4857 	.strz	"R_FCL_CMD_GET_BLOCK_END_ADDR"
00000794 434d445f4745 
0000079a 545f424c4f43 
000007a0 4b5f454e445f 
000007a6 4144445200 
000007ab 8b01           4858 	.byte	139,1
000007ad 05             4859 	.byte	5
000007ae 04             4860 	.byte	4
000007af 1a             4861 	.byte	26
                        4862 
                        4863 .LDW_3beeb00:
000007b0 2d             4864 	.byte	45
000007b1 525f46434c5f   4865 	.strz	"R_FCL_CMD_GET_DEVICE_NAME"
000007b7 434d445f4745 
000007bd 545f44455649 
000007c3 43455f4e414d 
000007c9 4500 
000007cb 8c01           4866 	.byte	140,1
000007cd 05             4867 	.byte	5
000007ce 04             4868 	.byte	4
000007cf 1b             4869 	.byte	27
                        4870 
000007d0 00             4871 	.byte	0
                        4872 
                        4873 .LDW_3c29cd0:
000007d1 28             4874 	.byte	40
000007d2 725f66636c5f   4875 	.strz	"r_fcl_command_t"
000007d8 636f6d6d616e 
000007de 645f7400 
000007e2 8d01           4876 	.byte	141,1
000007e4 03             4877 	.byte	3
000007e5 04             4878 	.byte	4
000007e6 00000000*      4879 	.word	.LDW_3b7f338
                        4880 
                        4881 .LDW_3c29d28:
000007ea 40             4882 	.byte	64
000007eb 525f46434c5f   4883 	.strz	"R_FCL_REQUEST_T"
000007f1 524551554553 
000007f7 545f5400 
000007fb 9301           4884 	.byte	147,1
000007fd 19             4885 	.byte	25
000007fe 04             4886 	.byte	4
000007ff 10             4887 	.byte	16
00000800 01             4888 	.byte	1
                        4889 
                        4890 .LDW_3bab158:
00000801 23             4891 	.byte	35
00000802 636f6d6d616e   4892 	.strz	"command_enu"
00000808 645f656e7500 
0000080e 9501           4893 	.byte	149,1

                                                                      Page 92
                                                              D:\TEMP\gh_00001gs1.s
00000810 19             4894 	.byte	25
00000811 04             4895 	.byte	4
00000812 00000000*      4896 	.word	.LDW_3c29cd0
00000816 0223           4897 	.byte	2,35
00000818 00             4898 	.byte	0
00000819 01             4899 	.byte	1
                        4900 
                        4901 .LDW_3bab1a0:
0000081a 23             4902 	.byte	35
0000081b 627566666572   4903 	.strz	"bufferAdd_u32"
00000821 4164645f7533 
00000827 3200 
00000829 9601           4904 	.byte	150,1
0000082b 19             4905 	.byte	25
0000082c 04             4906 	.byte	4
0000082d 00000000*      4907 	.word	.LDW_3b83718
00000831 0223           4908 	.byte	2,35
00000833 04             4909 	.byte	4
00000834 01             4910 	.byte	1
                        4911 
                        4912 .LDW_3bab1e8:
00000835 23             4913 	.byte	35
00000836 6964785f7533   4914 	.strz	"idx_u32"
0000083c 3200 
0000083e 9701           4915 	.byte	151,1
00000840 19             4916 	.byte	25
00000841 04             4917 	.byte	4
00000842 00000000*      4918 	.word	.LDW_3b83718
00000846 0223           4919 	.byte	2,35
00000848 08             4920 	.byte	8
00000849 01             4921 	.byte	1
                        4922 
                        4923 .LDW_3bab230:
0000084a 23             4924 	.byte	35
0000084b 636e745f7531   4925 	.strz	"cnt_u16"
00000851 3600 
00000853 9d01           4926 	.byte	157,1
00000855 0e             4927 	.byte	14
00000856 04             4928 	.byte	4
00000857 00000000*      4929 	.word	.LDW_3b838b8
0000085b 0223           4930 	.byte	2,35
0000085d 0c             4931 	.byte	12
0000085e 01             4932 	.byte	1
                        4933 
                        4934 .LDW_3bab278:
0000085f 23             4935 	.byte	35
00000860 737461747573   4936 	.strz	"status_enu"
00000866 5f656e7500 
0000086b a301           4937 	.byte	163,1
0000086d 14             4938 	.byte	20
0000086e 04             4939 	.byte	4
0000086f 00000000*      4940 	.word	.LDW_3bdc340
00000873 0223           4941 	.byte	2,35
00000875 0e             4942 	.byte	14
00000876 01             4943 	.byte	1
                        4944 
00000877 00             4945 	.byte	0
                        4946 
                        4947 .LDW_3c29dd8:
00000878 28             4948 	.byte	40
00000879 725f66636c5f   4949 	.strz	"r_fcl_request_t"

                                                                      Page 93
                                                              D:\TEMP\gh_00001gs1.s
0000087f 726571756573 
00000885 745f7400 
00000889 a401           4950 	.byte	164,1
0000088b 03             4951 	.byte	3
0000088c 04             4952 	.byte	4
0000088d 00000000*      4953 	.word	.LDW_3c29d80
                        4954 
                        4955 .LDW_3bef508:
00000891 2e             4956 	.byte	46
00000892 525f46434c5f   4957 	.strz	"R_FCL_FLAG_T"
00000898 464c41475f54 
0000089e 00 
0000089f 50             4958 	.byte	80
000008a0 0e             4959 	.byte	14
000008a1 05             4960 	.byte	5
000008a2 01             4961 	.byte	1
000008a3 01             4962 	.byte	1
                        4963 
                        4964 .LDW_3bee3c0:
000008a4 2d             4965 	.byte	45
000008a5 525f46434c5f   4966 	.strz	"R_FCL_FALSE"
000008ab 46414c534500 
000008b1 52             4967 	.byte	82
000008b2 05             4968 	.byte	5
000008b3 05             4969 	.byte	5
000008b4 00             4970 	.byte	0
                        4971 
                        4972 .LDW_3bee400:
000008b5 2d             4973 	.byte	45
000008b6 525f46434c5f   4974 	.strz	"R_FCL_TRUE"
000008bc 5452554500 
000008c1 53             4975 	.byte	83
000008c2 05             4976 	.byte	5
000008c3 05             4977 	.byte	5
000008c4 01             4978 	.byte	1
                        4979 
000008c5 00             4980 	.byte	0
                        4981 
                        4982 .LDW_3bdc8c0:
000008c6 28             4983 	.byte	40
000008c7 725f66636c5f   4984 	.strz	"r_fcl_flag_t"
000008cd 666c61675f74 
000008d3 00 
000008d4 54             4985 	.byte	84
000008d5 03             4986 	.byte	3
000008d6 05             4987 	.byte	5
000008d7 00000000*      4988 	.word	.LDW_3bef508
                        4989 
                        4990 .LDW_3bef2f0:
000008db 2e             4991 	.byte	46
000008dc 525f46434c5f   4992 	.strz	"R_FCL_MODE_T"
000008e2 4d4f44455f54 
000008e8 00 
000008e9 5a             4993 	.byte	90
000008ea 0e             4994 	.byte	14
000008eb 05             4995 	.byte	5
000008ec 01             4996 	.byte	1
000008ed 01             4997 	.byte	1
                        4998 
                        4999 .LDW_3bee300:
000008ee 2d             5000 	.byte	45

                                                                      Page 94
                                                              D:\TEMP\gh_00001gs1.s
000008ef 525f46434c5f   5001 	.strz	"R_FCL_READ_MODE"
000008f5 524541445f4d 
000008fb 4f444500 
000008ff 5c             5002 	.byte	92
00000900 05             5003 	.byte	5
00000901 05             5004 	.byte	5
00000902 00             5005 	.byte	0
                        5006 
                        5007 .LDW_3bee340:
00000903 2d             5008 	.byte	45
00000904 525f46434c5f   5009 	.strz	"R_FCL_WRITE_MODE"
0000090a 57524954455f 
00000910 4d4f444500 
00000915 5d             5010 	.byte	93
00000916 05             5011 	.byte	5
00000917 05             5012 	.byte	5
00000918 01             5013 	.byte	1
                        5014 
                        5015 .LDW_3bee380:
00000919 2d             5016 	.byte	45
0000091a 525f46434c5f   5017 	.strz	"R_FCL_CFG_WRITE_MODE"
00000920 4346475f5752 
00000926 4954455f4d4f 
0000092c 444500 
0000092f 5e             5018 	.byte	94
00000930 05             5019 	.byte	5
00000931 05             5020 	.byte	5
00000932 8001           5021 	.byte	128,1
                        5022 
00000934 00             5023 	.byte	0
                        5024 
                        5025 .LDW_3bdc600:
00000935 28             5026 	.byte	40
00000936 725f66636c5f   5027 	.strz	"r_fcl_mode_t"
0000093c 6d6f64655f74 
00000942 00 
00000943 5f             5028 	.byte	95
00000944 03             5029 	.byte	3
00000945 05             5030 	.byte	5
00000946 00000000*      5031 	.word	.LDW_3bef2f0
                        5032 
                        5033 .LDW_3b7f388:
0000094a 2e             5034 	.byte	46
0000094b 525f46434c5f   5035 	.strz	"R_FCL_INT_STATUS_T"
00000951 494e545f5354 
00000957 415455535f54 
0000095d 00 
0000095e 65             5036 	.byte	101
0000095f 0e             5037 	.byte	14
00000960 05             5038 	.byte	5
00000961 01             5039 	.byte	1
00000962 01             5040 	.byte	1
                        5041 
                        5042 .LDW_3beeb40:
00000963 2d             5043 	.byte	45
00000964 525f46434c5f   5044 	.strz	"R_FCL_ISTAT_NOINIT"
0000096a 49535441545f 
00000970 4e4f494e4954 
00000976 00 
00000977 67             5045 	.byte	103
00000978 05             5046 	.byte	5

                                                                      Page 95
                                                              D:\TEMP\gh_00001gs1.s
00000979 05             5047 	.byte	5
0000097a 00             5048 	.byte	0
                        5049 
                        5050 .LDW_3beeb80:
0000097b 2d             5051 	.byte	45
0000097c 525f46434c5f   5052 	.strz	"R_FCL_ISTAT_INIT"
00000982 49535441545f 
00000988 494e495400 
0000098d 68             5053 	.byte	104
0000098e 05             5054 	.byte	5
0000098f 05             5055 	.byte	5
00000990 01             5056 	.byte	1
                        5057 
                        5058 .LDW_3beebc0:
00000991 2d             5059 	.byte	45
00000992 525f46434c5f   5060 	.strz	"R_FCL_ISTAT_PREPARED"
00000998 49535441545f 
0000099e 505245504152 
000009a4 454400 
000009a7 69             5061 	.byte	105
000009a8 05             5062 	.byte	5
000009a9 05             5063 	.byte	5
000009aa 02             5064 	.byte	2
                        5065 
                        5066 .LDW_3beec00:
000009ab 2d             5067 	.byte	45
000009ac 525f46434c5f   5068 	.strz	"R_FCL_ISTAT_BUSY"
000009b2 49535441545f 
000009b8 4255535900 
000009bd 6a             5069 	.byte	106
000009be 05             5070 	.byte	5
000009bf 05             5071 	.byte	5
000009c0 03             5072 	.byte	3
                        5073 
                        5074 .LDW_3beec40:
000009c1 2d             5075 	.byte	45
000009c2 525f46434c5f   5076 	.strz	"R_FCL_ISTAT_SUSPENDED"
000009c8 49535441545f 
000009ce 53555350454e 
000009d4 44454400 
000009d8 6b             5077 	.byte	107
000009d9 05             5078 	.byte	5
000009da 05             5079 	.byte	5
000009db 04             5080 	.byte	4
                        5081 
000009dc 00             5082 	.byte	0
                        5083 
                        5084 .LDW_3c29e30:
000009dd 28             5085 	.byte	40
000009de 725f66636c5f   5086 	.strz	"r_fcl_int_status_t"
000009e4 696e745f7374 
000009ea 617475735f74 
000009f0 00 
000009f1 6c             5087 	.byte	108
000009f2 03             5088 	.byte	3
000009f3 05             5089 	.byte	5
000009f4 00000000*      5090 	.word	.LDW_3b7f388
                        5091 
                        5092 .LDW_3b7f3d8:
000009f8 2e             5093 	.byte	46
000009f9 525f46434c5f   5094 	.strz	"R_FCL_OP_STATUS_T"

                                                                      Page 96
                                                              D:\TEMP\gh_00001gs1.s
000009ff 4f505f535441 
00000a05 5455535f5400 
00000a0b 72             5095 	.byte	114
00000a0c 0e             5096 	.byte	14
00000a0d 05             5097 	.byte	5
00000a0e 01             5098 	.byte	1
00000a0f 01             5099 	.byte	1
                        5100 
                        5101 .LDW_3beec80:
00000a10 2d             5102 	.byte	45
00000a11 525f46434c5f   5103 	.strz	"R_FCL_OP_IDLE_STATE"
00000a17 4f505f49444c 
00000a1d 455f53544154 
00000a23 4500 
00000a25 74             5104 	.byte	116
00000a26 05             5105 	.byte	5
00000a27 05             5106 	.byte	5
00000a28 00             5107 	.byte	0
                        5108 
                        5109 .LDW_3beecc0:
00000a29 2d             5110 	.byte	45
00000a2a 525f46434c5f   5111 	.strz	"R_FCL_OP_PREPARE_STATE"
00000a30 4f505f505245 
00000a36 504152455f53 
00000a3c 5441544500 
00000a41 75             5112 	.byte	117
00000a42 05             5113 	.byte	5
00000a43 05             5114 	.byte	5
00000a44 01             5115 	.byte	1
                        5116 
                        5117 .LDW_3beed00:
00000a45 2d             5118 	.byte	45
00000a46 525f46434c5f   5119 	.strz	"R_FCL_PREP_COPY_FW_STATE"
00000a4c 505245505f43 
00000a52 4f50595f4657 
00000a58 5f5354415445 
00000a5e 00 
00000a5f 79             5120 	.byte	121
00000a60 05             5121 	.byte	5
00000a61 05             5122 	.byte	5
00000a62 02             5123 	.byte	2
                        5124 
                        5125 .LDW_3beed40:
00000a63 2d             5126 	.byte	45
00000a64 525f46434c5f   5127 	.strz	"R_FCL_PREP_RESET_FCU_STATE"
00000a6a 505245505f52 
00000a70 455345545f46 
00000a76 43555f535441 
00000a7c 544500 
00000a7f 7a             5128 	.byte	122
00000a80 05             5129 	.byte	5
00000a81 05             5130 	.byte	5
00000a82 03             5131 	.byte	3
                        5132 
                        5133 .LDW_3beed80:
00000a83 2d             5134 	.byte	45
00000a84 525f46434c5f   5135 	.strz	"R_FCL_PREP_FCURAM_CHKSUM_STATE"
00000a8a 505245505f46 
00000a90 435552414d5f 
00000a96 43484b53554d 
00000a9c 5f5354415445 

                                                                      Page 97
                                                              D:\TEMP\gh_00001gs1.s
00000aa2 00 
00000aa3 7b             5136 	.byte	123
00000aa4 05             5137 	.byte	5
00000aa5 05             5138 	.byte	5
00000aa6 04             5139 	.byte	4
                        5140 
                        5141 .LDW_3beedc0:
00000aa7 2d             5142 	.byte	45
00000aa8 525f46434c5f   5143 	.strz	"R_FCL_PREP_ID_CHECK_FREQ_SET_STATE"
00000aae 505245505f49 
00000ab4 445f43484543 
00000aba 4b5f46524551 
00000ac0 5f5345545f53 
00000ac6 5441544500 
00000acb 7d             5144 	.byte	125
00000acc 05             5145 	.byte	5
00000acd 05             5146 	.byte	5
00000ace 05             5147 	.byte	5
                        5148 
                        5149 .LDW_3beee00:
00000acf 2d             5150 	.byte	45
00000ad0 525f46434c5f   5151 	.strz	"R_FCL_BUSY_CHECK_PE_MODE_SWITCH_STATE"
00000ad6 425553595f43 
00000adc 4845434b5f50 
00000ae2 455f4d4f4445 
00000ae8 5f5357495443 
00000aee 485f53544154 
00000af4 4500 
00000af6 7f             5152 	.byte	127
00000af7 05             5153 	.byte	5
00000af8 05             5154 	.byte	5
00000af9 06             5155 	.byte	6
                        5156 
                        5157 .LDW_3beee40:
00000afa 2d             5158 	.byte	45
00000afb 525f46434c5f   5159 	.strz	"R_FCL_BUSY_START_OP_STATE"
00000b01 425553595f53 
00000b07 544152545f4f 
00000b0d 505f53544154 
00000b13 4500 
00000b15 8101           5160 	.byte	129,1
00000b17 05             5161 	.byte	5
00000b18 05             5162 	.byte	5
00000b19 07             5163 	.byte	7
                        5164 
                        5165 .LDW_3beee80:
00000b1a 2d             5166 	.byte	45
00000b1b 525f46434c5f   5167 	.strz	"R_FCL_BUSY_START_WRITE_OP_STATE"
00000b21 425553595f53 
00000b27 544152545f57 
00000b2d 524954455f4f 
00000b33 505f53544154 
00000b39 4500 
00000b3b 8301           5168 	.byte	131,1
00000b3d 05             5169 	.byte	5
00000b3e 05             5170 	.byte	5
00000b3f 08             5171 	.byte	8
                        5172 
                        5173 .LDW_3beeec0:
00000b40 2d             5174 	.byte	45
00000b41 525f46434c5f   5175 	.strz	"R_FCL_BUSY_CHECK_RESULT_STATE"

                                                                      Page 98
                                                              D:\TEMP\gh_00001gs1.s
00000b47 425553595f43 
00000b4d 4845434b5f52 
00000b53 4553554c545f 
00000b59 535441544500 
00000b5f 8501           5176 	.byte	133,1
00000b61 05             5177 	.byte	5
00000b62 05             5178 	.byte	5
00000b63 09             5179 	.byte	9
                        5180 
                        5181 .LDW_3beef00:
00000b64 2d             5182 	.byte	45
00000b65 525f46434c5f   5183 	.strz	"R_FCL_BUSY_SWITCH_READ_MODE_STATE"
00000b6b 425553595f53 
00000b71 57495443485f 
00000b77 524541445f4d 
00000b7d 4f44455f5354 
00000b83 41544500 
00000b87 8701           5184 	.byte	135,1
00000b89 05             5185 	.byte	5
00000b8a 05             5186 	.byte	5
00000b8b 0a             5187 	.byte	10
                        5188 
                        5189 .LDW_3beef40:
00000b8c 2d             5190 	.byte	45
00000b8d 525f46434c5f   5191 	.strz	"R_FCL_BUSY_CHECK_READ_MODE_SWITCH_STATE"
00000b93 425553595f43 
00000b99 4845434b5f52 
00000b9f 4541445f4d4f 
00000ba5 44455f535749 
00000bab 5443485f5354 
00000bb1 41544500 
00000bb5 8801           5192 	.byte	136,1
00000bb7 05             5193 	.byte	5
00000bb8 05             5194 	.byte	5
00000bb9 0b             5195 	.byte	11
                        5196 
                        5197 .LDW_3beef80:
00000bba 2d             5198 	.byte	45
00000bbb 525f46434c5f   5199 	.strz	"R_FCL_OP_FINISHED_STATE"
00000bc1 4f505f46494e 
00000bc7 49534845445f 
00000bcd 535441544500 
00000bd3 8a01           5200 	.byte	138,1
00000bd5 05             5201 	.byte	5
00000bd6 05             5202 	.byte	5
00000bd7 0c             5203 	.byte	12
                        5204 
00000bd8 00             5205 	.byte	0
                        5206 
                        5207 .LDW_3c29e88:
00000bd9 28             5208 	.byte	40
00000bda 725f66636c5f   5209 	.strz	"r_fcl_op_status_t"
00000be0 6f705f737461 
00000be6 7475735f7400 
00000bec 8b01           5210 	.byte	139,1
00000bee 03             5211 	.byte	3
00000bef 05             5212 	.byte	5
00000bf0 00000000*      5213 	.word	.LDW_3b7f3d8
                        5214 
                        5215 .LDW_3c29ee0:
00000bf4 40             5216 	.byte	64

                                                                      Page 99
                                                              D:\TEMP\gh_00001gs1.s
00000bf5 525f46434c5f   5217 	.strz	"R_FCL_MULTIOP_T"
00000bfb 4d554c54494f 
00000c01 505f5400 
00000c05 9101           5218 	.byte	145,1
00000c07 10             5219 	.byte	16
00000c08 05             5220 	.byte	5
00000c09 0c             5221 	.byte	12
00000c0a 01             5222 	.byte	1
                        5223 
                        5224 .LDW_3bab2c0:
00000c0b 23             5225 	.byte	35
00000c0c 6f7041646472   5226 	.strz	"opAddr_u32"
00000c12 5f75333200 
00000c17 9301           5227 	.byte	147,1
00000c19 19             5228 	.byte	25
00000c1a 05             5229 	.byte	5
00000c1b 00000000*      5230 	.word	.LDW_3b83718
00000c1f 0223           5231 	.byte	2,35
00000c21 00             5232 	.byte	0
00000c22 01             5233 	.byte	1
                        5234 
                        5235 .LDW_3bab308:
00000c23 23             5236 	.byte	35
00000c24 627566664164   5237 	.strz	"buffAddr_u32"
00000c2a 64725f753332 
00000c30 00 
00000c31 9401           5238 	.byte	148,1
00000c33 19             5239 	.byte	25
00000c34 05             5240 	.byte	5
00000c35 00000000*      5241 	.word	.LDW_3b83718
00000c39 0223           5242 	.byte	2,35
00000c3b 04             5243 	.byte	4
00000c3c 01             5244 	.byte	1
                        5245 
                        5246 .LDW_3bab350:
00000c3d 23             5247 	.byte	35
00000c3e 6f70436e745f   5248 	.strz	"opCnt_u16"
00000c44 75313600 
00000c48 9501           5249 	.byte	149,1
00000c4a 19             5250 	.byte	25
00000c4b 05             5251 	.byte	5
00000c4c 00000000*      5252 	.word	.LDW_3b838b8
00000c50 0223           5253 	.byte	2,35
00000c52 08             5254 	.byte	8
00000c53 01             5255 	.byte	1
                        5256 
                        5257 .LDW_3bab398:
00000c54 23             5258 	.byte	35
00000c55 6f7053746174   5259 	.strz	"opStatus_enu"
00000c5b 75735f656e75 
00000c61 00 
00000c62 9601           5260 	.byte	150,1
00000c64 19             5261 	.byte	25
00000c65 05             5262 	.byte	5
00000c66 00000000*      5263 	.word	.LDW_3c29e88
00000c6a 0223           5264 	.byte	2,35
00000c6c 0a             5265 	.byte	10
00000c6d 01             5266 	.byte	1
                        5267 
                        5268 .LDW_3bab3e0:
00000c6e 23             5269 	.byte	35

                                                                      Page 100
                                                              D:\TEMP\gh_00001gs1.s
00000c6f 6f7052657375   5270 	.strz	"opResult_enu"
00000c75 6c745f656e75 
00000c7b 00 
00000c7c 9701           5271 	.byte	151,1
00000c7e 19             5272 	.byte	25
00000c7f 05             5273 	.byte	5
00000c80 00000000*      5274 	.word	.LDW_3bdc340
00000c84 0223           5275 	.byte	2,35
00000c86 0b             5276 	.byte	11
00000c87 01             5277 	.byte	1
                        5278 
00000c88 00             5279 	.byte	0
                        5280 
                        5281 .LDW_3c29f38:
00000c89 28             5282 	.byte	40
00000c8a 725f66636c5f   5283 	.strz	"r_fcl_multiOp_t"
00000c90 6d756c74694f 
00000c96 705f7400 
00000c9a 9801           5284 	.byte	152,1
00000c9c 03             5285 	.byte	3
00000c9d 05             5286 	.byte	5
00000c9e 00000000*      5287 	.word	.LDW_3c29ee0
                        5288 
                        5289 .LDW_3c29f90:
00000ca2 40             5290 	.byte	64
00000ca3 525f46434c5f   5291 	.strz	"R_FCL_SUSPENDINFO_T"
00000ca9 53555350454e 
00000caf 44494e464f5f 
00000cb5 5400 
00000cb7 9e01           5292 	.byte	158,1
00000cb9 10             5293 	.byte	16
00000cba 05             5294 	.byte	5
00000cbb 18             5295 	.byte	24
00000cbc 01             5296 	.byte	1
                        5297 
                        5298 .LDW_3bab428:
00000cbd 23             5299 	.byte	35
00000cbe 66636c5f7265   5300 	.strz	"fcl_reqSuspend_pstr"
00000cc4 715375737065 
00000cca 6e645f707374 
00000cd0 7200 
00000cd2 a001           5301 	.byte	160,1
00000cd4 19             5302 	.byte	25
00000cd5 05             5303 	.byte	5
00000cd6 00000000*      5304 	.word	.LDW_3bedd28
00000cda 0223           5305 	.byte	2,35
00000cdc 00             5306 	.byte	0
00000cdd 01             5307 	.byte	1
                        5308 
                        5309 .LDW_3bab470:
00000cde 23             5310 	.byte	35
00000cdf 66636c5f6f70   5311 	.strz	"fcl_opSuspend_str"
00000ce5 53757370656e 
00000ceb 645f73747200 
00000cf1 a101           5312 	.byte	161,1
00000cf3 19             5313 	.byte	25
00000cf4 05             5314 	.byte	5
00000cf5 00000000*      5315 	.word	.LDW_3c29f38
00000cf9 0223           5316 	.byte	2,35
00000cfb 04             5317 	.byte	4
00000cfc 01             5318 	.byte	1

                                                                      Page 101
                                                              D:\TEMP\gh_00001gs1.s
                        5319 
                        5320 .LDW_3bab4b8:
00000cfd 23             5321 	.byte	35
00000cfe 737064537064   5322 	.strz	"spdSpdRequest_enu"
00000d04 526571756573 
00000d0a 745f656e7500 
00000d10 a201           5323 	.byte	162,1
00000d12 19             5324 	.byte	25
00000d13 05             5325 	.byte	5
00000d14 00000000*      5326 	.word	.LDW_3bdc8c0
00000d18 0223           5327 	.byte	2,35
00000d1a 10             5328 	.byte	16
00000d1b 01             5329 	.byte	1
                        5330 
                        5331 .LDW_3bab500:
00000d1c 23             5332 	.byte	35
00000d1d 737064526573   5333 	.strz	"spdResRequest_enu"
00000d23 526571756573 
00000d29 745f656e7500 
00000d2f a301           5334 	.byte	163,1
00000d31 19             5335 	.byte	25
00000d32 05             5336 	.byte	5
00000d33 00000000*      5337 	.word	.LDW_3bdc8c0
00000d37 0223           5338 	.byte	2,35
00000d39 11             5339 	.byte	17
00000d3a 01             5340 	.byte	1
                        5341 
                        5342 .LDW_3bab548:
00000d3b 23             5343 	.byte	35
00000d3c 666c61675375   5344 	.strz	"flagSuspended_enu"
00000d42 7370656e6465 
00000d48 645f656e7500 
00000d4e a401           5345 	.byte	164,1
00000d50 19             5346 	.byte	25
00000d51 05             5347 	.byte	5
00000d52 00000000*      5348 	.word	.LDW_3bdc8c0
00000d56 0223           5349 	.byte	2,35
00000d58 12             5350 	.byte	18
00000d59 01             5351 	.byte	1
                        5352 
                        5353 .LDW_3bab590:
00000d5a 23             5354 	.byte	35
00000d5b 6d617453656c   5355 	.strz	"matSel_u16"
00000d61 5f75313600 
00000d66 a501           5356 	.byte	165,1
00000d68 19             5357 	.byte	25
00000d69 05             5358 	.byte	5
00000d6a 00000000*      5359 	.word	.LDW_3b838b8
00000d6e 0223           5360 	.byte	2,35
00000d70 14             5361 	.byte	20
00000d71 01             5362 	.byte	1
                        5363 
00000d72 00             5364 	.byte	0
                        5365 
                        5366 .LDW_3c29fe8:
00000d73 28             5367 	.byte	40
00000d74 725f66636c5f   5368 	.strz	"r_fcl_suspendInfo_t"
00000d7a 73757370656e 
00000d80 64496e666f5f 
00000d86 7400 
00000d88 a601           5369 	.byte	166,1

                                                                      Page 102
                                                              D:\TEMP\gh_00001gs1.s
00000d8a 03             5370 	.byte	3
00000d8b 05             5371 	.byte	5
00000d8c 00000000*      5372 	.word	.LDW_3c29f90
                        5373 
                        5374 .LDW_3c2a040:
00000d90 40             5375 	.byte	64
00000d91 525f46434c5f   5376 	.strz	"R_FCL_DEVICEINFO_T"
00000d97 444556494345 
00000d9d 494e464f5f54 
00000da3 00 
00000da4 ac01           5377 	.byte	172,1
00000da6 10             5378 	.byte	16
00000da7 05             5379 	.byte	5
00000da8 30             5380 	.byte	48
00000da9 01             5381 	.byte	1
                        5382 
                        5383 .LDW_3bab5d8:
00000daa 23             5384 	.byte	35
00000dab 636631426c6b   5385 	.strz	"cf1BlkCnt32kB_u32"
00000db1 436e7433326b 
00000db7 425f75333200 
00000dbd ae01           5386 	.byte	174,1
00000dbf 19             5387 	.byte	25
00000dc0 05             5388 	.byte	5
00000dc1 00000000*      5389 	.word	.LDW_3b83718
00000dc5 0223           5390 	.byte	2,35
00000dc7 00             5391 	.byte	0
00000dc8 01             5392 	.byte	1
                        5393 
                        5394 .LDW_3bab620:
00000dc9 23             5395 	.byte	35
00000dca 636632426c6b   5396 	.strz	"cf2BlkCnt32kB_u32"
00000dd0 436e7433326b 
00000dd6 425f75333200 
00000ddc af01           5397 	.byte	175,1
00000dde 19             5398 	.byte	25
00000ddf 05             5399 	.byte	5
00000de0 00000000*      5400 	.word	.LDW_3b83718
00000de4 0223           5401 	.byte	2,35
00000de6 04             5402 	.byte	4
00000de7 01             5403 	.byte	1
                        5404 
                        5405 .LDW_3bab668:
00000de8 23             5406 	.byte	35
00000de9 757372426c6b   5407 	.strz	"usrBlkCnt32kB_u32"
00000def 436e7433326b 
00000df5 425f75333200 
00000dfb b001           5408 	.byte	176,1
00000dfd 19             5409 	.byte	25
00000dfe 05             5410 	.byte	5
00000dff 00000000*      5411 	.word	.LDW_3b83718
00000e03 0223           5412 	.byte	2,35
00000e05 08             5413 	.byte	8
00000e06 01             5414 	.byte	1
                        5415 
                        5416 .LDW_3bab6b0:
00000e07 23             5417 	.byte	35
00000e08 736563757265   5418 	.strz	"secureData_u32"
00000e0e 446174615f75 
00000e14 333200 
00000e17 b101           5419 	.byte	177,1

                                                                      Page 103
                                                              D:\TEMP\gh_00001gs1.s
00000e19 19             5420 	.byte	25
00000e1a 05             5421 	.byte	5
00000e1b 00000000*      5422 	.word	.LDW_3b83718
00000e1f 0223           5423 	.byte	2,35
00000e21 0c             5424 	.byte	12
00000e22 01             5425 	.byte	1
                        5426 
                        5427 .LDW_3bab6f8:
00000e23 23             5428 	.byte	35
00000e24 664d696e5f75   5429 	.strz	"fMin_u16"
00000e2a 313600 
00000e2d b201           5430 	.byte	178,1
00000e2f 19             5431 	.byte	25
00000e30 05             5432 	.byte	5
00000e31 00000000*      5433 	.word	.LDW_3b838b8
00000e35 0223           5434 	.byte	2,35
00000e37 10             5435 	.byte	16
00000e38 01             5436 	.byte	1
                        5437 
                        5438 .LDW_3bab740:
00000e39 23             5439 	.byte	35
00000e3a 664d61785f75   5440 	.strz	"fMax_u16"
00000e40 313600 
00000e43 b301           5441 	.byte	179,1
00000e45 19             5442 	.byte	25
00000e46 05             5443 	.byte	5
00000e47 00000000*      5444 	.word	.LDW_3b838b8
00000e4b 0223           5445 	.byte	2,35
00000e4d 12             5446 	.byte	18
00000e4e 01             5447 	.byte	1
                        5448 
                        5449 .LDW_3bab788:
00000e4f 23             5450 	.byte	35
00000e50 6650436c6b5f   5451 	.strz	"fPClk_u16"
00000e56 75313600 
00000e5a b401           5452 	.byte	180,1
00000e5c 19             5453 	.byte	25
00000e5d 05             5454 	.byte	5
00000e5e 00000000*      5455 	.word	.LDW_3b838b8
00000e62 0223           5456 	.byte	2,35
00000e64 14             5457 	.byte	20
00000e65 01             5458 	.byte	1
                        5459 
                        5460 .LDW_3bab7d0:
00000e66 23             5461 	.byte	35
00000e67 626c6b436e74   5462 	.strz	"blkCnt_u16"
00000e6d 5f75313600 
00000e72 b501           5463 	.byte	181,1
00000e74 19             5464 	.byte	25
00000e75 05             5465 	.byte	5
00000e76 00000000*      5466 	.word	.LDW_3b838b8
00000e7a 0223           5467 	.byte	2,35
00000e7c 16             5468 	.byte	22
00000e7d 01             5469 	.byte	1
                        5470 
                        5471 .LDW_3bab818:
00000e7e 23             5472 	.byte	35
00000e7f 6d617453656c   5473 	.strz	"matSel_u16"
00000e85 5f75313600 
00000e8a b601           5474 	.byte	182,1
00000e8c 19             5475 	.byte	25

                                                                      Page 104
                                                              D:\TEMP\gh_00001gs1.s
00000e8d 05             5476 	.byte	5
00000e8e 00000000*      5477 	.word	.LDW_3b838b8
00000e92 0223           5478 	.byte	2,35
00000e94 18             5479 	.byte	24
00000e95 01             5480 	.byte	1
                        5481 
                        5482 .LDW_3bab860:
00000e96 23             5483 	.byte	35
00000e97 646576696365   5484 	.strz	"deviceName"
00000e9d 4e616d6500 
00000ea2 b701           5485 	.byte	183,1
00000ea4 19             5486 	.byte	25
00000ea5 05             5487 	.byte	5
00000ea6 00000000*      5488 	.word	.LDW_3b7f428
00000eaa 0223           5489 	.byte	2,35
00000eac 1a             5490 	.byte	26
00000ead 01             5491 	.byte	1
                        5492 
                        5493 .LDW_3bab8a8:
00000eae 23             5494 	.byte	35
00000eaf 636631426c6b   5495 	.strz	"cf1BlkCnt8kB_u8"
00000eb5 436e74386b42 
00000ebb 5f753800 
00000ebf b801           5496 	.byte	184,1
00000ec1 19             5497 	.byte	25
00000ec2 05             5498 	.byte	5
00000ec3 00000000*      5499 	.word	.LDW_3b83a00
00000ec7 0223           5500 	.byte	2,35
00000ec9 2a             5501 	.byte	42
00000eca 01             5502 	.byte	1
                        5503 
                        5504 .LDW_3bab8f0:
00000ecb 23             5505 	.byte	35
00000ecc 665665727369   5506 	.strz	"fVersion_u8"
00000ed2 6f6e5f753800 
00000ed8 b901           5507 	.byte	185,1
00000eda 19             5508 	.byte	25
00000edb 05             5509 	.byte	5
00000edc 00000000*      5510 	.word	.LDW_3b83a00
00000ee0 0223           5511 	.byte	2,35
00000ee2 2b             5512 	.byte	43
00000ee3 01             5513 	.byte	1
                        5514 
                        5515 .LDW_3bab938:
00000ee4 23             5516 	.byte	35
00000ee5 664469766964   5517 	.strz	"fDivider_u8"
00000eeb 65725f753800 
00000ef1 ba01           5518 	.byte	186,1
00000ef3 19             5519 	.byte	25
00000ef4 05             5520 	.byte	5
00000ef5 00000000*      5521 	.word	.LDW_3b83a00
00000ef9 0223           5522 	.byte	2,35
00000efb 2c             5523 	.byte	44
00000efc 01             5524 	.byte	1
                        5525 
                        5526 .LDW_3bab980:
00000efd 23             5527 	.byte	35
00000efe 656d756c6174   5528 	.strz	"emulationMode_enu"
00000f04 696f6e4d6f64 
00000f0a 655f656e7500 
00000f10 bb01           5529 	.byte	187,1

                                                                      Page 105
                                                              D:\TEMP\gh_00001gs1.s
00000f12 19             5530 	.byte	25
00000f13 05             5531 	.byte	5
00000f14 00000000*      5532 	.word	.LDW_3bdc8c0
00000f18 0223           5533 	.byte	2,35
00000f1a 2d             5534 	.byte	45
00000f1b 01             5535 	.byte	1
                        5536 
                        5537 .LDW_3bab9c8:
00000f1c 23             5538 	.byte	35
00000f1d 656e61626c65   5539 	.strz	"enableLockBits_enu"
00000f23 4c6f636b4269 
00000f29 74735f656e75 
00000f2f 00 
00000f30 bc01           5540 	.byte	188,1
00000f32 19             5541 	.byte	25
00000f33 05             5542 	.byte	5
00000f34 00000000*      5543 	.word	.LDW_3bdc8c0
00000f38 0223           5544 	.byte	2,35
00000f3a 2e             5545 	.byte	46
00000f3b 01             5546 	.byte	1
                        5547 
                        5548 .LDW_3baba10:
00000f3c 23             5549 	.byte	35
00000f3d 616363657373   5550 	.strz	"accessExtendedUserArea_enu"
00000f43 457874656e64 
00000f49 656455736572 
00000f4f 417265615f65 
00000f55 6e7500 
00000f58 bd01           5551 	.byte	189,1
00000f5a 19             5552 	.byte	25
00000f5b 05             5553 	.byte	5
00000f5c 00000000*      5554 	.word	.LDW_3bdc8c0
00000f60 0223           5555 	.byte	2,35
00000f62 2f             5556 	.byte	47
00000f63 01             5557 	.byte	1
                        5558 
00000f64 00             5559 	.byte	0
                        5560 
                        5561 .LDW_3c2a098:
00000f65 28             5562 	.byte	40
00000f66 725f66636c5f   5563 	.strz	"r_fcl_deviceInfo_t"
00000f6c 646576696365 
00000f72 496e666f5f74 
00000f78 00 
00000f79 be01           5564 	.byte	190,1
00000f7b 03             5565 	.byte	3
00000f7c 05             5566 	.byte	5
00000f7d 00000000*      5567 	.word	.LDW_3c2a040
                        5568 
                        5569 .LDW_3c2a0f0:
00000f81 28             5570 	.byte	40
00000f82 725f66636c5f   5571 	.strz	"r_fcl_fctPtr_t"
00000f88 666374507472 
00000f8e 5f7400 
00000f91 c301           5572 	.byte	195,1
00000f93 11             5573 	.byte	17
00000f94 05             5574 	.byte	5
00000f95 00000000*      5575 	.word	.LDW_3bedd98
                        5576 
                        5577 .LDW_3c2a148:
00000f99 40             5578 	.byte	64

                                                                      Page 106
                                                              D:\TEMP\gh_00001gs1.s
00000f9a 525f46434c5f   5579 	.strz	"R_FCL_DATA_T"
00000fa0 444154415f54 
00000fa6 00 
00000fa7 c901           5580 	.byte	201,1
00000fa9 10             5581 	.byte	16
00000faa 05             5582 	.byte	5
00000fab 8001           5583 	.byte	128,1
00000fad 01             5584 	.byte	1
                        5585 
                        5586 .LDW_3baba58:
00000fae 23             5587 	.byte	35
00000faf 52544366675f   5588 	.strz	"RTCfg_pstr"
00000fb5 7073747200 
00000fba cb01           5589 	.byte	203,1
00000fbc 21             5590 	.byte	33
00000fbd 05             5591 	.byte	5
00000fbe 00000000*      5592 	.word	.LDW_3beddd0
00000fc2 0223           5593 	.byte	2,35
00000fc4 00             5594 	.byte	0
00000fc5 01             5595 	.byte	1
                        5596 
                        5597 .LDW_3babaa0:
00000fc6 23             5598 	.byte	35
00000fc7 66636c5f7265   5599 	.strz	"fcl_reqInt_pstr"
00000fcd 71496e745f70 
00000fd3 73747200 
00000fd7 cd01           5600 	.byte	205,1
00000fd9 21             5601 	.byte	33
00000fda 05             5602 	.byte	5
00000fdb 00000000*      5603 	.word	.LDW_3bedd28
00000fdf 0223           5604 	.byte	2,35
00000fe1 04             5605 	.byte	4
00000fe2 01             5606 	.byte	1
                        5607 
                        5608 .LDW_3babae8:
00000fe3 23             5609 	.byte	35
00000fe4 66636c5f6f70   5610 	.strz	"fcl_opVar_str"
00000fea 5661725f7374 
00000ff0 7200 
00000ff2 ce01           5611 	.byte	206,1
00000ff4 21             5612 	.byte	33
00000ff5 05             5613 	.byte	5
00000ff6 00000000*      5614 	.word	.LDW_3c29f38
00000ffa 0223           5615 	.byte	2,35
00000ffc 08             5616 	.byte	8
00000ffd 01             5617 	.byte	1
                        5618 
                        5619 .LDW_3babb30:
00000ffe 23             5620 	.byte	35
00000fff 66636c5f7375   5621 	.strz	"fcl_suspendInfo_str"
00001005 7370656e6449 
0000100b 6e666f5f7374 
00001011 7200 
00001013 cf01           5622 	.byte	207,1
00001015 21             5623 	.byte	33
00001016 05             5624 	.byte	5
00001017 00000000*      5625 	.word	.LDW_3c29fe8
0000101b 0223           5626 	.byte	2,35
0000101d 14             5627 	.byte	20
0000101e 01             5628 	.byte	1
                        5629 

                                                                      Page 107
                                                              D:\TEMP\gh_00001gs1.s
                        5630 .LDW_3babb78:
0000101f 23             5631 	.byte	35
00001020 66636c5f696e   5632 	.strz	"fcl_intStatus_enu"
00001026 745374617475 
0000102c 735f656e7500 
00001032 d001           5633 	.byte	208,1
00001034 21             5634 	.byte	33
00001035 05             5635 	.byte	5
00001036 00000000*      5636 	.word	.LDW_3c29e30
0000103a 0223           5637 	.byte	2,35
0000103c 2c             5638 	.byte	44
0000103d 01             5639 	.byte	1
                        5640 
                        5641 .LDW_3babbc0:
0000103e 23             5642 	.byte	35
0000103f 66636c5f666c   5643 	.strz	"fcl_flashMode_enu"
00001045 6173684d6f64 
0000104b 655f656e7500 
00001051 d101           5644 	.byte	209,1
00001053 21             5645 	.byte	33
00001054 05             5646 	.byte	5
00001055 00000000*      5647 	.word	.LDW_3bdc600
00001059 0223           5648 	.byte	2,35
0000105b 2d             5649 	.byte	45
0000105c 01             5650 	.byte	1
                        5651 
                        5652 .LDW_3babc08:
0000105d 23             5653 	.byte	35
0000105e 66636c5f6465   5654 	.strz	"fcl_deviceInfo_str"
00001064 76696365496e 
0000106a 666f5f737472 
00001070 00 
00001071 d201           5655 	.byte	210,1
00001073 21             5656 	.byte	33
00001074 05             5657 	.byte	5
00001075 00000000*      5658 	.word	.LDW_3c2a098
00001079 0223           5659 	.byte	2,35
0000107b 30             5660 	.byte	48
0000107c 01             5661 	.byte	1
                        5662 
                        5663 .LDW_3babc50:
0000107d 23             5664 	.byte	35
0000107e 66636c5f6578   5665 	.strz	"fcl_executionPtr_p"
00001084 65637574696f 
0000108a 6e5074725f70 
00001090 00 
00001091 d301           5666 	.byte	211,1
00001093 21             5667 	.byte	33
00001094 05             5668 	.byte	5
00001095 00000000*      5669 	.word	.LDW_3c2a0f0
00001099 0223           5670 	.byte	2,35
0000109b 60             5671 	.byte	96
0000109c 01             5672 	.byte	1
                        5673 
                        5674 .LDW_3babc98:
0000109d 23             5675 	.byte	35
0000109e 66636c5f7761   5676 	.strz	"fcl_waitAckModeSwitch"
000010a4 697441636b4d 
000010aa 6f6465537769 
000010b0 74636800 
000010b4 d401           5677 	.byte	212,1

                                                                      Page 108
                                                              D:\TEMP\gh_00001gs1.s
000010b6 21             5678 	.byte	33
000010b7 05             5679 	.byte	5
000010b8 00000000*      5680 	.word	.LDW_3bdc8c0
000010bc 0223           5681 	.byte	2,35
000010be 64             5682 	.byte	100
000010bf 01             5683 	.byte	1
                        5684 
                        5685 .LDW_3babce0:
000010c0 23             5686 	.byte	35
000010c1 66636c5f6361   5687 	.strz	"fcl_cancelReq"
000010c7 6e63656c5265 
000010cd 7100 
000010cf d501           5688 	.byte	213,1
000010d1 21             5689 	.byte	33
000010d2 05             5690 	.byte	5
000010d3 00000000*      5691 	.word	.LDW_3bdc8c0
000010d7 0223           5692 	.byte	2,35
000010d9 65             5693 	.byte	101
000010da 01             5694 	.byte	1
                        5695 
                        5696 .LDW_3babd28:
000010db 23             5697 	.byte	35
000010dc 66636c5f6663   5698 	.strz	"fcl_fcuramAddr_u32"
000010e2 7572616d4164 
000010e8 64725f753332 
000010ee 00 
000010ef d601           5699 	.byte	214,1
000010f1 21             5700 	.byte	33
000010f2 05             5701 	.byte	5
000010f3 00000000*      5702 	.word	.LDW_3b83718
000010f7 0223           5703 	.byte	2,35
000010f9 68             5704 	.byte	104
000010fa 01             5705 	.byte	1
                        5706 
                        5707 .LDW_3c4c760:
000010fb 23             5708 	.byte	35
000010fc 66636c5f6669   5709 	.strz	"fcl_firmAddr_u32"
00001102 726d41646472 
00001108 5f75333200 
0000110d d701           5710 	.byte	215,1
0000110f 21             5711 	.byte	33
00001110 05             5712 	.byte	5
00001111 00000000*      5713 	.word	.LDW_3b83718
00001115 0223           5714 	.byte	2,35
00001117 6c             5715 	.byte	108
00001118 01             5716 	.byte	1
                        5717 
                        5718 .LDW_3c4c7a8:
00001119 23             5719 	.byte	35
0000111a 66636c5f696e   5720 	.strz	"fcl_intBuf"
00001120 7442756600 
00001125 d801           5721 	.byte	216,1
00001127 21             5722 	.byte	33
00001128 05             5723 	.byte	5
00001129 00000000*      5724 	.word	.LDW_3b7f4b0
0000112d 0223           5725 	.byte	2,35
0000112f 70             5726 	.byte	112
00001130 01             5727 	.byte	1
                        5728 
00001131 00             5729 	.byte	0
                        5730 

                                                                      Page 109
                                                              D:\TEMP\gh_00001gs1.s
                        5731 .LDW_3c2a1f8:
00001132 28             5732 	.byte	40
00001133 725f66636c5f   5733 	.strz	"r_fcl_data_t"
00001139 646174615f74 
0000113f 00 
00001140 dc01           5734 	.byte	220,1
00001142 03             5735 	.byte	3
00001143 05             5736 	.byte	5
00001144 00000000*      5737 	.word	.LDW_3c2a148
                        5738 
                        5739 .LDW_3c2a250:
00001148 05             5740 	.byte	5
00001149 675f66636c5f   5741 	.strz	"g_fcl_data_str"
0000114f 646174615f73 
00001155 747200 
00001158 ee01           5742 	.byte	238,1
0000115a 24             5743 	.byte	36
0000115b 05             5744 	.byte	5
0000115c 00000000*      5745 	.word	.LDW_3c2a1f8
00001160 01             5746 	.byte	1
00001161 01             5747 	.byte	1
                        5748 
                        5749 	.section	.debug_abbrev
000000bb 05             5750 	.byte	5
000000bc 34             5751 	.byte	52
000000bd 00             5752 	.byte	0
000000be 0308           5753 	.byte	3,8
000000c0 3b0f           5754 	.byte	59,15
000000c2 390f           5755 	.byte	57,15
000000c4 3a0f           5756 	.byte	58,15
000000c6 4910           5757 	.byte	73,16
000000c8 3f0c           5758 	.byte	63,12
000000ca 3c0c           5759 	.byte	60,12
000000cc 0000           5760 	.byte	0,0
                        5761 
                        5762 	.section	.debug_info
                        5763 .LDW_3bf24e0:
00001162 15             5764 	.byte	21
00001163 525f46434c5f   5765 	.strz	"R_FCL_FCUFct_Switch_BFlash"
00001169 464355466374 
0000116f 5f5377697463 
00001175 685f42466c61 
0000117b 736800 
0000117e 9102           5766 	.byte	145,2
00001180 11             5767 	.byte	17
00001181 05             5768 	.byte	5
00001182 01             5769 	.byte	1
00001183 00             5770 	.byte	0
00001184 01             5771 	.byte	1
00001185 01             5772 	.byte	1
00001186 00             5773 	.byte	0
00001187 01             5774 	.byte	1
                        5775 
                        5776 	.section	.debug_abbrev
000000ce 15             5777 	.byte	21
000000cf 2e             5778 	.byte	46
000000d0 01             5779 	.byte	1
000000d1 0308           5780 	.byte	3,8
000000d3 3b0f           5781 	.byte	59,15
000000d5 390f           5782 	.byte	57,15
000000d7 3a0f           5783 	.byte	58,15

                                                                      Page 110
                                                              D:\TEMP\gh_00001gs1.s
000000d9 3c0c           5784 	.byte	60,12
000000db 200b           5785 	.byte	32,11
000000dd 3f0c           5786 	.byte	63,12
000000df 320b           5787 	.byte	50,11
000000e1 4c0b           5788 	.byte	76,11
000000e3 270c           5789 	.byte	39,12
000000e5 0000           5790 	.byte	0,0
                        5791 
                        5792 	.section	.debug_info
00001188 00             5793 	.byte	0
                        5794 
                        5795 .LDW_3bf2578:
00001189 15             5796 	.byte	21
0000118a 525f46434c5f   5797 	.strz	"R_FCL_FCUFct_Clear_Cache"
00001190 464355466374 
00001196 5f436c656172 
0000119c 5f4361636865 
000011a2 00 
000011a3 9202           5798 	.byte	146,2
000011a5 11             5799 	.byte	17
000011a6 05             5800 	.byte	5
000011a7 01             5801 	.byte	1
000011a8 00             5802 	.byte	0
000011a9 01             5803 	.byte	1
000011aa 01             5804 	.byte	1
000011ab 00             5805 	.byte	0
000011ac 01             5806 	.byte	1
                        5807 
000011ad 00             5808 	.byte	0
                        5809 
                        5810 .LDW_3bf26a8:
000011ae 16             5811 	.byte	22
000011af 525f46434c5f   5812 	.strz	"R_FCL_Fct_Copy_Code"
000011b5 4663745f436f 
000011bb 70795f436f64 
000011c1 6500 
000011c3 9402           5813 	.byte	148,2
000011c5 11             5814 	.byte	17
000011c6 05             5815 	.byte	5
000011c7 00000000*      5816 	.word	.LDW_3b83718
000011cb 01             5817 	.byte	1
000011cc 00             5818 	.byte	0
000011cd 01             5819 	.byte	1
000011ce 01             5820 	.byte	1
000011cf 00             5821 	.byte	0
000011d0 01             5822 	.byte	1
                        5823 
                        5824 	.section	.debug_abbrev
000000e7 16             5825 	.byte	22
000000e8 2e             5826 	.byte	46
000000e9 01             5827 	.byte	1
000000ea 0308           5828 	.byte	3,8
000000ec 3b0f           5829 	.byte	59,15
000000ee 390f           5830 	.byte	57,15
000000f0 3a0f           5831 	.byte	58,15
000000f2 4910           5832 	.byte	73,16
000000f4 3c0c           5833 	.byte	60,12
000000f6 200b           5834 	.byte	32,11
000000f8 3f0c           5835 	.byte	63,12
000000fa 320b           5836 	.byte	50,11
000000fc 4c0b           5837 	.byte	76,11

                                                                      Page 111
                                                              D:\TEMP\gh_00001gs1.s
000000fe 270c           5838 	.byte	39,12
00000100 0000           5839 	.byte	0,0
                        5840 
                        5841 	.section	.debug_info
000011d1 00             5842 	.byte	0
                        5843 
                        5844 .LDW_3b837c8:
000011d2 14             5845 	.byte	20
000011d3 525f46434c5f   5846 	.strz	"R_FCL_I_read_memory_u32"
000011d9 495f72656164 
000011df 5f6d656d6f72 
000011e5 795f75333200 
000011eb 8e01           5847 	.byte	142,1
000011ed 17             5848 	.byte	23
000011ee 01             5849 	.byte	1
000011ef 00000000*      5850 	.word	.LDW_3b83718
000011f3 00000000*      5851 	.word	_R_FCL_I_read_memory_u32..D.3A.5Cusr.5Cusage.5CDelivery.5CCBD17x.5CCBD1700369.5CD04.5Cexternal.5CBSW.5CFlash.5Cbuild.5Cobj.5Cr_fcl_hw_access.
000011f7 00000000*      5852 	.word	___ghs_eofn_R_FCL_I_read_memory_u32
000011fb 0153           5853 	.byte	1,83
000011fd 02             5854 	.byte	2
000011fe 00             5855 	.byte	0
000011ff 02             5856 	.byte	2
00001200 00             5857 	.byte	0
00001201 00             5858 	.byte	0
00001202 00             5859 	.byte	0
00001203 00             5860 	.byte	0
00001204 00             5861 	.byte	0
00001205 01             5862 	.byte	1
00001206 00             5863 	.byte	0
00001207 01             5864 	.byte	1
                        5865 
                        5866 	.section	.debug_abbrev
00000102 14             5867 	.byte	20
00000103 2e             5868 	.byte	46
00000104 01             5869 	.byte	1
00000105 0308           5870 	.byte	3,8
00000107 3b0f           5871 	.byte	59,15
00000109 390f           5872 	.byte	57,15
0000010b 3a0f           5873 	.byte	58,15
0000010d 4910           5874 	.byte	73,16
0000010f 1101           5875 	.byte	17,1
00000111 1201           5876 	.byte	18,1
00000113 400a           5877 	.byte	64,10
00000115 8341           5878 	.byte	131,65
00000117 0f             5879 	.byte	15
00000118 8741           5880 	.byte	135,65
0000011a 0d             5881 	.byte	13
0000011b 8541           5882 	.byte	133,65
0000011d 0f             5883 	.byte	15
0000011e 8641           5884 	.byte	134,65
00000120 0d             5885 	.byte	13
00000121 9241           5886 	.byte	146,65
00000123 0f             5887 	.byte	15
00000124 3c0c           5888 	.byte	60,12
00000126 200b           5889 	.byte	32,11
00000128 3f0c           5890 	.byte	63,12
0000012a 320b           5891 	.byte	50,11
0000012c 4c0b           5892 	.byte	76,11
0000012e 270c           5893 	.byte	39,12
00000130 0000           5894 	.byte	0,0
                        5895 

                                                                      Page 112
                                                              D:\TEMP\gh_00001gs1.s
                        5896 	.section	.debug_frame
                        5897 .LDW_3bef080:
00000090 00000000*      5898 	.word	.LDW_unq_4-.LDW_unq_3
                        5899 .LDW_unq_3:
00000094 00000000*      5900 	.word	.LDW_3c6e800
00000098 00000000*      5901 	.word	_R_FCL_I_read_memory_u32..D.3A.5Cusr.5Cusage.5CDelivery.5CCBD17x.5CCBD1700369.5CD04.5Cexternal.5CBSW.5CFlash.5Cbuild.5Cobj.5Cr_fcl_hw_access.
0000009c 00000000*      5902 	.word	___ghs_eofn_R_FCL_I_read_memory_u32-_R_FCL_I_read_memory_u32..D.3A.5Cusr.5Cusage.5CDelivery.5CCBD17x.5CCBD1700369.5CD04.5Cexternal.5CBSW.5CFlash.5Cbuild.5Cobj.5Cr_fcl_hw_access.
000000a0 01             5903 	.byte	1
000000a1 00000000*      5904 	.word	.LDW11
000000a5 00             5905 	.byte	0
000000a6 00             5906 	.byte	0
000000a7 00             5907 	.byte	0
                        5908 .LDW_unq_4:
                        5909 	.section	.debug_line
00000126 000502         5910 	.byte	0,5,2
00000129 00000000*      5911 	.word	_R_FCL_I_read_memory_u32..D.3A.5Cusr.5Cusage.5CDelivery.5CCBD17x.5CCBD1700369.5CD04.5Cexternal.5CBSW.5CFlash.5Cbuild.5Cobj.5Cr_fcl_hw_access.
0000012d 03             5912 	.byte	3
0000012e 8e01           5913 	.byte	142,1
00000130 02             5914 	.byte	2
00000131 00             5915 	.byte	0
00000132 01             5916 	.byte	1
00000133 06             5917 	.byte	6
00000134 03             5918 	.byte	3
00000135 04             5919 	.byte	4
00000136 02             5920 	.byte	2
00000137 02             5921 	.byte	2
00000138 01             5922 	.byte	1
00000139 06             5923 	.byte	6
0000013a 02             5924 	.byte	2
0000013b 02             5925 	.byte	2
0000013c 02             5926 	.byte	2
0000013d 02             5927 	.byte	2
0000013e 000101         5928 	.byte	0,1,1
                        5929 	.section	.debug_info
                        5930 .LDW_3b83860:
00001208 0f             5931 	.byte	15
00001209 616464725f75   5932 	.strz	"addr_u32"
0000120f 333200 
00001212 8e01           5933 	.byte	142,1
00001214 3f             5934 	.byte	63
00001215 01             5935 	.byte	1
00001216 00000000*      5936 	.word	.LDW_3b83770
0000121a 00             5937 	.byte	0
0000121b 016e           5938 	.byte	1,110
                        5939 
                        5940 	.section	.debug_abbrev
00000132 0f             5941 	.byte	15
00000133 05             5942 	.byte	5
00000134 00             5943 	.byte	0
00000135 0308           5944 	.byte	3,8
00000137 3b0f           5945 	.byte	59,15
00000139 390f           5946 	.byte	57,15
0000013b 3a0f           5947 	.byte	58,15
0000013d 4910           5948 	.byte	73,16
0000013f 4b0c           5949 	.byte	75,12
00000141 020a           5950 	.byte	2,10
00000143 0000           5951 	.byte	0,0
                        5952 
                        5953 	.section	.debug_info
                        5954 .LDW_2f1bc30:
0000121d 1d             5955 	.byte	29

                                                                      Page 113
                                                              D:\TEMP\gh_00001gs1.s
0000121e 00000000*      5956 	.word	.LDW01
00001222 00000000*      5957 	.word	.LDW11
                        5958 
                        5959 	.section	.debug_abbrev
00000145 1d             5960 	.byte	29
00000146 0b             5961 	.byte	11
00000147 01             5962 	.byte	1
00000148 1101           5963 	.byte	17,1
0000014a 1201           5964 	.byte	18,1
0000014c 0000           5965 	.byte	0,0
                        5966 
                        5967 	.section	.debug_info
00001226 00             5968 	.byte	0
                        5969 
00001227 00             5970 	.byte	0
                        5971 
                        5972 .LDW_3b83910:
00001228 14             5973 	.byte	20
00001229 525f46434c5f   5974 	.strz	"R_FCL_I_read_memory_u16"
0000122f 495f72656164 
00001235 5f6d656d6f72 
0000123b 795f75313600 
00001241 ac01           5975 	.byte	172,1
00001243 17             5976 	.byte	23
00001244 01             5977 	.byte	1
00001245 00000000*      5978 	.word	.LDW_3b838b8
00001249 00000000*      5979 	.word	_R_FCL_I_read_memory_u16..D.3A.5Cusr.5Cusage.5CDelivery.5CCBD17x.5CCBD1700369.5CD04.5Cexternal.5CBSW.5CFlash.5Cbuild.5Cobj.5Cr_fcl_hw_access.
0000124d 00000000*      5980 	.word	___ghs_eofn_R_FCL_I_read_memory_u16
00001251 0153           5981 	.byte	1,83
00001253 02             5982 	.byte	2
00001254 00             5983 	.byte	0
00001255 02             5984 	.byte	2
00001256 00             5985 	.byte	0
00001257 00             5986 	.byte	0
00001258 00             5987 	.byte	0
00001259 00             5988 	.byte	0
0000125a 00             5989 	.byte	0
0000125b 01             5990 	.byte	1
0000125c 00             5991 	.byte	0
0000125d 01             5992 	.byte	1
                        5993 
                        5994 	.section	.debug_frame
                        5995 .LDW_3b5ba90:
000000a8 00000000*      5996 	.word	.LDW_unq_6-.LDW_unq_5
                        5997 .LDW_unq_5:
000000ac 00000000*      5998 	.word	.LDW_3c6e800
000000b0 00000000*      5999 	.word	_R_FCL_I_read_memory_u16..D.3A.5Cusr.5Cusage.5CDelivery.5CCBD17x.5CCBD1700369.5CD04.5Cexternal.5CBSW.5CFlash.5Cbuild.5Cobj.5Cr_fcl_hw_access.
000000b4 00000000*      6000 	.word	___ghs_eofn_R_FCL_I_read_memory_u16-_R_FCL_I_read_memory_u16..D.3A.5Cusr.5Cusage.5CDelivery.5CCBD17x.5CCBD1700369.5CD04.5Cexternal.5CBSW.5CFlash.5Cbuild.5Cobj.5Cr_fcl_hw_access.
000000b8 01             6001 	.byte	1
000000b9 00000000*      6002 	.word	.LDW31
000000bd 00             6003 	.byte	0
000000be 00             6004 	.byte	0
000000bf 00             6005 	.byte	0
                        6006 .LDW_unq_6:
                        6007 	.section	.debug_line
00000141 000502         6008 	.byte	0,5,2
00000144 00000000*      6009 	.word	_R_FCL_I_read_memory_u16..D.3A.5Cusr.5Cusage.5CDelivery.5CCBD17x.5CCBD1700369.5CD04.5Cexternal.5CBSW.5CFlash.5Cbuild.5Cobj.5Cr_fcl_hw_access.
00000148 03             6010 	.byte	3
00000149 ac01           6011 	.byte	172,1
0000014b 02             6012 	.byte	2
0000014c 00             6013 	.byte	0

                                                                      Page 114
                                                              D:\TEMP\gh_00001gs1.s
0000014d 01             6014 	.byte	1
0000014e 06             6015 	.byte	6
0000014f 03             6016 	.byte	3
00000150 04             6017 	.byte	4
00000151 02             6018 	.byte	2
00000152 02             6019 	.byte	2
00000153 01             6020 	.byte	1
00000154 06             6021 	.byte	6
00000155 02             6022 	.byte	2
00000156 02             6023 	.byte	2
00000157 02             6024 	.byte	2
00000158 02             6025 	.byte	2
00000159 000101         6026 	.byte	0,1,1
                        6027 	.section	.debug_info
                        6028 .LDW_3b839a8:
0000125e 0f             6029 	.byte	15
0000125f 616464725f75   6030 	.strz	"addr_u32"
00001265 333200 
00001268 ac01           6031 	.byte	172,1
0000126a 3f             6032 	.byte	63
0000126b 01             6033 	.byte	1
0000126c 00000000*      6034 	.word	.LDW_3b83770
00001270 00             6035 	.byte	0
00001271 016e           6036 	.byte	1,110
                        6037 
                        6038 .LDW_2f1bc90:
00001273 1d             6039 	.byte	29
00001274 00000000*      6040 	.word	.LDW21
00001278 00000000*      6041 	.word	.LDW31
                        6042 
0000127c 00             6043 	.byte	0
                        6044 
0000127d 00             6045 	.byte	0
                        6046 
                        6047 .LDW_3b83a58:
0000127e 14             6048 	.byte	20
0000127f 525f46434c5f   6049 	.strz	"R_FCL_I_read_memory_u08"
00001285 495f72656164 
0000128b 5f6d656d6f72 
00001291 795f75303800 
00001297 ca01           6050 	.byte	202,1
00001299 16             6051 	.byte	22
0000129a 01             6052 	.byte	1
0000129b 00000000*      6053 	.word	.LDW_3b83a00
0000129f 00000000*      6054 	.word	_R_FCL_I_read_memory_u08..D.3A.5Cusr.5Cusage.5CDelivery.5CCBD17x.5CCBD1700369.5CD04.5Cexternal.5CBSW.5CFlash.5Cbuild.5Cobj.5Cr_fcl_hw_access.
000012a3 00000000*      6055 	.word	___ghs_eofn_R_FCL_I_read_memory_u08
000012a7 0153           6056 	.byte	1,83
000012a9 02             6057 	.byte	2
000012aa 00             6058 	.byte	0
000012ab 02             6059 	.byte	2
000012ac 00             6060 	.byte	0
000012ad 00             6061 	.byte	0
000012ae 00             6062 	.byte	0
000012af 00             6063 	.byte	0
000012b0 00             6064 	.byte	0
000012b1 01             6065 	.byte	1
000012b2 00             6066 	.byte	0
000012b3 01             6067 	.byte	1
                        6068 
                        6069 	.section	.debug_frame
                        6070 .LDW_3b5bb90:

                                                                      Page 115
                                                              D:\TEMP\gh_00001gs1.s
000000c0 00000000*      6071 	.word	.LDW_unq_8-.LDW_unq_7
                        6072 .LDW_unq_7:
000000c4 00000000*      6073 	.word	.LDW_3c6e800
000000c8 00000000*      6074 	.word	_R_FCL_I_read_memory_u08..D.3A.5Cusr.5Cusage.5CDelivery.5CCBD17x.5CCBD1700369.5CD04.5Cexternal.5CBSW.5CFlash.5Cbuild.5Cobj.5Cr_fcl_hw_access.
000000cc 00000000*      6075 	.word	___ghs_eofn_R_FCL_I_read_memory_u08-_R_FCL_I_read_memory_u08..D.3A.5Cusr.5Cusage.5CDelivery.5CCBD17x.5CCBD1700369.5CD04.5Cexternal.5CBSW.5CFlash.5Cbuild.5Cobj.5Cr_fcl_hw_access.
000000d0 01             6076 	.byte	1
000000d1 00000000*      6077 	.word	.LDW51
000000d5 00             6078 	.byte	0
000000d6 00             6079 	.byte	0
000000d7 00             6080 	.byte	0
                        6081 .LDW_unq_8:
                        6082 	.section	.debug_line
0000015c 000502         6083 	.byte	0,5,2
0000015f 00000000*      6084 	.word	_R_FCL_I_read_memory_u08..D.3A.5Cusr.5Cusage.5CDelivery.5CCBD17x.5CCBD1700369.5CD04.5Cexternal.5CBSW.5CFlash.5Cbuild.5Cobj.5Cr_fcl_hw_access.
00000163 03             6085 	.byte	3
00000164 ca01           6086 	.byte	202,1
00000166 02             6087 	.byte	2
00000167 00             6088 	.byte	0
00000168 01             6089 	.byte	1
00000169 06             6090 	.byte	6
0000016a 03             6091 	.byte	3
0000016b 04             6092 	.byte	4
0000016c 02             6093 	.byte	2
0000016d 02             6094 	.byte	2
0000016e 01             6095 	.byte	1
0000016f 06             6096 	.byte	6
00000170 02             6097 	.byte	2
00000171 02             6098 	.byte	2
00000172 02             6099 	.byte	2
00000173 02             6100 	.byte	2
00000174 000101         6101 	.byte	0,1,1
                        6102 	.section	.debug_info
                        6103 .LDW_3b83af0:
000012b4 0f             6104 	.byte	15
000012b5 616464725f75   6105 	.strz	"addr_u32"
000012bb 333200 
000012be ca01           6106 	.byte	202,1
000012c0 3e             6107 	.byte	62
000012c1 01             6108 	.byte	1
000012c2 00000000*      6109 	.word	.LDW_3b83770
000012c6 00             6110 	.byte	0
000012c7 016e           6111 	.byte	1,110
                        6112 
                        6113 .LDW_2f1bcf0:
000012c9 1d             6114 	.byte	29
000012ca 00000000*      6115 	.word	.LDW41
000012ce 00000000*      6116 	.word	.LDW51
                        6117 
000012d2 00             6118 	.byte	0
                        6119 
000012d3 00             6120 	.byte	0
                        6121 
                        6122 .LDW_3bdada8:
000012d4 13             6123 	.byte	19
000012d5 525f46434c5f   6124 	.strz	"R_FCL_I_write_unaligned_memory_u32"
000012db 495f77726974 
000012e1 655f756e616c 
000012e7 69676e65645f 
000012ed 6d656d6f7279 
000012f3 5f75333200 
000012f8 e901           6125 	.byte	233,1

                                                                      Page 116
                                                              D:\TEMP\gh_00001gs1.s
000012fa 13             6126 	.byte	19
000012fb 01             6127 	.byte	1
000012fc 00000000*      6128 	.word	_R_FCL_I_write_unaligned_memory_u32..D.3A.5Cusr.5Cusage.5CDelivery.5CCBD17x.5CCBD1700369.5CD04.5Cexternal.5CBSW.5CFlash.5Cbuild.5Cobj.5Cr_fcl_hw_access.
00001300 00000000*      6129 	.word	___ghs_eofn_R_FCL_I_write_unaligned_memory_u32
00001304 0153           6130 	.byte	1,83
00001306 828080800b     6131 	.byte	130,128,128,128,11
0000130b 0c             6132 	.byte	12
0000130c 03             6133 	.byte	3
0000130d 0c             6134 	.byte	12
0000130e 00             6135 	.byte	0
0000130f 00             6136 	.byte	0
00001310 00             6137 	.byte	0
00001311 00             6138 	.byte	0
00001312 01             6139 	.byte	1
00001313 00             6140 	.byte	0
00001314 01             6141 	.byte	1
                        6142 
                        6143 	.section	.debug_abbrev
0000014e 13             6144 	.byte	19
0000014f 2e             6145 	.byte	46
00000150 01             6146 	.byte	1
00000151 0308           6147 	.byte	3,8
00000153 3b0f           6148 	.byte	59,15
00000155 390f           6149 	.byte	57,15
00000157 3a0f           6150 	.byte	58,15
00000159 1101           6151 	.byte	17,1
0000015b 1201           6152 	.byte	18,1
0000015d 400a           6153 	.byte	64,10
0000015f 8341           6154 	.byte	131,65
00000161 0f             6155 	.byte	15
00000162 8741           6156 	.byte	135,65
00000164 0d             6157 	.byte	13
00000165 8541           6158 	.byte	133,65
00000167 0f             6159 	.byte	15
00000168 8641           6160 	.byte	134,65
0000016a 0d             6161 	.byte	13
0000016b 9241           6162 	.byte	146,65
0000016d 0f             6163 	.byte	15
0000016e 3c0c           6164 	.byte	60,12
00000170 200b           6165 	.byte	32,11
00000172 3f0c           6166 	.byte	63,12
00000174 320b           6167 	.byte	50,11
00000176 4c0b           6168 	.byte	76,11
00000178 270c           6169 	.byte	39,12
0000017a 0000           6170 	.byte	0,0
                        6171 
                        6172 	.section	.debug_frame
                        6173 .LDW_3b5bd90:
000000d8 00000000*      6174 	.word	.LDW_unq_a-.LDW_unq_9
                        6175 .LDW_unq_9:
000000dc 00000000*      6176 	.word	.LDW_3c6e800
000000e0 00000000*      6177 	.word	_R_FCL_I_write_unaligned_memory_u32..D.3A.5Cusr.5Cusage.5CDelivery.5CCBD17x.5CCBD1700369.5CD04.5Cexternal.5CBSW.5CFlash.5Cbuild.5Cobj.5Cr_fcl_hw_access.
000000e4 00000000*      6178 	.word	___ghs_eofn_R_FCL_I_write_unaligned_memory_u32-_R_FCL_I_write_unaligned_memory_u32..D.3A.5Cusr.5Cusage.5CDelivery.5CCBD17x.5CCBD1700369.5CD04.5Cexternal.5CBSW.5CFlash.5Cbuild.5Cobj.5Cr_fcl_hw_access.
000000e8 44             6179 	.byte	68
000000e9 9f             6180 	.byte	159
000000ea 00             6181 	.byte	0
000000eb 40             6182 	.byte	64
000000ec 9d             6183 	.byte	157
000000ed 04             6184 	.byte	4
000000ee 40             6185 	.byte	64
000000ef 9c             6186 	.byte	156

                                                                      Page 117
                                                              D:\TEMP\gh_00001gs1.s
000000f0 08             6187 	.byte	8
000000f1 01             6188 	.byte	1
000000f2 00000000*      6189 	.word	.LDW91
000000f6 44             6190 	.byte	68
000000f7 df             6191 	.byte	223
000000f8 40             6192 	.byte	64
000000f9 dd             6193 	.byte	221
000000fa 40             6194 	.byte	64
000000fb dc             6195 	.byte	220
                        6196 .LDW_unq_a:
                        6197 	.section	.debug_line
00000177 000502         6198 	.byte	0,5,2
0000017a 00000000*      6199 	.word	_R_FCL_I_write_unaligned_memory_u32..D.3A.5Cusr.5Cusage.5CDelivery.5CCBD17x.5CCBD1700369.5CD04.5Cexternal.5CBSW.5CFlash.5Cbuild.5Cobj.5Cr_fcl_hw_access.
0000017e 03             6200 	.byte	3
0000017f e901           6201 	.byte	233,1
00000181 02             6202 	.byte	2
00000182 00             6203 	.byte	0
00000183 01             6204 	.byte	1
00000184 06             6205 	.byte	6
00000185 2b             6206 	.byte	43
00000186 000502         6207 	.byte	0,5,2
00000189 00000000*      6208 	.word	.LDWlin1
0000018d 0b             6209 	.byte	11
0000018e 000502         6210 	.byte	0,5,2
00000191 00000000*      6211 	.word	.LDWlin2
00000195 0b             6212 	.byte	11
00000196 000502         6213 	.byte	0,5,2
00000199 00000000*      6214 	.word	.LDWlin3
0000019d 0b             6215 	.byte	11
0000019e 000502         6216 	.byte	0,5,2
000001a1 00000000*      6217 	.word	.LDWlin4
000001a5 0b             6218 	.byte	11
000001a6 02             6219 	.byte	2
000001a7 04             6220 	.byte	4
000001a8 000101         6221 	.byte	0,1,1
                        6222 	.section	.debug_info
                        6223 .LDW_3b83b48:
00001315 0f             6224 	.byte	15
00001316 616464725f75   6225 	.strz	"addr_u32"
0000131c 333200 
0000131f e901           6226 	.byte	233,1
00001321 46             6227 	.byte	70
00001322 01             6228 	.byte	1
00001323 00000000*      6229 	.word	.LDW_3b83770
00001327 00             6230 	.byte	0
00001328 016d           6231 	.byte	1,109
                        6232 
                        6233 .LDW_3bdae40:
0000132a 0f             6234 	.byte	15
0000132b 76616c5f7533   6235 	.strz	"val_u32"
00001331 3200 
00001333 e901           6236 	.byte	233,1
00001335 5f             6237 	.byte	95
00001336 01             6238 	.byte	1
00001337 00000000*      6239 	.word	.LDW_3b83770
0000133b 00             6240 	.byte	0
0000133c 016c           6241 	.byte	1,108
                        6242 
                        6243 .LDW_2f1bd80:
0000133e 1d             6244 	.byte	29
0000133f 00000000*      6245 	.word	.LDW81

                                                                      Page 118
                                                              D:\TEMP\gh_00001gs1.s
00001343 00000000*      6246 	.word	.LDW91
                        6247 
00001347 00             6248 	.byte	0
                        6249 
00001348 00             6250 	.byte	0
                        6251 
                        6252 .LDW_3bdb698:
00001349 13             6253 	.byte	19
0000134a 525f46434c5f   6254 	.strz	"R_FCL_I_write_memory_u32"
00001350 495f77726974 
00001356 655f6d656d6f 
0000135c 72795f753332 
00001362 00 
00001363 8702           6255 	.byte	135,2
00001365 13             6256 	.byte	19
00001366 01             6257 	.byte	1
00001367 00000000*      6258 	.word	_R_FCL_I_write_memory_u32..D.3A.5Cusr.5Cusage.5CDelivery.5CCBD17x.5CCBD1700369.5CD04.5Cexternal.5CBSW.5CFlash.5Cbuild.5Cobj.5Cr_fcl_hw_access.
0000136b 00000000*      6259 	.word	___ghs_eofn_R_FCL_I_write_memory_u32
0000136f 0153           6260 	.byte	1,83
00001371 02             6261 	.byte	2
00001372 00             6262 	.byte	0
00001373 02             6263 	.byte	2
00001374 00             6264 	.byte	0
00001375 00             6265 	.byte	0
00001376 00             6266 	.byte	0
00001377 00             6267 	.byte	0
00001378 00             6268 	.byte	0
00001379 01             6269 	.byte	1
0000137a 00             6270 	.byte	0
0000137b 01             6271 	.byte	1
                        6272 
                        6273 	.section	.debug_frame
                        6274 .LDW_3b5be90:
000000fc 00000000*      6275 	.word	.LDW_unq_c-.LDW_unq_b
                        6276 .LDW_unq_b:
00000100 00000000*      6277 	.word	.LDW_3c6e800
00000104 00000000*      6278 	.word	_R_FCL_I_write_memory_u32..D.3A.5Cusr.5Cusage.5CDelivery.5CCBD17x.5CCBD1700369.5CD04.5Cexternal.5CBSW.5CFlash.5Cbuild.5Cobj.5Cr_fcl_hw_access.
00000108 00000000*      6279 	.word	___ghs_eofn_R_FCL_I_write_memory_u32-_R_FCL_I_write_memory_u32..D.3A.5Cusr.5Cusage.5CDelivery.5CCBD17x.5CCBD1700369.5CD04.5Cexternal.5CBSW.5CFlash.5Cbuild.5Cobj.5Cr_fcl_hw_access.
0000010c 01             6280 	.byte	1
0000010d 00000000*      6281 	.word	.LDW12
00000111 00             6282 	.byte	0
00000112 00             6283 	.byte	0
00000113 00             6284 	.byte	0
                        6285 .LDW_unq_c:
                        6286 	.section	.debug_line
000001ab 000502         6287 	.byte	0,5,2
000001ae 00000000*      6288 	.word	_R_FCL_I_write_memory_u32..D.3A.5Cusr.5Cusage.5CDelivery.5CCBD17x.5CCBD1700369.5CD04.5Cexternal.5CBSW.5CFlash.5Cbuild.5Cobj.5Cr_fcl_hw_access.
000001b2 03             6289 	.byte	3
000001b3 8702           6290 	.byte	135,2
000001b5 02             6291 	.byte	2
000001b6 00             6292 	.byte	0
000001b7 01             6293 	.byte	1
000001b8 06             6294 	.byte	6
000001b9 03             6295 	.byte	3
000001ba 04             6296 	.byte	4
000001bb 02             6297 	.byte	2
000001bc 02             6298 	.byte	2
000001bd 01             6299 	.byte	1
000001be 14             6300 	.byte	20
000001bf 02             6301 	.byte	2
000001c0 02             6302 	.byte	2

                                                                      Page 119
                                                              D:\TEMP\gh_00001gs1.s
000001c1 000101         6303 	.byte	0,1,1
                        6304 	.section	.debug_info
                        6305 .LDW_3bdb730:
0000137c 0f             6306 	.byte	15
0000137d 616464725f75   6307 	.strz	"addr_u32"
00001383 333200 
00001386 8702           6308 	.byte	135,2
00001388 3c             6309 	.byte	60
00001389 01             6310 	.byte	1
0000138a 00000000*      6311 	.word	.LDW_3b83770
0000138e 00             6312 	.byte	0
0000138f 016e           6313 	.byte	1,110
                        6314 
                        6315 .LDW_3bdb788:
00001391 0f             6316 	.byte	15
00001392 76616c5f7533   6317 	.strz	"val_u32"
00001398 3200 
0000139a 8702           6318 	.byte	135,2
0000139c 55             6319 	.byte	85
0000139d 01             6320 	.byte	1
0000139e 00000000*      6321 	.word	.LDW_3b83770
000013a2 00             6322 	.byte	0
000013a3 0157           6323 	.byte	1,87
                        6324 
                        6325 .LDW_2f1be10:
000013a5 1d             6326 	.byte	29
000013a6 00000000*      6327 	.word	.LDW02
000013aa 00000000*      6328 	.word	.LDW12
                        6329 
000013ae 00             6330 	.byte	0
                        6331 
000013af 00             6332 	.byte	0
                        6333 
                        6334 .LDW_3bdc040:
000013b0 13             6335 	.byte	19
000013b1 525f46434c5f   6336 	.strz	"R_FCL_I_write_memory_u16"
000013b7 495f77726974 
000013bd 655f6d656d6f 
000013c3 72795f753136 
000013c9 00 
000013ca a602           6337 	.byte	166,2
000013cc 13             6338 	.byte	19
000013cd 01             6339 	.byte	1
000013ce 00000000*      6340 	.word	_R_FCL_I_write_memory_u16..D.3A.5Cusr.5Cusage.5CDelivery.5CCBD17x.5CCBD1700369.5CD04.5Cexternal.5CBSW.5CFlash.5Cbuild.5Cobj.5Cr_fcl_hw_access.
000013d2 00000000*      6341 	.word	___ghs_eofn_R_FCL_I_write_memory_u16
000013d6 0153           6342 	.byte	1,83
000013d8 02             6343 	.byte	2
000013d9 00             6344 	.byte	0
000013da 02             6345 	.byte	2
000013db 00             6346 	.byte	0
000013dc 00             6347 	.byte	0
000013dd 00             6348 	.byte	0
000013de 00             6349 	.byte	0
000013df 00             6350 	.byte	0
000013e0 01             6351 	.byte	1
000013e1 00             6352 	.byte	0
000013e2 01             6353 	.byte	1
                        6354 
                        6355 	.section	.debug_frame
                        6356 .LDW_3b5bf90:
00000114 00000000*      6357 	.word	.LDW_unq_e-.LDW_unq_d

                                                                      Page 120
                                                              D:\TEMP\gh_00001gs1.s
                        6358 .LDW_unq_d:
00000118 00000000*      6359 	.word	.LDW_3c6e800
0000011c 00000000*      6360 	.word	_R_FCL_I_write_memory_u16..D.3A.5Cusr.5Cusage.5CDelivery.5CCBD17x.5CCBD1700369.5CD04.5Cexternal.5CBSW.5CFlash.5Cbuild.5Cobj.5Cr_fcl_hw_access.
00000120 00000000*      6361 	.word	___ghs_eofn_R_FCL_I_write_memory_u16-_R_FCL_I_write_memory_u16..D.3A.5Cusr.5Cusage.5CDelivery.5CCBD17x.5CCBD1700369.5CD04.5Cexternal.5CBSW.5CFlash.5Cbuild.5Cobj.5Cr_fcl_hw_access.
00000124 01             6362 	.byte	1
00000125 00000000*      6363 	.word	.LDW32
00000129 00             6364 	.byte	0
0000012a 00             6365 	.byte	0
0000012b 00             6366 	.byte	0
                        6367 .LDW_unq_e:
                        6368 	.section	.debug_line
000001c4 000502         6369 	.byte	0,5,2
000001c7 00000000*      6370 	.word	_R_FCL_I_write_memory_u16..D.3A.5Cusr.5Cusage.5CDelivery.5CCBD17x.5CCBD1700369.5CD04.5Cexternal.5CBSW.5CFlash.5Cbuild.5Cobj.5Cr_fcl_hw_access.
000001cb 03             6371 	.byte	3
000001cc a602           6372 	.byte	166,2
000001ce 02             6373 	.byte	2
000001cf 00             6374 	.byte	0
000001d0 01             6375 	.byte	1
000001d1 06             6376 	.byte	6
000001d2 03             6377 	.byte	3
000001d3 04             6378 	.byte	4
000001d4 02             6379 	.byte	2
000001d5 02             6380 	.byte	2
000001d6 01             6381 	.byte	1
000001d7 14             6382 	.byte	20
000001d8 02             6383 	.byte	2
000001d9 02             6384 	.byte	2
000001da 000101         6385 	.byte	0,1,1
                        6386 	.section	.debug_info
                        6387 .LDW_3bdc0d8:
000013e3 0f             6388 	.byte	15
000013e4 616464725f75   6389 	.strz	"addr_u32"
000013ea 333200 
000013ed a602           6390 	.byte	166,2
000013ef 3c             6391 	.byte	60
000013f0 01             6392 	.byte	1
000013f1 00000000*      6393 	.word	.LDW_3b83770
000013f5 00             6394 	.byte	0
000013f6 016e           6395 	.byte	1,110
                        6396 
                        6397 .LDW_3bdc130:
000013f8 0f             6398 	.byte	15
000013f9 76616c5f7531   6399 	.strz	"val_u16"
000013ff 3600 
00001401 a602           6400 	.byte	166,2
00001403 55             6401 	.byte	85
00001404 01             6402 	.byte	1
00001405 00000000*      6403 	.word	.LDW_3bdbfe8
00001409 00             6404 	.byte	0
0000140a 0157           6405 	.byte	1,87
                        6406 
                        6407 .LDW_3bdb858:
0000140c 1d             6408 	.byte	29
0000140d 00000000*      6409 	.word	.LDW22
00001411 00000000*      6410 	.word	.LDW32
                        6411 
00001415 00             6412 	.byte	0
                        6413 
00001416 00             6414 	.byte	0
                        6415 
                        6416 .LDW_3bdc1e0:

                                                                      Page 121
                                                              D:\TEMP\gh_00001gs1.s
00001417 13             6417 	.byte	19
00001418 525f46434c5f   6418 	.strz	"R_FCL_I_write_memory_u08"
0000141e 495f77726974 
00001424 655f6d656d6f 
0000142a 72795f753038 
00001430 00 
00001431 c502           6419 	.byte	197,2
00001433 06             6420 	.byte	6
00001434 01             6421 	.byte	1
00001435 00000000*      6422 	.word	_R_FCL_I_write_memory_u08
00001439 00000000*      6423 	.word	___ghs_eofn_R_FCL_I_write_memory_u08
0000143d 0153           6424 	.byte	1,83
0000143f 02             6425 	.byte	2
00001440 00             6426 	.byte	0
00001441 02             6427 	.byte	2
00001442 00             6428 	.byte	0
00001443 00             6429 	.byte	0
00001444 00             6430 	.byte	0
00001445 00             6431 	.byte	0
00001446 01             6432 	.byte	1
00001447 01             6433 	.byte	1
00001448 00             6434 	.byte	0
00001449 01             6435 	.byte	1
                        6436 
                        6437 	.section	.debug_frame
                        6438 .LDW_3b5bc90:
0000012c 00000000*      6439 	.word	.LDW_unq_10-.LDW_unq_f
                        6440 .LDW_unq_f:
00000130 00000000*      6441 	.word	.LDW_3c6e800
00000134 00000000*      6442 	.word	_R_FCL_I_write_memory_u08
00000138 00000000*      6443 	.word	___ghs_eofn_R_FCL_I_write_memory_u08-_R_FCL_I_write_memory_u08
0000013c 01             6444 	.byte	1
0000013d 00000000*      6445 	.word	.LDW71
00000141 00             6446 	.byte	0
00000142 00             6447 	.byte	0
00000143 00             6448 	.byte	0
                        6449 .LDW_unq_10:
                        6450 	.section	.debug_line
000001dd 000502         6451 	.byte	0,5,2
000001e0 00000000*      6452 	.word	_R_FCL_I_write_memory_u08
000001e4 03             6453 	.byte	3
000001e5 c502           6454 	.byte	197,2
000001e7 02             6455 	.byte	2
000001e8 00             6456 	.byte	0
000001e9 01             6457 	.byte	1
000001ea 06             6458 	.byte	6
000001eb 03             6459 	.byte	3
000001ec 04             6460 	.byte	4
000001ed 02             6461 	.byte	2
000001ee 02             6462 	.byte	2
000001ef 01             6463 	.byte	1
000001f0 14             6464 	.byte	20
000001f1 02             6465 	.byte	2
000001f2 02             6466 	.byte	2
000001f3 000101         6467 	.byte	0,1,1
                        6468 	.section	.debug_info
                        6469 .LDW_3bdc290:
0000144a 0f             6470 	.byte	15
0000144b 616464725f75   6471 	.strz	"addr_u32"
00001451 333200 
00001454 c502           6472 	.byte	197,2

                                                                      Page 122
                                                              D:\TEMP\gh_00001gs1.s
00001456 2f             6473 	.byte	47
00001457 01             6474 	.byte	1
00001458 00000000*      6475 	.word	.LDW_3b83770
0000145c 00             6476 	.byte	0
0000145d 016e           6477 	.byte	1,110
                        6478 
                        6479 .LDW_3bdc2e8:
0000145f 0f             6480 	.byte	15
00001460 76616c5f7530   6481 	.strz	"val_u08"
00001466 3800 
00001468 c502           6482 	.byte	197,2
0000146a 47             6483 	.byte	71
0000146b 01             6484 	.byte	1
0000146c 00000000*      6485 	.word	.LDW_3bdc188
00001470 00             6486 	.byte	0
00001471 0157           6487 	.byte	1,87
                        6488 
                        6489 .LDW_3bdb8e8:
00001473 1d             6490 	.byte	29
00001474 00000000*      6491 	.word	.LDW61
00001478 00000000*      6492 	.word	.LDW71
                        6493 
0000147c 00             6494 	.byte	0
                        6495 
0000147d 00             6496 	.byte	0
                        6497 
                        6498 .LDW_3bede80:
0000147e 13             6499 	.byte	19
0000147f 525f46434c5f   6500 	.strz	"R_FCL_Fct_CallFromRAM"
00001485 4663745f4361 
0000148b 6c6c46726f6d 
00001491 52414d00 
00001495 e302           6501 	.byte	227,2
00001497 06             6502 	.byte	6
00001498 01             6503 	.byte	1
00001499 00000000*      6504 	.word	_R_FCL_Fct_CallFromRAM
0000149d 00000000*      6505 	.word	___ghs_eofn_R_FCL_Fct_CallFromRAM
000014a1 0153           6506 	.byte	1,83
000014a3 828080800a     6507 	.byte	130,128,128,128,10
000014a8 08             6508 	.byte	8
000014a9 03             6509 	.byte	3
000014aa 08             6510 	.byte	8
000014ab 00             6511 	.byte	0
000014ac 00             6512 	.byte	0
000014ad 00             6513 	.byte	0
000014ae 01             6514 	.byte	1
000014af 01             6515 	.byte	1
000014b0 00             6516 	.byte	0
000014b1 01             6517 	.byte	1
                        6518 
                        6519 	.section	.debug_frame
                        6520 .LDW_3b5c190:
00000144 00000000*      6521 	.word	.LDW_unq_12-.LDW_unq_11
                        6522 .LDW_unq_11:
00000148 00000000*      6523 	.word	.LDW_3c6e800
0000014c 00000000*      6524 	.word	_R_FCL_Fct_CallFromRAM
00000150 00000000*      6525 	.word	___ghs_eofn_R_FCL_Fct_CallFromRAM-_R_FCL_Fct_CallFromRAM
00000154 44             6526 	.byte	68
00000155 9f             6527 	.byte	159
00000156 00             6528 	.byte	0
00000157 40             6529 	.byte	64

                                                                      Page 123
                                                              D:\TEMP\gh_00001gs1.s
00000158 9d             6530 	.byte	157
00000159 04             6531 	.byte	4
0000015a 01             6532 	.byte	1
0000015b 00000000*      6533 	.word	.LDW72
0000015f 00             6534 	.byte	0
                        6535 .LDW_unq_12:
                        6536 	.section	.debug_line
000001f6 000502         6537 	.byte	0,5,2
000001f9 00000000*      6538 	.word	_R_FCL_Fct_CallFromRAM
000001fd 03             6539 	.byte	3
000001fe e302           6540 	.byte	227,2
00000200 02             6541 	.byte	2
00000201 00             6542 	.byte	0
00000202 01             6543 	.byte	1
00000203 06             6544 	.byte	6
00000204 1b             6545 	.byte	27
00000205 000502         6546 	.byte	0,5,2
00000208 00000000*      6547 	.word	.LDWlin18
0000020c 0b             6548 	.byte	11
0000020d 0b             6549 	.byte	11
0000020e 000502         6550 	.byte	0,5,2
00000211 00000000*      6551 	.word	.LDWlin19
00000215 0b             6552 	.byte	11
00000216 0c             6553 	.byte	12
00000217 0b             6554 	.byte	11
00000218 000502         6555 	.byte	0,5,2
0000021b 00000000*      6556 	.word	.LDWlin20
0000021f 0b             6557 	.byte	11
00000220 02             6558 	.byte	2
00000221 00             6559 	.byte	0
00000222 0b             6560 	.byte	11
00000223 02             6561 	.byte	2
00000224 04             6562 	.byte	4
00000225 000101         6563 	.byte	0,1,1
                        6564 	.section	.debug_info
                        6565 .LDW_3bdb918:
000014b2 1d             6566 	.byte	29
000014b3 00000000*      6567 	.word	.LDW62
000014b7 00000000*      6568 	.word	.LDW72
                        6569 
000014bb 00             6570 	.byte	0
                        6571 
000014bc 00             6572 	.byte	0
                        6573 
                        6574 .LDW_3bef128:
000014bd 14             6575 	.byte	20
000014be 525f46434c5f   6576 	.strz	"R_FCL_FCUFct_VerifyID"
000014c4 464355466374 
000014ca 5f5665726966 
000014d0 79494400 
000014d4 8803           6577 	.byte	136,3
000014d6 1d             6578 	.byte	29
000014d7 01             6579 	.byte	1
000014d8 00000000*      6580 	.word	.LDW_3bdc340
000014dc 00000000*      6581 	.word	_R_FCL_FCUFct_VerifyID..D.3A.5Cusr.5Cusage.5CDelivery.5CCBD17x.5CCBD1700369.5CD04.5Cexternal.5CBSW.5CFlash.5Cbuild.5Cobj.5Cr_fcl_hw_access.
000014e0 00000000*      6582 	.word	___ghs_eofn_R_FCL_FCUFct_VerifyID
000014e4 0153           6583 	.byte	1,83
000014e6 8280808009     6584 	.byte	130,128,128,128,9
000014eb 08             6585 	.byte	8
000014ec 03             6586 	.byte	3
000014ed 08             6587 	.byte	8

                                                                      Page 124
                                                              D:\TEMP\gh_00001gs1.s
000014ee 00             6588 	.byte	0
000014ef 00             6589 	.byte	0
000014f0 00             6590 	.byte	0
000014f1 00             6591 	.byte	0
000014f2 01             6592 	.byte	1
000014f3 00             6593 	.byte	0
000014f4 01             6594 	.byte	1
                        6595 
                        6596 	.section	.debug_frame
                        6597 .LDW_3b5c290:
00000160 00000000*      6598 	.word	.LDW_unq_14-.LDW_unq_13
                        6599 .LDW_unq_13:
00000164 00000000*      6600 	.word	.LDW_3c6e800
00000168 00000000*      6601 	.word	_R_FCL_FCUFct_VerifyID..D.3A.5Cusr.5Cusage.5CDelivery.5CCBD17x.5CCBD1700369.5CD04.5Cexternal.5CBSW.5CFlash.5Cbuild.5Cobj.5Cr_fcl_hw_access.
0000016c 00000000*      6602 	.word	___ghs_eofn_R_FCL_FCUFct_VerifyID-_R_FCL_FCUFct_VerifyID..D.3A.5Cusr.5Cusage.5CDelivery.5CCBD17x.5CCBD1700369.5CD04.5Cexternal.5CBSW.5CFlash.5Cbuild.5Cobj.5Cr_fcl_hw_access.
00000170 44             6603 	.byte	68
00000171 9f             6604 	.byte	159
00000172 00             6605 	.byte	0
00000173 40             6606 	.byte	64
00000174 9c             6607 	.byte	156
00000175 04             6608 	.byte	4
00000176 01             6609 	.byte	1
00000177 00000000*      6610 	.word	.LDW92
0000017b 44             6611 	.byte	68
0000017c df             6612 	.byte	223
0000017d 40             6613 	.byte	64
0000017e dc             6614 	.byte	220
0000017f 00             6615 	.byte	0
                        6616 .LDW_unq_14:
                        6617 	.section	.debug_line
00000228 000502         6618 	.byte	0,5,2
0000022b 00000000*      6619 	.word	_R_FCL_FCUFct_VerifyID..D.3A.5Cusr.5Cusage.5CDelivery.5CCBD17x.5CCBD1700369.5CD04.5Cexternal.5CBSW.5CFlash.5Cbuild.5Cobj.5Cr_fcl_hw_access.
0000022f 03             6620 	.byte	3
00000230 8803           6621 	.byte	136,3
00000232 02             6622 	.byte	2
00000233 00             6623 	.byte	0
00000234 01             6624 	.byte	1
00000235 06             6625 	.byte	6
00000236 03             6626 	.byte	3
00000237 06             6627 	.byte	6
00000238 02             6628 	.byte	2
00000239 04             6629 	.byte	4
0000023a 01             6630 	.byte	1
0000023b 000502         6631 	.byte	0,5,2
0000023e 00000000*      6632 	.word	.LDWlin21
00000242 0b             6633 	.byte	11
00000243 000502         6634 	.byte	0,5,2
00000246 00000000*      6635 	.word	.LDWlin22
0000024a 0b             6636 	.byte	11
0000024b 000502         6637 	.byte	0,5,2
0000024e 00000000*      6638 	.word	.LDWlin23
00000252 0b             6639 	.byte	11
00000253 000502         6640 	.byte	0,5,2
00000256 00000000*      6641 	.word	.LDWlin24
0000025a 0d             6642 	.byte	13
0000025b 000502         6643 	.byte	0,5,2
0000025e 00000000*      6644 	.word	.LDWlin25
00000262 0d             6645 	.byte	13
00000263 000502         6646 	.byte	0,5,2
00000266 00000000*      6647 	.word	.LDWlin26
0000026a 0b             6648 	.byte	11

                                                                      Page 125
                                                              D:\TEMP\gh_00001gs1.s
0000026b 23             6649 	.byte	35
0000026c 0c             6650 	.byte	12
0000026d 02             6651 	.byte	2
0000026e 00             6652 	.byte	0
0000026f 0c             6653 	.byte	12
00000270 02             6654 	.byte	2
00000271 04             6655 	.byte	4
00000272 000101         6656 	.byte	0,1,1
                        6657 	.section	.debug_info
                        6658 .LDW_3bdb948:
000014f5 1d             6659 	.byte	29
000014f6 00000000*      6660 	.word	.LDW82
000014fa 00000000*      6661 	.word	.LDW92
                        6662 
                        6663 .LDW_3bdc398:
000014fe 05             6664 	.byte	5
000014ff 726573756c74   6665 	.strz	"result"
00001505 00 
00001506 8a03           6666 	.byte	138,3
00001508 14             6667 	.byte	20
00001509 01             6668 	.byte	1
0000150a 00000000*      6669 	.word	.LDW_3b83718
0000150e 00             6670 	.byte	0
0000150f 00             6671 	.byte	0
                        6672 
                        6673 .LDW_3bdc3f0:
00001510 04             6674 	.byte	4
00001511 72657400       6675 	.strz	"ret"
00001515 8b03           6676 	.byte	139,3
00001517 14             6677 	.byte	20
00001518 01             6678 	.byte	1
00001519 00000000*      6679 	.word	.LDW_3bdc340
0000151d 00             6680 	.byte	0
0000151e 00             6681 	.byte	0
0000151f 015a           6682 	.byte	1,90
                        6683 
                        6684 	.section	.debug_abbrev
0000017c 04             6685 	.byte	4
0000017d 34             6686 	.byte	52
0000017e 00             6687 	.byte	0
0000017f 0308           6688 	.byte	3,8
00000181 3b0f           6689 	.byte	59,15
00000183 390f           6690 	.byte	57,15
00000185 3a0f           6691 	.byte	58,15
00000187 4910           6692 	.byte	73,16
00000189 3f0c           6693 	.byte	63,12
0000018b 3c0c           6694 	.byte	60,12
0000018d 020a           6695 	.byte	2,10
0000018f 0000           6696 	.byte	0,0
                        6697 
                        6698 	.section	.debug_info
00001521 00             6699 	.byte	0
                        6700 
00001522 00             6701 	.byte	0
                        6702 
                        6703 .LDW_3bef1c0:
00001523 13             6704 	.byte	19
00001524 525f46434c5f   6705 	.strz	"R_FCL_FCUFct_VerifyChecksum"
0000152a 464355466374 
00001530 5f5665726966 
00001536 79436865636b 

                                                                      Page 126
                                                              D:\TEMP\gh_00001gs1.s
0000153c 73756d00 
00001540 b603           6706 	.byte	182,3
00001542 13             6707 	.byte	19
00001543 01             6708 	.byte	1
00001544 00000000*      6709 	.word	_R_FCL_FCUFct_VerifyChecksum..D.3A.5Cusr.5Cusage.5CDelivery.5CCBD17x.5CCBD1700369.5CD04.5Cexternal.5CBSW.5CFlash.5Cbuild.5Cobj.5Cr_fcl_hw_access.
00001548 00000000*      6710 	.word	___ghs_eofn_R_FCL_FCUFct_VerifyChecksum
0000154c 0153           6711 	.byte	1,83
0000154e 828080e00b     6712 	.byte	130,128,128,224,11
00001553 14             6713 	.byte	20
00001554 03             6714 	.byte	3
00001555 14             6715 	.byte	20
00001556 00             6716 	.byte	0
00001557 00             6717 	.byte	0
00001558 00             6718 	.byte	0
00001559 00             6719 	.byte	0
0000155a 01             6720 	.byte	1
0000155b 00             6721 	.byte	0
0000155c 01             6722 	.byte	1
                        6723 
                        6724 	.section	.debug_frame
                        6725 .LDW_3b5c390:
00000180 00000000*      6726 	.word	.LDW_unq_16-.LDW_unq_15
                        6727 .LDW_unq_15:
00000184 00000000*      6728 	.word	.LDW_3c6e800
00000188 00000000*      6729 	.word	_R_FCL_FCUFct_VerifyChecksum..D.3A.5Cusr.5Cusage.5CDelivery.5CCBD17x.5CCBD1700369.5CD04.5Cexternal.5CBSW.5CFlash.5Cbuild.5Cobj.5Cr_fcl_hw_access.
0000018c 00000000*      6730 	.word	___ghs_eofn_R_FCL_FCUFct_VerifyChecksum-_R_FCL_FCUFct_VerifyChecksum..D.3A.5Cusr.5Cusage.5CDelivery.5CCBD17x.5CCBD1700369.5CD04.5Cexternal.5CBSW.5CFlash.5Cbuild.5Cobj.5Cr_fcl_hw_access.
00000190 44             6731 	.byte	68
00000191 9f             6732 	.byte	159
00000192 00             6733 	.byte	0
00000193 40             6734 	.byte	64
00000194 9d             6735 	.byte	157
00000195 04             6736 	.byte	4
00000196 40             6737 	.byte	64
00000197 9c             6738 	.byte	156
00000198 08             6739 	.byte	8
00000199 40             6740 	.byte	64
0000019a 9b             6741 	.byte	155
0000019b 0c             6742 	.byte	12
0000019c 40             6743 	.byte	64
0000019d 9a             6744 	.byte	154
0000019e 10             6745 	.byte	16
0000019f 01             6746 	.byte	1
000001a0 00000000*      6747 	.word	.LDW13
                        6748 .LDW_unq_16:
                        6749 	.section	.debug_line
00000275 000502         6750 	.byte	0,5,2
00000278 00000000*      6751 	.word	_R_FCL_FCUFct_VerifyChecksum..D.3A.5Cusr.5Cusage.5CDelivery.5CCBD17x.5CCBD1700369.5CD04.5Cexternal.5CBSW.5CFlash.5Cbuild.5Cobj.5Cr_fcl_hw_access.
0000027c 03             6752 	.byte	3
0000027d b603           6753 	.byte	182,3
0000027f 02             6754 	.byte	2
00000280 00             6755 	.byte	0
00000281 01             6756 	.byte	1
00000282 06             6757 	.byte	6
00000283 03             6758 	.byte	3
00000284 07             6759 	.byte	7
00000285 02             6760 	.byte	2
00000286 04             6761 	.byte	4
00000287 01             6762 	.byte	1
00000288 000502         6763 	.byte	0,5,2
0000028b 00000000*      6764 	.word	.LDWlin27
0000028f 0d             6765 	.byte	13

                                                                      Page 127
                                                              D:\TEMP\gh_00001gs1.s
00000290 000502         6766 	.byte	0,5,2
00000293 00000000*      6767 	.word	.LDWlin28
00000297 0b             6768 	.byte	11
00000298 000502         6769 	.byte	0,5,2
0000029b 00000000*      6770 	.word	.LDWlin29
0000029f 0c             6771 	.byte	12
000002a0 000502         6772 	.byte	0,5,2
000002a3 00000000*      6773 	.word	.LDWlin30
000002a7 0b             6774 	.byte	11
000002a8 000502         6775 	.byte	0,5,2
000002ab 00000000*      6776 	.word	.LDWlin31
000002af 0d             6777 	.byte	13
000002b0 000502         6778 	.byte	0,5,2
000002b3 00000000*      6779 	.word	.LDWlin32
000002b7 0b             6780 	.byte	11
000002b8 000502         6781 	.byte	0,5,2
000002bb 00000000*      6782 	.word	.LDWlin33
000002bf 03             6783 	.byte	3
000002c0 05             6784 	.byte	5
000002c1 02             6785 	.byte	2
000002c2 00             6786 	.byte	0
000002c3 01             6787 	.byte	1
000002c4 03             6788 	.byte	3
000002c5 7f             6789 	.byte	127
000002c6 02             6790 	.byte	2
000002c7 04             6791 	.byte	4
000002c8 01             6792 	.byte	1
000002c9 2c             6793 	.byte	44
000002ca 000502         6794 	.byte	0,5,2
000002cd 00000000*      6795 	.word	.LDWlin34
000002d1 0c             6796 	.byte	12
000002d2 000502         6797 	.byte	0,5,2
000002d5 00000000*      6798 	.word	.LDWlin35
000002d9 03             6799 	.byte	3
000002da 7e             6800 	.byte	126
000002db 02             6801 	.byte	2
000002dc 00             6802 	.byte	0
000002dd 01             6803 	.byte	1
000002de 000502         6804 	.byte	0,5,2
000002e1 00000000*      6805 	.word	.LDWlin36
000002e5 0d             6806 	.byte	13
000002e6 0d             6807 	.byte	13
000002e7 000502         6808 	.byte	0,5,2
000002ea 00000000*      6809 	.word	.LDWlin37
000002ee 0d             6810 	.byte	13
000002ef 000502         6811 	.byte	0,5,2
000002f2 00000000*      6812 	.word	.LDWlin38
000002f6 0b             6813 	.byte	11
000002f7 0b             6814 	.byte	11
000002f8 1b             6815 	.byte	27
000002f9 000502         6816 	.byte	0,5,2
000002fc 00000000*      6817 	.word	.LDWlin39
00000300 0b             6818 	.byte	11
00000301 0c             6819 	.byte	12
00000302 0b             6820 	.byte	11
00000303 1b             6821 	.byte	27
00000304 02             6822 	.byte	2
00000305 00             6823 	.byte	0
00000306 0b             6824 	.byte	11
00000307 02             6825 	.byte	2
00000308 04             6826 	.byte	4

                                                                      Page 128
                                                              D:\TEMP\gh_00001gs1.s
00000309 000101         6827 	.byte	0,1,1
                        6828 	.section	.debug_info
                        6829 .LDW_3bdb978:
0000155d 1d             6830 	.byte	29
0000155e 00000000*      6831 	.word	.LDW03
00001562 00000000*      6832 	.word	.LDW13
                        6833 
                        6834 .LDW_3bdc448:
00001566 04             6835 	.byte	4
00001567 737461727441   6836 	.strz	"startAddr"
0000156d 64647200 
00001571 b803           6837 	.byte	184,3
00001573 14             6838 	.byte	20
00001574 01             6839 	.byte	1
00001575 00000000*      6840 	.word	.LDW_3b83718
00001579 00             6841 	.byte	0
0000157a 00             6842 	.byte	0
0000157b 016d           6843 	.byte	1,109
                        6844 
                        6845 .LDW_3bdc4a0:
0000157d 04             6846 	.byte	4
0000157e 656e64416464   6847 	.strz	"endAddr"
00001584 7200 
00001586 b903           6848 	.byte	185,3
00001588 14             6849 	.byte	20
00001589 01             6850 	.byte	1
0000158a 00000000*      6851 	.word	.LDW_3b83718
0000158e 00             6852 	.byte	0
0000158f 00             6853 	.byte	0
00001590 016c           6854 	.byte	1,108
                        6855 
                        6856 .LDW_3bdc4f8:
00001592 04             6857 	.byte	4
00001593 63686b53756d   6858 	.strz	"chkSum"
00001599 00 
0000159a ba03           6859 	.byte	186,3
0000159c 14             6860 	.byte	20
0000159d 01             6861 	.byte	1
0000159e 00000000*      6862 	.word	.LDW_3b83718
000015a2 00             6863 	.byte	0
000015a3 00             6864 	.byte	0
000015a4 016b           6865 	.byte	1,107
                        6866 
                        6867 .LDW_3bdc550:
000015a6 04             6868 	.byte	4
000015a7 63686b53756d   6869 	.strz	"chkSumCmp"
000015ad 436d7000 
000015b1 bb03           6870 	.byte	187,3
000015b3 14             6871 	.byte	20
000015b4 01             6872 	.byte	1
000015b5 00000000*      6873 	.word	.LDW_3b83718
000015b9 00             6874 	.byte	0
000015ba 00             6875 	.byte	0
000015bb 016a           6876 	.byte	1,106
                        6877 
000015bd 00             6878 	.byte	0
                        6879 
000015be 00             6880 	.byte	0
                        6881 
                        6882 .LDW_3bef258:
000015bf 13             6883 	.byte	19

                                                                      Page 129
                                                              D:\TEMP\gh_00001gs1.s
000015c0 525f46434c5f   6884 	.strz	"R_FCL_FCUFct_SetFrequency"
000015c6 464355466374 
000015cc 5f5365744672 
000015d2 657175656e63 
000015d8 7900 
000015da f803           6885 	.byte	248,3
000015dc 13             6886 	.byte	19
000015dd 01             6887 	.byte	1
000015de 00000000*      6888 	.word	_R_FCL_FCUFct_SetFrequency..D.3A.5Cusr.5Cusage.5CDelivery.5CCBD17x.5CCBD1700369.5CD04.5Cexternal.5CBSW.5CFlash.5Cbuild.5Cobj.5Cr_fcl_hw_access.
000015e2 00000000*      6889 	.word	___ghs_eofn_R_FCL_FCUFct_SetFrequency
000015e6 0153           6890 	.byte	1,83
000015e8 828080800a     6891 	.byte	130,128,128,128,10
000015ed 08             6892 	.byte	8
000015ee 03             6893 	.byte	3
000015ef 08             6894 	.byte	8
000015f0 00             6895 	.byte	0
000015f1 00             6896 	.byte	0
000015f2 00             6897 	.byte	0
000015f3 00             6898 	.byte	0
000015f4 01             6899 	.byte	1
000015f5 00             6900 	.byte	0
000015f6 01             6901 	.byte	1
                        6902 
                        6903 	.section	.debug_frame
                        6904 .LDW_3b5c490:
000001a4 00000000*      6905 	.word	.LDW_unq_18-.LDW_unq_17
                        6906 .LDW_unq_17:
000001a8 00000000*      6907 	.word	.LDW_3c6e800
000001ac 00000000*      6908 	.word	_R_FCL_FCUFct_SetFrequency..D.3A.5Cusr.5Cusage.5CDelivery.5CCBD17x.5CCBD1700369.5CD04.5Cexternal.5CBSW.5CFlash.5Cbuild.5Cobj.5Cr_fcl_hw_access.
000001b0 00000000*      6909 	.word	___ghs_eofn_R_FCL_FCUFct_SetFrequency-_R_FCL_FCUFct_SetFrequency..D.3A.5Cusr.5Cusage.5CDelivery.5CCBD17x.5CCBD1700369.5CD04.5Cexternal.5CBSW.5CFlash.5Cbuild.5Cobj.5Cr_fcl_hw_access.
000001b4 44             6910 	.byte	68
000001b5 9f             6911 	.byte	159
000001b6 00             6912 	.byte	0
000001b7 40             6913 	.byte	64
000001b8 9d             6914 	.byte	157
000001b9 04             6915 	.byte	4
000001ba 01             6916 	.byte	1
000001bb 00000000*      6917 	.word	.LDW33
000001bf 00             6918 	.byte	0
                        6919 .LDW_unq_18:
                        6920 	.section	.debug_line
0000030c 000502         6921 	.byte	0,5,2
0000030f 00000000*      6922 	.word	_R_FCL_FCUFct_SetFrequency..D.3A.5Cusr.5Cusage.5CDelivery.5CCBD17x.5CCBD1700369.5CD04.5Cexternal.5CBSW.5CFlash.5Cbuild.5Cobj.5Cr_fcl_hw_access.
00000313 03             6923 	.byte	3
00000314 f803           6924 	.byte	248,3
00000316 02             6925 	.byte	2
00000317 00             6926 	.byte	0
00000318 01             6927 	.byte	1
00000319 06             6928 	.byte	6
0000031a 1d             6929 	.byte	29
0000031b 000502         6930 	.byte	0,5,2
0000031e 00000000*      6931 	.word	.LDWlin40
00000322 0b             6932 	.byte	11
00000323 0b             6933 	.byte	11
00000324 1d             6934 	.byte	29
00000325 000502         6935 	.byte	0,5,2
00000328 00000000*      6936 	.word	.LDWlin41
0000032c 03             6937 	.byte	3
0000032d 04             6938 	.byte	4
0000032e 02             6939 	.byte	2
0000032f 00             6940 	.byte	0

                                                                      Page 130
                                                              D:\TEMP\gh_00001gs1.s
00000330 01             6941 	.byte	1
00000331 0c             6942 	.byte	12
00000332 0c             6943 	.byte	12
00000333 000502         6944 	.byte	0,5,2
00000336 00000000*      6945 	.word	.LDWlin42
0000033a 0b             6946 	.byte	11
0000033b 0b             6947 	.byte	11
0000033c 000502         6948 	.byte	0,5,2
0000033f 00000000*      6949 	.word	.LDWlin43
00000343 03             6950 	.byte	3
00000344 78             6951 	.byte	120
00000345 02             6952 	.byte	2
00000346 00             6953 	.byte	0
00000347 01             6954 	.byte	1
00000348 0b             6955 	.byte	11
00000349 000502         6956 	.byte	0,5,2
0000034c 00000000*      6957 	.word	.LDWlin44
00000350 03             6958 	.byte	3
00000351 08             6959 	.byte	8
00000352 02             6960 	.byte	2
00000353 00             6961 	.byte	0
00000354 01             6962 	.byte	1
00000355 0c             6963 	.byte	12
00000356 0b             6964 	.byte	11
00000357 000502         6965 	.byte	0,5,2
0000035a 00000000*      6966 	.word	.LDWlin45
0000035e 0b             6967 	.byte	11
0000035f 0b             6968 	.byte	11
00000360 3c             6969 	.byte	60
00000361 02             6970 	.byte	2
00000362 00             6971 	.byte	0
00000363 0b             6972 	.byte	11
00000364 02             6973 	.byte	2
00000365 00             6974 	.byte	0
00000366 0c             6975 	.byte	12
00000367 000502         6976 	.byte	0,5,2
0000036a 00000000*      6977 	.word	.LDWlin46
0000036e 0b             6978 	.byte	11
0000036f 000502         6979 	.byte	0,5,2
00000372 00000000*      6980 	.word	.LDWlin47
00000376 0b             6981 	.byte	11
00000377 02             6982 	.byte	2
00000378 00             6983 	.byte	0
00000379 0b             6984 	.byte	11
0000037a 0c             6985 	.byte	12
0000037b 0b             6986 	.byte	11
0000037c 23             6987 	.byte	35
0000037d 02             6988 	.byte	2
0000037e 00             6989 	.byte	0
0000037f 0b             6990 	.byte	11
00000380 02             6991 	.byte	2
00000381 04             6992 	.byte	4
00000382 000101         6993 	.byte	0,1,1
                        6994 	.section	.debug_info
                        6995 .LDW_3bdb9a8:
000015f7 1d             6996 	.byte	29
000015f8 00000000*      6997 	.word	.LDW23
000015fc 00000000*      6998 	.word	.LDW33
                        6999 
                        7000 .LDW_3bdc5a8:
00001600 04             7001 	.byte	4

                                                                      Page 131
                                                              D:\TEMP\gh_00001gs1.s
00001601 6666637500     7002 	.strz	"ffcu"
00001606 fa03           7003 	.byte	250,3
00001608 14             7004 	.byte	20
00001609 01             7005 	.byte	1
0000160a 00000000*      7006 	.word	.LDW_3b838b8
0000160e 00             7007 	.byte	0
0000160f 00             7008 	.byte	0
00001610 0162           7009 	.byte	1,98
                        7010 
00001612 00             7011 	.byte	0
                        7012 
00001613 00             7013 	.byte	0
                        7014 
                        7015 .LDW_3bef340:
00001614 14             7016 	.byte	20
00001615 525f46434c5f   7017 	.strz	"R_FCL_FCUFct_SwitchMode_Start"
0000161b 464355466374 
00001621 5f5377697463 
00001627 684d6f64655f 
0000162d 537461727400 
00001633 b604           7018 	.byte	182,4
00001635 10             7019 	.byte	16
00001636 01             7020 	.byte	1
00001637 00000000*      7021 	.word	.LDW_3bdc340
0000163b 00000000*      7022 	.word	_R_FCL_FCUFct_SwitchMode_Start
0000163f 00000000*      7023 	.word	___ghs_eofn_R_FCL_FCUFct_SwitchMode_Start
00001643 0153           7024 	.byte	1,83
00001645 828080c00b     7025 	.byte	130,128,128,192,11
0000164a 10             7026 	.byte	16
0000164b 03             7027 	.byte	3
0000164c 10             7028 	.byte	16
0000164d 00             7029 	.byte	0
0000164e 00             7030 	.byte	0
0000164f 00             7031 	.byte	0
00001650 01             7032 	.byte	1
00001651 01             7033 	.byte	1
00001652 00             7034 	.byte	0
00001653 01             7035 	.byte	1
                        7036 
                        7037 	.section	.debug_frame
                        7038 .LDW_3b5c690:
000001c0 00000000*      7039 	.word	.LDW_unq_1a-.LDW_unq_19
                        7040 .LDW_unq_19:
000001c4 00000000*      7041 	.word	.LDW_3c6e800
000001c8 00000000*      7042 	.word	_R_FCL_FCUFct_SwitchMode_Start
000001cc 00000000*      7043 	.word	___ghs_eofn_R_FCL_FCUFct_SwitchMode_Start-_R_FCL_FCUFct_SwitchMode_Start
000001d0 44             7044 	.byte	68
000001d1 9f             7045 	.byte	159
000001d2 00             7046 	.byte	0
000001d3 40             7047 	.byte	64
000001d4 9d             7048 	.byte	157
000001d5 04             7049 	.byte	4
000001d6 40             7050 	.byte	64
000001d7 9c             7051 	.byte	156
000001d8 08             7052 	.byte	8
000001d9 40             7053 	.byte	64
000001da 9b             7054 	.byte	155
000001db 0c             7055 	.byte	12
000001dc 01             7056 	.byte	1
000001dd 00000000*      7057 	.word	.LDW73
000001e1 00             7058 	.byte	0

                                                                      Page 132
                                                              D:\TEMP\gh_00001gs1.s
000001e2 00             7059 	.byte	0
000001e3 00             7060 	.byte	0
                        7061 .LDW_unq_1a:
                        7062 	.section	.debug_line
00000385 000502         7063 	.byte	0,5,2
00000388 00000000*      7064 	.word	_R_FCL_FCUFct_SwitchMode_Start
0000038c 03             7065 	.byte	3
0000038d b604           7066 	.byte	182,4
0000038f 02             7067 	.byte	2
00000390 00             7068 	.byte	0
00000391 01             7069 	.byte	1
00000392 06             7070 	.byte	6
00000393 03             7071 	.byte	3
00000394 07             7072 	.byte	7
00000395 02             7073 	.byte	2
00000396 04             7074 	.byte	4
00000397 01             7075 	.byte	1
00000398 000502         7076 	.byte	0,5,2
0000039b 00000000*      7077 	.word	.LDWlin54
0000039f 0b             7078 	.byte	11
000003a0 0b             7079 	.byte	11
000003a1 000502         7080 	.byte	0,5,2
000003a4 00000000*      7081 	.word	.LDWlin55
000003a8 0c             7082 	.byte	12
000003a9 000502         7083 	.byte	0,5,2
000003ac 00000000*      7084 	.word	.LDWlin56
000003b0 0d             7085 	.byte	13
000003b1 0b             7086 	.byte	11
000003b2 06             7087 	.byte	6
000003b3 000502         7088 	.byte	0,5,2
000003b6 00000000*      7089 	.word	.LDWlin57
000003ba 03             7090 	.byte	3
000003bb 09             7091 	.byte	9
000003bc 02             7092 	.byte	2
000003bd 00             7093 	.byte	0
000003be 01             7094 	.byte	1
000003bf 06             7095 	.byte	6
000003c0 0d             7096 	.byte	13
000003c1 0c             7097 	.byte	12
000003c2 000502         7098 	.byte	0,5,2
000003c5 00000000*      7099 	.word	.LDWlin58
000003c9 03             7100 	.byte	3
000003ca 73             7101 	.byte	115
000003cb 02             7102 	.byte	2
000003cc 00             7103 	.byte	0
000003cd 01             7104 	.byte	1
000003ce 02             7105 	.byte	2
000003cf 00             7106 	.byte	0
000003d0 0b             7107 	.byte	11
000003d1 0c             7108 	.byte	12
000003d2 0b             7109 	.byte	11
000003d3 000502         7110 	.byte	0,5,2
000003d6 00000000*      7111 	.word	.LDWlin59
000003da 0b             7112 	.byte	11
000003db 000502         7113 	.byte	0,5,2
000003de 00000000*      7114 	.word	.LDWlin60
000003e2 03             7115 	.byte	3
000003e3 04             7116 	.byte	4
000003e4 02             7117 	.byte	2
000003e5 00             7118 	.byte	0
000003e6 01             7119 	.byte	1

                                                                      Page 133
                                                              D:\TEMP\gh_00001gs1.s
000003e7 0b             7120 	.byte	11
000003e8 02             7121 	.byte	2
000003e9 00             7122 	.byte	0
000003ea 000502         7123 	.byte	0,5,2
000003ed 00000000*      7124 	.word	.LDWlin61
000003f1 03             7125 	.byte	3
000003f2 04             7126 	.byte	4
000003f3 02             7127 	.byte	2
000003f4 00             7128 	.byte	0
000003f5 01             7129 	.byte	1
000003f6 0c             7130 	.byte	12
000003f7 0c             7131 	.byte	12
000003f8 000502         7132 	.byte	0,5,2
000003fb 00000000*      7133 	.word	.LDWlin62
000003ff 0b             7134 	.byte	11
00000400 000502         7135 	.byte	0,5,2
00000403 00000000*      7136 	.word	.LDWlin63
00000407 0b             7137 	.byte	11
00000408 02             7138 	.byte	2
00000409 00             7139 	.byte	0
0000040a 02             7140 	.byte	2
0000040b 00             7141 	.byte	0
0000040c 02             7142 	.byte	2
0000040d 00             7143 	.byte	0
0000040e 0b             7144 	.byte	11
0000040f 02             7145 	.byte	2
00000410 00             7146 	.byte	0
00000411 0c             7147 	.byte	12
00000412 0b             7148 	.byte	11
00000413 0b             7149 	.byte	11
00000414 000502         7150 	.byte	0,5,2
00000417 00000000*      7151 	.word	.LDWlin64
0000041b 0b             7152 	.byte	11
0000041c 2b             7153 	.byte	43
0000041d 02             7154 	.byte	2
0000041e 00             7155 	.byte	0
0000041f 0c             7156 	.byte	12
00000420 06             7157 	.byte	6
00000421 02             7158 	.byte	2
00000422 02             7159 	.byte	2
00000423 02             7160 	.byte	2
00000424 04             7161 	.byte	4
00000425 000101         7162 	.byte	0,1,1
                        7163 	.section	.debug_info
                        7164 .LDW_3bdc658:
00001654 0f             7165 	.byte	15
00001655 6d6f64655f65   7166 	.strz	"mode_enu"
0000165b 6e7500 
0000165e b604           7167 	.byte	182,4
00001660 3c             7168 	.byte	60
00001661 01             7169 	.byte	1
00001662 00000000*      7170 	.word	.LDW_3bdc600
00001666 00             7171 	.byte	0
00001667 016c           7172 	.byte	1,108
                        7173 
                        7174 .LDW_3bdba08:
00001669 1d             7175 	.byte	29
0000166a 00000000*      7176 	.word	.LDW63
0000166e 00000000*      7177 	.word	.LDW73
                        7178 
                        7179 .LDW_3bdc6b0:

                                                                      Page 134
                                                              D:\TEMP\gh_00001gs1.s
00001672 04             7180 	.byte	4
00001673 72657400       7181 	.strz	"ret"
00001677 b804           7182 	.byte	184,4
00001679 14             7183 	.byte	20
0000167a 01             7184 	.byte	1
0000167b 00000000*      7185 	.word	.LDW_3bdc340
0000167f 00             7186 	.byte	0
00001680 00             7187 	.byte	0
00001681 016b           7188 	.byte	1,107
                        7189 
                        7190 .LDW_3bdc708:
00001683 05             7191 	.byte	5
00001684 726567465354   7192 	.strz	"regFSTATR"
0000168a 41545200 
0000168e b904           7193 	.byte	185,4
00001690 14             7194 	.byte	20
00001691 01             7195 	.byte	1
00001692 00000000*      7196 	.word	.LDW_3b83718
00001696 00             7197 	.byte	0
00001697 00             7198 	.byte	0
                        7199 
                        7200 .LDW_3bdc760:
00001698 04             7201 	.byte	4
00001699 72656746454e   7202 	.strz	"regFENTRYR"
0000169f 5452595200 
000016a4 ba04           7203 	.byte	186,4
000016a6 14             7204 	.byte	20
000016a7 01             7205 	.byte	1
000016a8 00000000*      7206 	.word	.LDW_3b838b8
000016ac 00             7207 	.byte	0
000016ad 00             7208 	.byte	0
000016ae 015a           7209 	.byte	1,90
                        7210 
000016b0 00             7211 	.byte	0
                        7212 
000016b1 00             7213 	.byte	0
                        7214 
                        7215 .LDW_3bef3d8:
000016b2 14             7216 	.byte	20
000016b3 525f46434c5f   7217 	.strz	"R_FCL_FCUFct_SwitchMode_Check"
000016b9 464355466374 
000016bf 5f5377697463 
000016c5 684d6f64655f 
000016cb 436865636b00 
000016d1 fd04           7218 	.byte	253,4
000016d3 1d             7219 	.byte	29
000016d4 01             7220 	.byte	1
000016d5 00000000*      7221 	.word	.LDW_3bdc340
000016d9 00000000*      7222 	.word	_R_FCL_FCUFct_SwitchMode_Check..D.3A.5Cusr.5Cusage.5CDelivery.5CCBD17x.5CCBD1700369.5CD04.5Cexternal.5CBSW.5CFlash.5Cbuild.5Cobj.5Cr_fcl_hw_access.
000016dd 00000000*      7223 	.word	___ghs_eofn_R_FCL_FCUFct_SwitchMode_Check
000016e1 0153           7224 	.byte	1,83
000016e3 8280808008     7225 	.byte	130,128,128,128,8
000016e8 04             7226 	.byte	4
000016e9 03             7227 	.byte	3
000016ea 04             7228 	.byte	4
000016eb 00             7229 	.byte	0
000016ec 00             7230 	.byte	0
000016ed 00             7231 	.byte	0
000016ee 00             7232 	.byte	0
000016ef 01             7233 	.byte	1
000016f0 00             7234 	.byte	0

                                                                      Page 135
                                                              D:\TEMP\gh_00001gs1.s
000016f1 01             7235 	.byte	1
                        7236 
                        7237 	.section	.debug_frame
                        7238 .LDW_3b5c790:
000001e4 00000000*      7239 	.word	.LDW_unq_1c-.LDW_unq_1b
                        7240 .LDW_unq_1b:
000001e8 00000000*      7241 	.word	.LDW_3c6e800
000001ec 00000000*      7242 	.word	_R_FCL_FCUFct_SwitchMode_Check..D.3A.5Cusr.5Cusage.5CDelivery.5CCBD17x.5CCBD1700369.5CD04.5Cexternal.5CBSW.5CFlash.5Cbuild.5Cobj.5Cr_fcl_hw_access.
000001f0 00000000*      7243 	.word	___ghs_eofn_R_FCL_FCUFct_SwitchMode_Check-_R_FCL_FCUFct_SwitchMode_Check..D.3A.5Cusr.5Cusage.5CDelivery.5CCBD17x.5CCBD1700369.5CD04.5Cexternal.5CBSW.5CFlash.5Cbuild.5Cobj.5Cr_fcl_hw_access.
000001f4 44             7244 	.byte	68
000001f5 9f             7245 	.byte	159
000001f6 00             7246 	.byte	0
000001f7 01             7247 	.byte	1
000001f8 00000000*      7248 	.word	.LDW93
000001fc 44             7249 	.byte	68
000001fd df             7250 	.byte	223
000001fe 00             7251 	.byte	0
000001ff 00             7252 	.byte	0
                        7253 .LDW_unq_1c:
                        7254 	.section	.debug_line
00000428 000502         7255 	.byte	0,5,2
0000042b 00000000*      7256 	.word	_R_FCL_FCUFct_SwitchMode_Check..D.3A.5Cusr.5Cusage.5CDelivery.5CCBD17x.5CCBD1700369.5CD04.5Cexternal.5CBSW.5CFlash.5Cbuild.5Cobj.5Cr_fcl_hw_access.
0000042f 03             7257 	.byte	3
00000430 fd04           7258 	.byte	253,4
00000432 02             7259 	.byte	2
00000433 00             7260 	.byte	0
00000434 01             7261 	.byte	1
00000435 06             7262 	.byte	6
00000436 03             7263 	.byte	3
00000437 06             7264 	.byte	6
00000438 02             7265 	.byte	2
00000439 04             7266 	.byte	4
0000043a 01             7267 	.byte	1
0000043b 000502         7268 	.byte	0,5,2
0000043e 00000000*      7269 	.word	.LDWlin65
00000442 0c             7270 	.byte	12
00000443 53             7271 	.byte	83
00000444 0c             7272 	.byte	12
00000445 02             7273 	.byte	2
00000446 00             7274 	.byte	0
00000447 0c             7275 	.byte	12
00000448 02             7276 	.byte	2
00000449 04             7277 	.byte	4
0000044a 000101         7278 	.byte	0,1,1
                        7279 	.section	.debug_info
                        7280 .LDW_3bdba38:
000016f2 1d             7281 	.byte	29
000016f3 00000000*      7282 	.word	.LDW83
000016f7 00000000*      7283 	.word	.LDW93
                        7284 
                        7285 .LDW_3bdc7b8:
000016fb 04             7286 	.byte	4
000016fc 72657400       7287 	.strz	"ret"
00001700 ff04           7288 	.byte	255,4
00001702 14             7289 	.byte	20
00001703 01             7290 	.byte	1
00001704 00000000*      7291 	.word	.LDW_3bdc340
00001708 00             7292 	.byte	0
00001709 00             7293 	.byte	0
0000170a 015a           7294 	.byte	1,90
                        7295 

                                                                      Page 136
                                                              D:\TEMP\gh_00001gs1.s
                        7296 .LDW_3bdc810:
0000170c 04             7297 	.byte	4
0000170d 72656746454e   7298 	.strz	"regFENTRYR"
00001713 5452595200 
00001718 8005           7299 	.byte	128,5
0000171a 14             7300 	.byte	20
0000171b 01             7301 	.byte	1
0000171c 00000000*      7302 	.word	.LDW_3b838b8
00001720 00             7303 	.byte	0
00001721 00             7304 	.byte	0
00001722 0162           7305 	.byte	1,98
                        7306 
00001724 00             7307 	.byte	0
                        7308 
00001725 00             7309 	.byte	0
                        7310 
                        7311 .LDW_3bef470:
00001726 13             7312 	.byte	19
00001727 525f46434c5f   7313 	.strz	"R_FCL_FCUFct_ForcedStop"
0000172d 464355466374 
00001733 5f466f726365 
00001739 6453746f7000 
0000173f a305           7314 	.byte	163,5
00001741 13             7315 	.byte	19
00001742 01             7316 	.byte	1
00001743 00000000*      7317 	.word	_R_FCL_FCUFct_ForcedStop..D.3A.5Cusr.5Cusage.5CDelivery.5CCBD17x.5CCBD1700369.5CD04.5Cexternal.5CBSW.5CFlash.5Cbuild.5Cobj.5Cr_fcl_hw_access.
00001747 00000000*      7318 	.word	___ghs_eofn_R_FCL_FCUFct_ForcedStop
0000174b 0153           7319 	.byte	1,83
0000174d 8280808008     7320 	.byte	130,128,128,128,8
00001752 04             7321 	.byte	4
00001753 03             7322 	.byte	3
00001754 04             7323 	.byte	4
00001755 00             7324 	.byte	0
00001756 00             7325 	.byte	0
00001757 00             7326 	.byte	0
00001758 00             7327 	.byte	0
00001759 01             7328 	.byte	1
0000175a 00             7329 	.byte	0
0000175b 01             7330 	.byte	1
                        7331 
                        7332 	.section	.debug_frame
                        7333 .LDW_3b5c890:
00000200 00000000*      7334 	.word	.LDW_unq_1e-.LDW_unq_1d
                        7335 .LDW_unq_1d:
00000204 00000000*      7336 	.word	.LDW_3c6e800
00000208 00000000*      7337 	.word	_R_FCL_FCUFct_ForcedStop..D.3A.5Cusr.5Cusage.5CDelivery.5CCBD17x.5CCBD1700369.5CD04.5Cexternal.5CBSW.5CFlash.5Cbuild.5Cobj.5Cr_fcl_hw_access.
0000020c 00000000*      7338 	.word	___ghs_eofn_R_FCL_FCUFct_ForcedStop-_R_FCL_FCUFct_ForcedStop..D.3A.5Cusr.5Cusage.5CDelivery.5CCBD17x.5CCBD1700369.5CD04.5Cexternal.5CBSW.5CFlash.5Cbuild.5Cobj.5Cr_fcl_hw_access.
00000210 44             7339 	.byte	68
00000211 9f             7340 	.byte	159
00000212 00             7341 	.byte	0
00000213 01             7342 	.byte	1
00000214 00000000*      7343 	.word	.LDW14
                        7344 .LDW_unq_1e:
                        7345 	.section	.debug_line
0000044d 000502         7346 	.byte	0,5,2
00000450 00000000*      7347 	.word	_R_FCL_FCUFct_ForcedStop..D.3A.5Cusr.5Cusage.5CDelivery.5CCBD17x.5CCBD1700369.5CD04.5Cexternal.5CBSW.5CFlash.5Cbuild.5Cobj.5Cr_fcl_hw_access.
00000454 03             7348 	.byte	3
00000455 a305           7349 	.byte	163,5
00000457 02             7350 	.byte	2
00000458 00             7351 	.byte	0
00000459 01             7352 	.byte	1

                                                                      Page 137
                                                              D:\TEMP\gh_00001gs1.s
0000045a 06             7353 	.byte	6
0000045b 1d             7354 	.byte	29
0000045c 000502         7355 	.byte	0,5,2
0000045f 00000000*      7356 	.word	.LDWlin66
00000463 0b             7357 	.byte	11
00000464 0c             7358 	.byte	12
00000465 000502         7359 	.byte	0,5,2
00000468 00000000*      7360 	.word	.LDWlin67
0000046c 0c             7361 	.byte	12
0000046d 000502         7362 	.byte	0,5,2
00000470 00000000*      7363 	.word	.LDWlin68
00000474 03             7364 	.byte	3
00000475 7f             7365 	.byte	127
00000476 02             7366 	.byte	2
00000477 00             7367 	.byte	0
00000478 01             7368 	.byte	1
00000479 0c             7369 	.byte	12
0000047a 02             7370 	.byte	2
0000047b 04             7371 	.byte	4
0000047c 000101         7372 	.byte	0,1,1
                        7373 	.section	.debug_info
                        7374 .LDW_3bdba68:
0000175c 1d             7375 	.byte	29
0000175d 00000000*      7376 	.word	.LDW04
00001761 00000000*      7377 	.word	.LDW14
                        7378 
                        7379 .LDW_3bdc868:
00001765 05             7380 	.byte	5
00001766 726567465354   7381 	.strz	"regFSTATR"
0000176c 41545200 
00001770 a505           7382 	.byte	165,5
00001772 0e             7383 	.byte	14
00001773 01             7384 	.byte	1
00001774 00000000*      7385 	.word	.LDW_3b83718
00001778 00             7386 	.byte	0
00001779 00             7387 	.byte	0
                        7388 
0000177a 00             7389 	.byte	0
                        7390 
0000177b 00             7391 	.byte	0
                        7392 
                        7393 .LDW_3bef558:
0000177c 14             7394 	.byte	20
0000177d 525f46434c5f   7395 	.strz	"R_FCL_FCUFct_ChkSuspended"
00001783 464355466374 
00001789 5f43686b5375 
0000178f 7370656e6465 
00001795 6400 
00001797 c505           7396 	.byte	197,5
00001799 1b             7397 	.byte	27
0000179a 01             7398 	.byte	1
0000179b 00000000*      7399 	.word	.LDW_3bdc8c0
0000179f 00000000*      7400 	.word	_R_FCL_FCUFct_ChkSuspended..D.3A.5Cusr.5Cusage.5CDelivery.5CCBD17x.5CCBD1700369.5CD04.5Cexternal.5CBSW.5CFlash.5Cbuild.5Cobj.5Cr_fcl_hw_access.
000017a3 00000000*      7401 	.word	___ghs_eofn_R_FCL_FCUFct_ChkSuspended
000017a7 0153           7402 	.byte	1,83
000017a9 828080800a     7403 	.byte	130,128,128,128,10
000017ae 08             7404 	.byte	8
000017af 03             7405 	.byte	3
000017b0 08             7406 	.byte	8
000017b1 00             7407 	.byte	0
000017b2 00             7408 	.byte	0

                                                                      Page 138
                                                              D:\TEMP\gh_00001gs1.s
000017b3 00             7409 	.byte	0
000017b4 00             7410 	.byte	0
000017b5 01             7411 	.byte	1
000017b6 00             7412 	.byte	0
000017b7 01             7413 	.byte	1
                        7414 
                        7415 	.section	.debug_frame
                        7416 .LDW_3b5c990:
00000218 00000000*      7417 	.word	.LDW_unq_20-.LDW_unq_1f
                        7418 .LDW_unq_1f:
0000021c 00000000*      7419 	.word	.LDW_3c6e800
00000220 00000000*      7420 	.word	_R_FCL_FCUFct_ChkSuspended..D.3A.5Cusr.5Cusage.5CDelivery.5CCBD17x.5CCBD1700369.5CD04.5Cexternal.5CBSW.5CFlash.5Cbuild.5Cobj.5Cr_fcl_hw_access.
00000224 00000000*      7421 	.word	___ghs_eofn_R_FCL_FCUFct_ChkSuspended-_R_FCL_FCUFct_ChkSuspended..D.3A.5Cusr.5Cusage.5CDelivery.5CCBD17x.5CCBD1700369.5CD04.5Cexternal.5CBSW.5CFlash.5Cbuild.5Cobj.5Cr_fcl_hw_access.
00000228 44             7422 	.byte	68
00000229 9f             7423 	.byte	159
0000022a 00             7424 	.byte	0
0000022b 40             7425 	.byte	64
0000022c 9d             7426 	.byte	157
0000022d 04             7427 	.byte	4
0000022e 01             7428 	.byte	1
0000022f 00000000*      7429 	.word	.LDW34
00000233 00             7430 	.byte	0
                        7431 .LDW_unq_20:
                        7432 	.section	.debug_line
0000047f 000502         7433 	.byte	0,5,2
00000482 00000000*      7434 	.word	_R_FCL_FCUFct_ChkSuspended..D.3A.5Cusr.5Cusage.5CDelivery.5CCBD17x.5CCBD1700369.5CD04.5Cexternal.5CBSW.5CFlash.5Cbuild.5Cobj.5Cr_fcl_hw_access.
00000486 03             7435 	.byte	3
00000487 c505           7436 	.byte	197,5
00000489 02             7437 	.byte	2
0000048a 00             7438 	.byte	0
0000048b 01             7439 	.byte	1
0000048c 06             7440 	.byte	6
0000048d 03             7441 	.byte	3
0000048e 06             7442 	.byte	6
0000048f 02             7443 	.byte	2
00000490 04             7444 	.byte	4
00000491 01             7445 	.byte	1
00000492 000502         7446 	.byte	0,5,2
00000495 00000000*      7447 	.word	.LDWlin69
00000499 0b             7448 	.byte	11
0000049a 000502         7449 	.byte	0,5,2
0000049d 00000000*      7450 	.word	.LDWlin70
000004a1 0c             7451 	.byte	12
000004a2 0b             7452 	.byte	11
000004a3 13             7453 	.byte	19
000004a4 02             7454 	.byte	2
000004a5 00             7455 	.byte	0
000004a6 0c             7456 	.byte	12
000004a7 06             7457 	.byte	6
000004a8 02             7458 	.byte	2
000004a9 02             7459 	.byte	2
000004aa 02             7460 	.byte	2
000004ab 04             7461 	.byte	4
000004ac 000101         7462 	.byte	0,1,1
                        7463 	.section	.debug_info
                        7464 .LDW_3bdba98:
000017b8 1d             7465 	.byte	29
000017b9 00000000*      7466 	.word	.LDW24
000017bd 00000000*      7467 	.word	.LDW34
                        7468 
                        7469 .LDW_3bdc918:

                                                                      Page 139
                                                              D:\TEMP\gh_00001gs1.s
000017c1 04             7470 	.byte	4
000017c2 726567465354   7471 	.strz	"regFSTATR"
000017c8 41545200 
000017cc c705           7472 	.byte	199,5
000017ce 15             7473 	.byte	21
000017cf 01             7474 	.byte	1
000017d0 00000000*      7475 	.word	.LDW_3b83718
000017d4 00             7476 	.byte	0
000017d5 00             7477 	.byte	0
000017d6 015a           7478 	.byte	1,90
                        7479 
                        7480 .LDW_3bdc970:
000017d8 04             7481 	.byte	4
000017d9 72657400       7482 	.strz	"ret"
000017dd c805           7483 	.byte	200,5
000017df 15             7484 	.byte	21
000017e0 01             7485 	.byte	1
000017e1 00000000*      7486 	.word	.LDW_3bdc8c0
000017e5 00             7487 	.byte	0
000017e6 00             7488 	.byte	0
000017e7 016d           7489 	.byte	1,109
                        7490 
000017e9 00             7491 	.byte	0
                        7492 
000017ea 00             7493 	.byte	0
                        7494 
                        7495 .LDW_3bf15f0:
000017eb 13             7496 	.byte	19
000017ec 525f46434c5f   7497 	.strz	"R_FCL_FCUFct_ClearStatus"
000017f2 464355466374 
000017f8 5f436c656172 
000017fe 537461747573 
00001804 00 
00001805 eb05           7498 	.byte	235,5
00001807 13             7499 	.byte	19
00001808 01             7500 	.byte	1
00001809 00000000*      7501 	.word	_R_FCL_FCUFct_ClearStatus..D.3A.5Cusr.5Cusage.5CDelivery.5CCBD17x.5CCBD1700369.5CD04.5Cexternal.5CBSW.5CFlash.5Cbuild.5Cobj.5Cr_fcl_hw_access.
0000180d 00000000*      7502 	.word	___ghs_eofn_R_FCL_FCUFct_ClearStatus
00001811 0153           7503 	.byte	1,83
00001813 828080800a     7504 	.byte	130,128,128,128,10
00001818 08             7505 	.byte	8
00001819 03             7506 	.byte	3
0000181a 08             7507 	.byte	8
0000181b 00             7508 	.byte	0
0000181c 00             7509 	.byte	0
0000181d 00             7510 	.byte	0
0000181e 00             7511 	.byte	0
0000181f 01             7512 	.byte	1
00001820 00             7513 	.byte	0
00001821 01             7514 	.byte	1
                        7515 
                        7516 	.section	.debug_frame
                        7517 .LDW_3b5c590:
00000234 00000000*      7518 	.word	.LDW_unq_22-.LDW_unq_21
                        7519 .LDW_unq_21:
00000238 00000000*      7520 	.word	.LDW_3c6e800
0000023c 00000000*      7521 	.word	_R_FCL_FCUFct_ClearStatus..D.3A.5Cusr.5Cusage.5CDelivery.5CCBD17x.5CCBD1700369.5CD04.5Cexternal.5CBSW.5CFlash.5Cbuild.5Cobj.5Cr_fcl_hw_access.
00000240 00000000*      7522 	.word	___ghs_eofn_R_FCL_FCUFct_ClearStatus-_R_FCL_FCUFct_ClearStatus..D.3A.5Cusr.5Cusage.5CDelivery.5CCBD17x.5CCBD1700369.5CD04.5Cexternal.5CBSW.5CFlash.5Cbuild.5Cobj.5Cr_fcl_hw_access.
00000244 44             7523 	.byte	68
00000245 9f             7524 	.byte	159
00000246 00             7525 	.byte	0

                                                                      Page 140
                                                              D:\TEMP\gh_00001gs1.s
00000247 40             7526 	.byte	64
00000248 9d             7527 	.byte	157
00000249 04             7528 	.byte	4
0000024a 01             7529 	.byte	1
0000024b 00000000*      7530 	.word	.LDW53
0000024f 00             7531 	.byte	0
                        7532 .LDW_unq_22:
                        7533 	.section	.debug_line
000004af 000502         7534 	.byte	0,5,2
000004b2 00000000*      7535 	.word	_R_FCL_FCUFct_ClearStatus..D.3A.5Cusr.5Cusage.5CDelivery.5CCBD17x.5CCBD1700369.5CD04.5Cexternal.5CBSW.5CFlash.5Cbuild.5Cobj.5Cr_fcl_hw_access.
000004b6 03             7536 	.byte	3
000004b7 eb05           7537 	.byte	235,5
000004b9 02             7538 	.byte	2
000004ba 00             7539 	.byte	0
000004bb 01             7540 	.byte	1
000004bc 06             7541 	.byte	6
000004bd 03             7542 	.byte	3
000004be 04             7543 	.byte	4
000004bf 02             7544 	.byte	2
000004c0 04             7545 	.byte	4
000004c1 01             7546 	.byte	1
000004c2 000502         7547 	.byte	0,5,2
000004c5 00000000*      7548 	.word	.LDWlin48
000004c9 0c             7549 	.byte	12
000004ca 000502         7550 	.byte	0,5,2
000004cd 00000000*      7551 	.word	.LDWlin49
000004d1 0b             7552 	.byte	11
000004d2 0b             7553 	.byte	11
000004d3 000502         7554 	.byte	0,5,2
000004d6 00000000*      7555 	.word	.LDWlin50
000004da 0c             7556 	.byte	12
000004db 000502         7557 	.byte	0,5,2
000004de 00000000*      7558 	.word	.LDWlin51
000004e2 0b             7559 	.byte	11
000004e3 0b             7560 	.byte	11
000004e4 000502         7561 	.byte	0,5,2
000004e7 00000000*      7562 	.word	.LDWlin52
000004eb 0b             7563 	.byte	11
000004ec 02             7564 	.byte	2
000004ed 00             7565 	.byte	0
000004ee 0b             7566 	.byte	11
000004ef 02             7567 	.byte	2
000004f0 00             7568 	.byte	0
000004f1 0c             7569 	.byte	12
000004f2 000502         7570 	.byte	0,5,2
000004f5 00000000*      7571 	.word	.LDWlin53
000004f9 0b             7572 	.byte	11
000004fa 02             7573 	.byte	2
000004fb 04             7574 	.byte	4
000004fc 000101         7575 	.byte	0,1,1
                        7576 	.section	.debug_info
                        7577 .LDW_3bdbac8:
00001822 1d             7578 	.byte	29
00001823 00000000*      7579 	.word	.LDW43
00001827 00000000*      7580 	.word	.LDW53
                        7581 
                        7582 .LDW_3bdc9c8:
0000182b 05             7583 	.byte	5
0000182c 726573333200   7584 	.strz	"res32"
00001832 ed05           7585 	.byte	237,5
00001834 0e             7586 	.byte	14

                                                                      Page 141
                                                              D:\TEMP\gh_00001gs1.s
00001835 01             7587 	.byte	1
00001836 00000000*      7588 	.word	.LDW_3b83718
0000183a 00             7589 	.byte	0
0000183b 00             7590 	.byte	0
                        7591 
                        7592 .LDW_3bdca20:
0000183c 05             7593 	.byte	5
0000183d 7265733800     7594 	.strz	"res8"
00001842 ee05           7595 	.byte	238,5
00001844 0e             7596 	.byte	14
00001845 01             7597 	.byte	1
00001846 00000000*      7598 	.word	.LDW_3b83a00
0000184a 00             7599 	.byte	0
0000184b 00             7600 	.byte	0
                        7601 
0000184c 00             7602 	.byte	0
                        7603 
0000184d 00             7604 	.byte	0
                        7605 
                        7606 .LDW_3bf1688:
0000184e 13             7607 	.byte	19
0000184f 525f46434c5f   7608 	.strz	"R_FCL_FCUFct_RestoreLastState"
00001855 464355466374 
0000185b 5f526573746f 
00001861 72654c617374 
00001867 537461746500 
0000186d 9506           7609 	.byte	149,6
0000186f 13             7610 	.byte	19
00001870 01             7611 	.byte	1
00001871 00000000*      7612 	.word	_R_FCL_FCUFct_RestoreLastState..D.3A.5Cusr.5Cusage.5CDelivery.5CCBD17x.5CCBD1700369.5CD04.5Cexternal.5CBSW.5CFlash.5Cbuild.5Cobj.5Cr_fcl_hw_access.
00001875 00000000*      7613 	.word	___ghs_eofn_R_FCL_FCUFct_RestoreLastState
00001879 0153           7614 	.byte	1,83
0000187b 02             7615 	.byte	2
0000187c 00             7616 	.byte	0
0000187d 02             7617 	.byte	2
0000187e 00             7618 	.byte	0
0000187f 00             7619 	.byte	0
00001880 00             7620 	.byte	0
00001881 00             7621 	.byte	0
00001882 00             7622 	.byte	0
00001883 01             7623 	.byte	1
00001884 00             7624 	.byte	0
00001885 01             7625 	.byte	1
                        7626 
                        7627 	.section	.debug_frame
                        7628 .LDW_4330128:
00000250 00000000*      7629 	.word	.LDW_unq_24-.LDW_unq_23
                        7630 .LDW_unq_23:
00000254 00000000*      7631 	.word	.LDW_3c6e800
00000258 00000000*      7632 	.word	_R_FCL_FCUFct_RestoreLastState..D.3A.5Cusr.5Cusage.5CDelivery.5CCBD17x.5CCBD1700369.5CD04.5Cexternal.5CBSW.5CFlash.5Cbuild.5Cobj.5Cr_fcl_hw_access.
0000025c 00000000*      7633 	.word	___ghs_eofn_R_FCL_FCUFct_RestoreLastState-_R_FCL_FCUFct_RestoreLastState..D.3A.5Cusr.5Cusage.5CDelivery.5CCBD17x.5CCBD1700369.5CD04.5Cexternal.5CBSW.5CFlash.5Cbuild.5Cobj.5Cr_fcl_hw_access.
00000260 01             7634 	.byte	1
00000261 00000000*      7635 	.word	.LDW54
00000265 00             7636 	.byte	0
00000266 00             7637 	.byte	0
00000267 00             7638 	.byte	0
                        7639 .LDW_unq_24:
                        7640 	.section	.debug_line
000004ff 000502         7641 	.byte	0,5,2
00000502 00000000*      7642 	.word	_R_FCL_FCUFct_RestoreLastState..D.3A.5Cusr.5Cusage.5CDelivery.5CCBD17x.5CCBD1700369.5CD04.5Cexternal.5CBSW.5CFlash.5Cbuild.5Cobj.5Cr_fcl_hw_access.
00000506 06             7643 	.byte	6

                                                                      Page 142
                                                              D:\TEMP\gh_00001gs1.s
00000507 03             7644 	.byte	3
00000508 9606           7645 	.byte	150,6
0000050a 02             7646 	.byte	2
0000050b 00             7647 	.byte	0
0000050c 01             7648 	.byte	1
0000050d 4b             7649 	.byte	75
0000050e 0c             7650 	.byte	12
0000050f 0c             7651 	.byte	12
00000510 0b             7652 	.byte	11
00000511 13             7653 	.byte	19
00000512 02             7654 	.byte	2
00000513 00             7655 	.byte	0
00000514 0b             7656 	.byte	11
00000515 02             7657 	.byte	2
00000516 02             7658 	.byte	2
00000517 000101         7659 	.byte	0,1,1
                        7660 	.section	.debug_info
                        7661 .LDW_3bdbaf8:
00001886 1d             7662 	.byte	29
00001887 00000000*      7663 	.word	.LDW44
0000188b 00000000*      7664 	.word	.LDW54
                        7665 
0000188f 00             7666 	.byte	0
                        7667 
00001890 00             7668 	.byte	0
                        7669 
                        7670 .LDW_3bf1738:
00001891 13             7671 	.byte	19
00001892 525f46434c5f   7672 	.strz	"R_FCL_FCUFct_HandleResume"
00001898 464355466374 
0000189e 5f48616e646c 
000018a4 65526573756d 
000018aa 6500 
000018ac b706           7673 	.byte	183,6
000018ae 06             7674 	.byte	6
000018af 01             7675 	.byte	1
000018b0 00000000*      7676 	.word	_R_FCL_FCUFct_HandleResume
000018b4 00000000*      7677 	.word	___ghs_eofn_R_FCL_FCUFct_HandleResume
000018b8 0153           7678 	.byte	1,83
000018ba 828080800b     7679 	.byte	130,128,128,128,11
000018bf 0c             7680 	.byte	12
000018c0 03             7681 	.byte	3
000018c1 0c             7682 	.byte	12
000018c2 00             7683 	.byte	0
000018c3 00             7684 	.byte	0
000018c4 00             7685 	.byte	0
000018c5 01             7686 	.byte	1
000018c6 01             7687 	.byte	1
000018c7 00             7688 	.byte	0
000018c8 01             7689 	.byte	1
                        7690 
                        7691 	.section	.debug_frame
                        7692 .LDW_4330228:
00000268 00000000*      7693 	.word	.LDW_unq_26-.LDW_unq_25
                        7694 .LDW_unq_25:
0000026c 00000000*      7695 	.word	.LDW_3c6e800
00000270 00000000*      7696 	.word	_R_FCL_FCUFct_HandleResume
00000274 00000000*      7697 	.word	___ghs_eofn_R_FCL_FCUFct_HandleResume-_R_FCL_FCUFct_HandleResume
00000278 44             7698 	.byte	68
00000279 9f             7699 	.byte	159
0000027a 00             7700 	.byte	0

                                                                      Page 143
                                                              D:\TEMP\gh_00001gs1.s
0000027b 40             7701 	.byte	64
0000027c 9d             7702 	.byte	157
0000027d 04             7703 	.byte	4
0000027e 40             7704 	.byte	64
0000027f 9c             7705 	.byte	156
00000280 08             7706 	.byte	8
00000281 01             7707 	.byte	1
00000282 00000000*      7708 	.word	.LDW74
00000286 00             7709 	.byte	0
00000287 00             7710 	.byte	0
                        7711 .LDW_unq_26:
                        7712 	.section	.debug_line
0000051a 000502         7713 	.byte	0,5,2
0000051d 00000000*      7714 	.word	_R_FCL_FCUFct_HandleResume
00000521 03             7715 	.byte	3
00000522 b706           7716 	.byte	183,6
00000524 02             7717 	.byte	2
00000525 00             7718 	.byte	0
00000526 01             7719 	.byte	1
00000527 06             7720 	.byte	6
00000528 1d             7721 	.byte	29
00000529 000502         7722 	.byte	0,5,2
0000052c 00000000*      7723 	.word	.LDWlin71
00000530 0b             7724 	.byte	11
00000531 0b             7725 	.byte	11
00000532 000502         7726 	.byte	0,5,2
00000535 00000000*      7727 	.word	.LDWlin72
00000539 0b             7728 	.byte	11
0000053a 0b             7729 	.byte	11
0000053b 000502         7730 	.byte	0,5,2
0000053e 00000000*      7731 	.word	.LDWlin73
00000542 03             7732 	.byte	3
00000543 04             7733 	.byte	4
00000544 02             7734 	.byte	2
00000545 00             7735 	.byte	0
00000546 01             7736 	.byte	1
00000547 1b             7737 	.byte	27
00000548 13             7738 	.byte	19
00000549 1b             7739 	.byte	27
0000054a 14             7740 	.byte	20
0000054b 03             7741 	.byte	3
0000054c 08             7742 	.byte	8
0000054d 02             7743 	.byte	2
0000054e 02             7744 	.byte	2
0000054f 01             7745 	.byte	1
00000550 24             7746 	.byte	36
00000551 03             7747 	.byte	3
00000552 79             7748 	.byte	121
00000553 02             7749 	.byte	2
00000554 0c             7750 	.byte	12
00000555 01             7751 	.byte	1
00000556 13             7752 	.byte	19
00000557 13             7753 	.byte	19
00000558 13             7754 	.byte	19
00000559 000502         7755 	.byte	0,5,2
0000055c 00000000*      7756 	.word	.LDWlin74
00000560 03             7757 	.byte	3
00000561 05             7758 	.byte	5
00000562 02             7759 	.byte	2
00000563 00             7760 	.byte	0
00000564 01             7761 	.byte	1

                                                                      Page 144
                                                              D:\TEMP\gh_00001gs1.s
00000565 000502         7762 	.byte	0,5,2
00000568 00000000*      7763 	.word	.LDWlin75
0000056c 0c             7764 	.byte	12
0000056d 0b             7765 	.byte	11
0000056e 000502         7766 	.byte	0,5,2
00000571 00000000*      7767 	.word	.LDWlin76
00000575 0b             7768 	.byte	11
00000576 02             7769 	.byte	2
00000577 00             7770 	.byte	0
00000578 0b             7771 	.byte	11
00000579 44             7772 	.byte	68
0000057a 000502         7773 	.byte	0,5,2
0000057d 00000000*      7774 	.word	.LDWlin77
00000581 0b             7775 	.byte	11
00000582 02             7776 	.byte	2
00000583 00             7777 	.byte	0
00000584 0b             7778 	.byte	11
00000585 0c             7779 	.byte	12
00000586 0b             7780 	.byte	11
00000587 000502         7781 	.byte	0,5,2
0000058a 00000000*      7782 	.word	.LDWlin78
0000058e 0b             7783 	.byte	11
0000058f 0b             7784 	.byte	11
00000590 000502         7785 	.byte	0,5,2
00000593 00000000*      7786 	.word	.LDWlin79
00000597 0c             7787 	.byte	12
00000598 02             7788 	.byte	2
00000599 00             7789 	.byte	0
0000059a 0d             7790 	.byte	13
0000059b 03             7791 	.byte	3
0000059c 05             7792 	.byte	5
0000059d 02             7793 	.byte	2
0000059e 04             7794 	.byte	4
0000059f 01             7795 	.byte	1
000005a0 03             7796 	.byte	3
000005a1 08             7797 	.byte	8
000005a2 02             7798 	.byte	2
000005a3 04             7799 	.byte	4
000005a4 01             7800 	.byte	1
000005a5 03             7801 	.byte	3
000005a6 76             7802 	.byte	118
000005a7 02             7803 	.byte	2
000005a8 06             7804 	.byte	6
000005a9 01             7805 	.byte	1
000005aa 13             7806 	.byte	19
000005ab 3d             7807 	.byte	61
000005ac 2c             7808 	.byte	44
000005ad 1b             7809 	.byte	27
000005ae 1b             7810 	.byte	27
000005af 13             7811 	.byte	19
000005b0 1c             7812 	.byte	28
000005b1 02             7813 	.byte	2
000005b2 00             7814 	.byte	0
000005b3 0b             7815 	.byte	11
000005b4 02             7816 	.byte	2
000005b5 04             7817 	.byte	4
000005b6 000101         7818 	.byte	0,1,1
                        7819 	.section	.debug_info
                        7820 .LDW_3bdbb28:
000018c9 1d             7821 	.byte	29
000018ca 00000000*      7822 	.word	.LDW64

                                                                      Page 145
                                                              D:\TEMP\gh_00001gs1.s
000018ce 00000000*      7823 	.word	.LDW74
                        7824 
                        7825 .LDW_3bdca78:
000018d2 04             7826 	.byte	4
000018d3 726567465354   7827 	.strz	"regFSTATR"
000018d9 41545200 
000018dd b906           7828 	.byte	185,6
000018df 0e             7829 	.byte	14
000018e0 01             7830 	.byte	1
000018e1 00000000*      7831 	.word	.LDW_3b83718
000018e5 00             7832 	.byte	0
000018e6 00             7833 	.byte	0
000018e7 015a           7834 	.byte	1,90
                        7835 
000018e9 00             7836 	.byte	0
                        7837 
000018ea 00             7838 	.byte	0
                        7839 
                        7840 .LDW_3bf17d0:
000018eb 14             7841 	.byte	20
000018ec 525f46434c5f   7842 	.strz	"R_FCL_FCUFct_CheckMode"
000018f2 464355466374 
000018f8 5f436865636b 
000018fe 4d6f646500 
00001903 8e07           7843 	.byte	142,7
00001905 0e             7844 	.byte	14
00001906 01             7845 	.byte	1
00001907 00000000*      7846 	.word	.LDW_3bdc8c0
0000190b 00000000*      7847 	.word	_R_FCL_FCUFct_CheckMode
0000190f 00000000*      7848 	.word	___ghs_eofn_R_FCL_FCUFct_CheckMode
00001913 0153           7849 	.byte	1,83
00001915 8280808008     7850 	.byte	130,128,128,128,8
0000191a 04             7851 	.byte	4
0000191b 03             7852 	.byte	3
0000191c 04             7853 	.byte	4
0000191d 00             7854 	.byte	0
0000191e 00             7855 	.byte	0
0000191f 00             7856 	.byte	0
00001920 01             7857 	.byte	1
00001921 01             7858 	.byte	1
00001922 00             7859 	.byte	0
00001923 01             7860 	.byte	1
                        7861 
                        7862 	.section	.debug_frame
                        7863 .LDW_4330328:
00000288 00000000*      7864 	.word	.LDW_unq_28-.LDW_unq_27
                        7865 .LDW_unq_27:
0000028c 00000000*      7866 	.word	.LDW_3c6e800
00000290 00000000*      7867 	.word	_R_FCL_FCUFct_CheckMode
00000294 00000000*      7868 	.word	___ghs_eofn_R_FCL_FCUFct_CheckMode-_R_FCL_FCUFct_CheckMode
00000298 44             7869 	.byte	68
00000299 9f             7870 	.byte	159
0000029a 00             7871 	.byte	0
0000029b 01             7872 	.byte	1
0000029c 00000000*      7873 	.word	.LDW94
000002a0 44             7874 	.byte	68
000002a1 df             7875 	.byte	223
000002a2 00             7876 	.byte	0
000002a3 00             7877 	.byte	0
                        7878 .LDW_unq_28:
                        7879 	.section	.debug_line

                                                                      Page 146
                                                              D:\TEMP\gh_00001gs1.s
000005b9 000502         7880 	.byte	0,5,2
000005bc 00000000*      7881 	.word	_R_FCL_FCUFct_CheckMode
000005c0 03             7882 	.byte	3
000005c1 8e07           7883 	.byte	142,7
000005c3 02             7884 	.byte	2
000005c4 00             7885 	.byte	0
000005c5 01             7886 	.byte	1
000005c6 06             7887 	.byte	6
000005c7 03             7888 	.byte	3
000005c8 06             7889 	.byte	6
000005c9 02             7890 	.byte	2
000005ca 04             7891 	.byte	4
000005cb 01             7892 	.byte	1
000005cc 000502         7893 	.byte	0,5,2
000005cf 00000000*      7894 	.word	.LDWlin80
000005d3 0b             7895 	.byte	11
000005d4 23             7896 	.byte	35
000005d5 0c             7897 	.byte	12
000005d6 02             7898 	.byte	2
000005d7 00             7899 	.byte	0
000005d8 0c             7900 	.byte	12
000005d9 02             7901 	.byte	2
000005da 04             7902 	.byte	4
000005db 000101         7903 	.byte	0,1,1
                        7904 	.section	.debug_info
                        7905 .LDW_3bdbb58:
00001924 1d             7906 	.byte	29
00001925 00000000*      7907 	.word	.LDW84
00001929 00000000*      7908 	.word	.LDW94
                        7909 
                        7910 .LDW_3bdcad0:
0000192d 04             7911 	.byte	4
0000192e 72657400       7912 	.strz	"ret"
00001932 9007           7913 	.byte	144,7
00001934 12             7914 	.byte	18
00001935 01             7915 	.byte	1
00001936 00000000*      7916 	.word	.LDW_3bdc8c0
0000193a 00             7917 	.byte	0
0000193b 00             7918 	.byte	0
0000193c 015a           7919 	.byte	1,90
                        7920 
                        7921 .LDW_3bdcb28:
0000193e 05             7922 	.byte	5
0000193f 72656756616c   7923 	.strz	"regVal"
00001945 00 
00001946 9107           7924 	.byte	145,7
00001948 12             7925 	.byte	18
00001949 01             7926 	.byte	1
0000194a 00000000*      7927 	.word	.LDW_3b83a00
0000194e 00             7928 	.byte	0
0000194f 00             7929 	.byte	0
                        7930 
00001950 00             7931 	.byte	0
                        7932 
00001951 00             7933 	.byte	0
                        7934 
                        7935 .LDW_3bf1868:
00001952 14             7936 	.byte	20
00001953 525f46434c5f   7937 	.strz	"R_FCL_FCUFct_GetResult"
00001959 464355466374 
0000195f 5f4765745265 

                                                                      Page 147
                                                              D:\TEMP\gh_00001gs1.s
00001965 73756c7400 
0000196a bb07           7938 	.byte	187,7
0000196c 1d             7939 	.byte	29
0000196d 01             7940 	.byte	1
0000196e 00000000*      7941 	.word	.LDW_3bdc340
00001972 00000000*      7942 	.word	_R_FCL_FCUFct_GetResult..D.3A.5Cusr.5Cusage.5CDelivery.5CCBD17x.5CCBD1700369.5CD04.5Cexternal.5CBSW.5CFlash.5Cbuild.5Cobj.5Cr_fcl_hw_access.
00001976 00000000*      7943 	.word	___ghs_eofn_R_FCL_FCUFct_GetResult
0000197a 0153           7944 	.byte	1,83
0000197c 828080800b     7945 	.byte	130,128,128,128,11
00001981 0c             7946 	.byte	12
00001982 03             7947 	.byte	3
00001983 0c             7948 	.byte	12
00001984 00             7949 	.byte	0
00001985 00             7950 	.byte	0
00001986 00             7951 	.byte	0
00001987 00             7952 	.byte	0
00001988 01             7953 	.byte	1
00001989 00             7954 	.byte	0
0000198a 01             7955 	.byte	1
                        7956 
                        7957 	.section	.debug_frame
                        7958 .LDW_4330428:
000002a4 00000000*      7959 	.word	.LDW_unq_2a-.LDW_unq_29
                        7960 .LDW_unq_29:
000002a8 00000000*      7961 	.word	.LDW_3c6e800
000002ac 00000000*      7962 	.word	_R_FCL_FCUFct_GetResult..D.3A.5Cusr.5Cusage.5CDelivery.5CCBD17x.5CCBD1700369.5CD04.5Cexternal.5CBSW.5CFlash.5Cbuild.5Cobj.5Cr_fcl_hw_access.
000002b0 00000000*      7963 	.word	___ghs_eofn_R_FCL_FCUFct_GetResult-_R_FCL_FCUFct_GetResult..D.3A.5Cusr.5Cusage.5CDelivery.5CCBD17x.5CCBD1700369.5CD04.5Cexternal.5CBSW.5CFlash.5Cbuild.5Cobj.5Cr_fcl_hw_access.
000002b4 44             7964 	.byte	68
000002b5 9f             7965 	.byte	159
000002b6 00             7966 	.byte	0
000002b7 40             7967 	.byte	64
000002b8 9d             7968 	.byte	157
000002b9 04             7969 	.byte	4
000002ba 40             7970 	.byte	64
000002bb 9c             7971 	.byte	156
000002bc 08             7972 	.byte	8
000002bd 01             7973 	.byte	1
000002be 00000000*      7974 	.word	.LDW15
000002c2 00             7975 	.byte	0
000002c3 00             7976 	.byte	0
                        7977 .LDW_unq_2a:
                        7978 	.section	.debug_line
000005de 000502         7979 	.byte	0,5,2
000005e1 00000000*      7980 	.word	_R_FCL_FCUFct_GetResult..D.3A.5Cusr.5Cusage.5CDelivery.5CCBD17x.5CCBD1700369.5CD04.5Cexternal.5CBSW.5CFlash.5Cbuild.5Cobj.5Cr_fcl_hw_access.
000005e5 03             7981 	.byte	3
000005e6 bb07           7982 	.byte	187,7
000005e8 02             7983 	.byte	2
000005e9 00             7984 	.byte	0
000005ea 01             7985 	.byte	1
000005eb 06             7986 	.byte	6
000005ec 03             7987 	.byte	3
000005ed 05             7988 	.byte	5
000005ee 02             7989 	.byte	2
000005ef 06             7990 	.byte	6
000005f0 01             7991 	.byte	1
000005f1 000502         7992 	.byte	0,5,2
000005f4 00000000*      7993 	.word	.LDWlin81
000005f8 0c             7994 	.byte	12
000005f9 000502         7995 	.byte	0,5,2
000005fc 00000000*      7996 	.word	.LDWlin82
00000600 0b             7997 	.byte	11

                                                                      Page 148
                                                              D:\TEMP\gh_00001gs1.s
00000601 03             7998 	.byte	3
00000602 0b             7999 	.byte	11
00000603 02             8000 	.byte	2
00000604 00             8001 	.byte	0
00000605 01             8002 	.byte	1
00000606 000502         8003 	.byte	0,5,2
00000609 00000000*      8004 	.word	.LDWlin83
0000060d 03             8005 	.byte	3
0000060e 07             8006 	.byte	7
0000060f 02             8007 	.byte	2
00000610 00             8008 	.byte	0
00000611 01             8009 	.byte	1
00000612 0b             8010 	.byte	11
00000613 02             8011 	.byte	2
00000614 00             8012 	.byte	0
00000615 000502         8013 	.byte	0,5,2
00000618 00000000*      8014 	.word	.LDWlin84
0000061c 0b             8015 	.byte	11
0000061d 0b             8016 	.byte	11
0000061e 000502         8017 	.byte	0,5,2
00000621 00000000*      8018 	.word	.LDWlin85
00000625 0d             8019 	.byte	13
00000626 0c             8020 	.byte	12
00000627 0b             8021 	.byte	11
00000628 06             8022 	.byte	6
00000629 000502         8023 	.byte	0,5,2
0000062c 00000000*      8024 	.word	.LDWlin86
00000630 03             8025 	.byte	3
00000631 76             8026 	.byte	118
00000632 02             8027 	.byte	2
00000633 00             8028 	.byte	0
00000634 01             8029 	.byte	1
00000635 06             8030 	.byte	6
00000636 03             8031 	.byte	3
00000637 05             8032 	.byte	5
00000638 02             8033 	.byte	2
00000639 00             8034 	.byte	0
0000063a 01             8035 	.byte	1
0000063b 0b             8036 	.byte	11
0000063c 000502         8037 	.byte	0,5,2
0000063f 00000000*      8038 	.word	.LDWlin87
00000643 03             8039 	.byte	3
00000644 05             8040 	.byte	5
00000645 02             8041 	.byte	2
00000646 00             8042 	.byte	0
00000647 01             8043 	.byte	1
00000648 02             8044 	.byte	2
00000649 00             8045 	.byte	0
0000064a 0b             8046 	.byte	11
0000064b 0b             8047 	.byte	11
0000064c 02             8048 	.byte	2
0000064d 00             8049 	.byte	0
0000064e 000502         8050 	.byte	0,5,2
00000651 00000000*      8051 	.word	.LDWlin88
00000655 0d             8052 	.byte	13
00000656 0b             8053 	.byte	11
00000657 02             8054 	.byte	2
00000658 00             8055 	.byte	0
00000659 000502         8056 	.byte	0,5,2
0000065c 00000000*      8057 	.word	.LDWlin89
00000660 0b             8058 	.byte	11

                                                                      Page 149
                                                              D:\TEMP\gh_00001gs1.s
00000661 0b             8059 	.byte	11
00000662 000502         8060 	.byte	0,5,2
00000665 00000000*      8061 	.word	.LDWlin90
00000669 0b             8062 	.byte	11
0000066a 2b             8063 	.byte	43
0000066b 0b             8064 	.byte	11
0000066c 06             8065 	.byte	6
0000066d 000502         8066 	.byte	0,5,2
00000670 00000000*      8067 	.word	.LDWlin91
00000674 02             8068 	.byte	2
00000675 00             8069 	.byte	0
00000676 06             8070 	.byte	6
00000677 000502         8071 	.byte	0,5,2
0000067a 00000000*      8072 	.word	.LDWlin92
0000067e 03             8073 	.byte	3
0000067f 05             8074 	.byte	5
00000680 02             8075 	.byte	2
00000681 00             8076 	.byte	0
00000682 01             8077 	.byte	1
00000683 02             8078 	.byte	2
00000684 00             8079 	.byte	0
00000685 0c             8080 	.byte	12
00000686 0b             8081 	.byte	11
00000687 02             8082 	.byte	2
00000688 00             8083 	.byte	0
00000689 000502         8084 	.byte	0,5,2
0000068c 00000000*      8085 	.word	.LDWlin93
00000690 0b             8086 	.byte	11
00000691 0b             8087 	.byte	11
00000692 000502         8088 	.byte	0,5,2
00000695 00000000*      8089 	.word	.LDWlin94
00000699 0b             8090 	.byte	11
0000069a 1b             8091 	.byte	27
0000069b 0b             8092 	.byte	11
0000069c 06             8093 	.byte	6
0000069d 000502         8094 	.byte	0,5,2
000006a0 00000000*      8095 	.word	.LDWlin95
000006a4 03             8096 	.byte	3
000006a5 6c             8097 	.byte	108
000006a6 02             8098 	.byte	2
000006a7 00             8099 	.byte	0
000006a8 01             8100 	.byte	1
000006a9 03             8101 	.byte	3
000006aa 0b             8102 	.byte	11
000006ab 02             8103 	.byte	2
000006ac 00             8104 	.byte	0
000006ad 01             8105 	.byte	1
000006ae 06             8106 	.byte	6
000006af 03             8107 	.byte	3
000006b0 0a             8108 	.byte	10
000006b1 02             8109 	.byte	2
000006b2 00             8110 	.byte	0
000006b3 01             8111 	.byte	1
000006b4 0c             8112 	.byte	12
000006b5 0b             8113 	.byte	11
000006b6 000502         8114 	.byte	0,5,2
000006b9 00000000*      8115 	.word	.LDWlin96
000006bd 0b             8116 	.byte	11
000006be 02             8117 	.byte	2
000006bf 00             8118 	.byte	0
000006c0 0b             8119 	.byte	11

                                                                      Page 150
                                                              D:\TEMP\gh_00001gs1.s
000006c1 0c             8120 	.byte	12
000006c2 0c             8121 	.byte	12
000006c3 02             8122 	.byte	2
000006c4 00             8123 	.byte	0
000006c5 02             8124 	.byte	2
000006c6 00             8125 	.byte	0
000006c7 02             8126 	.byte	2
000006c8 00             8127 	.byte	0
000006c9 02             8128 	.byte	2
000006ca 00             8129 	.byte	0
000006cb 02             8130 	.byte	2
000006cc 00             8131 	.byte	0
000006cd 02             8132 	.byte	2
000006ce 00             8133 	.byte	0
000006cf 02             8134 	.byte	2
000006d0 00             8135 	.byte	0
000006d1 02             8136 	.byte	2
000006d2 00             8137 	.byte	0
000006d3 02             8138 	.byte	2
000006d4 00             8139 	.byte	0
000006d5 0b             8140 	.byte	11
000006d6 0c             8141 	.byte	12
000006d7 0b             8142 	.byte	11
000006d8 13             8143 	.byte	19
000006d9 02             8144 	.byte	2
000006da 00             8145 	.byte	0
000006db 0d             8146 	.byte	13
000006dc 02             8147 	.byte	2
000006dd 04             8148 	.byte	4
000006de 000101         8149 	.byte	0,1,1
                        8150 	.section	.debug_info
                        8151 .LDW_3bdcb80:
0000198b 0f             8152 	.byte	15
0000198c 636d64537064   8153 	.strz	"cmdSpdExec_enu"
00001992 457865635f65 
00001998 6e7500 
0000199b bb07           8154 	.byte	187,7
0000199d 42             8155 	.byte	66
0000199e 01             8156 	.byte	1
0000199f 00000000*      8157 	.word	.LDW_3bdc8c0
000019a3 00             8158 	.byte	0
000019a4 016c           8159 	.byte	1,108
                        8160 
                        8161 .LDW_3bdbbb8:
000019a6 1d             8162 	.byte	29
000019a7 00000000*      8163 	.word	.LDW05
000019ab 00000000*      8164 	.word	.LDW15
                        8165 
                        8166 .LDW_3bdcbd8:
000019af 04             8167 	.byte	4
000019b0 72657400       8168 	.strz	"ret"
000019b4 bd07           8169 	.byte	189,7
000019b6 14             8170 	.byte	20
000019b7 01             8171 	.byte	1
000019b8 00000000*      8172 	.word	.LDW_3bdc340
000019bc 00             8173 	.byte	0
000019bd 00             8174 	.byte	0
000019be 015a           8175 	.byte	1,90
                        8176 
                        8177 .LDW_3bdcc30:
000019c0 04             8178 	.byte	4

                                                                      Page 151
                                                              D:\TEMP\gh_00001gs1.s
000019c1 726567465354   8179 	.strz	"regFSTATR"
000019c7 41545200 
000019cb be07           8180 	.byte	190,7
000019cd 14             8181 	.byte	20
000019ce 01             8182 	.byte	1
000019cf 00000000*      8183 	.word	.LDW_3b83718
000019d3 00             8184 	.byte	0
000019d4 00             8185 	.byte	0
000019d5 015a           8186 	.byte	1,90
                        8187 
                        8188 .LDW_3bdcc88:
000019d7 05             8189 	.byte	5
000019d8 726567465045   8190 	.strz	"regFPESTAT"
000019de 5354415400 
000019e3 bf07           8191 	.byte	191,7
000019e5 14             8192 	.byte	20
000019e6 01             8193 	.byte	1
000019e7 00000000*      8194 	.word	.LDW_3b838b8
000019eb 00             8195 	.byte	0
000019ec 00             8196 	.byte	0
                        8197 
000019ed 00             8198 	.byte	0
                        8199 
000019ee 00             8200 	.byte	0
                        8201 
                        8202 .LDW_3bf1900:
000019ef 13             8203 	.byte	19
000019f0 525f46434c5f   8204 	.strz	"R_FCL_FCUFct_GetConfigArea"
000019f6 464355466374 
000019fc 5f476574436f 
00001a02 6e6669674172 
00001a08 656100 
00001a0b a208           8205 	.byte	162,8
00001a0d 06             8206 	.byte	6
00001a0e 01             8207 	.byte	1
00001a0f 00000000*      8208 	.word	_R_FCL_FCUFct_GetConfigArea
00001a13 00000000*      8209 	.word	___ghs_eofn_R_FCL_FCUFct_GetConfigArea
00001a17 0153           8210 	.byte	1,83
00001a19 828080f00b     8211 	.byte	130,128,128,240,11
00001a1e 18             8212 	.byte	24
00001a1f 03             8213 	.byte	3
00001a20 18             8214 	.byte	24
00001a21 00             8215 	.byte	0
00001a22 00             8216 	.byte	0
00001a23 00             8217 	.byte	0
00001a24 01             8218 	.byte	1
00001a25 01             8219 	.byte	1
00001a26 00             8220 	.byte	0
00001a27 01             8221 	.byte	1
                        8222 
                        8223 	.section	.debug_frame
                        8224 .LDW_3b5c090:
000002c4 00000000*      8225 	.word	.LDW_unq_2c-.LDW_unq_2b
                        8226 .LDW_unq_2b:
000002c8 00000000*      8227 	.word	.LDW_3c6e800
000002cc 00000000*      8228 	.word	_R_FCL_FCUFct_GetConfigArea
000002d0 00000000*      8229 	.word	___ghs_eofn_R_FCL_FCUFct_GetConfigArea-_R_FCL_FCUFct_GetConfigArea
000002d4 44             8230 	.byte	68
000002d5 9f             8231 	.byte	159
000002d6 00             8232 	.byte	0
000002d7 40             8233 	.byte	64

                                                                      Page 152
                                                              D:\TEMP\gh_00001gs1.s
000002d8 9d             8234 	.byte	157
000002d9 04             8235 	.byte	4
000002da 40             8236 	.byte	64
000002db 9c             8237 	.byte	156
000002dc 08             8238 	.byte	8
000002dd 40             8239 	.byte	64
000002de 9b             8240 	.byte	155
000002df 0c             8241 	.byte	12
000002e0 40             8242 	.byte	64
000002e1 9a             8243 	.byte	154
000002e2 10             8244 	.byte	16
000002e3 40             8245 	.byte	64
000002e4 99             8246 	.byte	153
000002e5 14             8247 	.byte	20
000002e6 01             8248 	.byte	1
000002e7 00000000*      8249 	.word	.LDW52
000002eb 00             8250 	.byte	0
                        8251 .LDW_unq_2c:
                        8252 	.section	.debug_line
000006e1 000502         8253 	.byte	0,5,2
000006e4 00000000*      8254 	.word	_R_FCL_FCUFct_GetConfigArea
000006e8 03             8255 	.byte	3
000006e9 a208           8256 	.byte	162,8
000006eb 02             8257 	.byte	2
000006ec 00             8258 	.byte	0
000006ed 01             8259 	.byte	1
000006ee 06             8260 	.byte	6
000006ef 03             8261 	.byte	3
000006f0 07             8262 	.byte	7
000006f1 02             8263 	.byte	2
000006f2 04             8264 	.byte	4
000006f3 01             8265 	.byte	1
000006f4 000502         8266 	.byte	0,5,2
000006f7 00000000*      8267 	.word	.LDWlin5
000006fb 0b             8268 	.byte	11
000006fc 000502         8269 	.byte	0,5,2
000006ff 00000000*      8270 	.word	.LDWlin6
00000703 0c             8271 	.byte	12
00000704 000502         8272 	.byte	0,5,2
00000707 00000000*      8273 	.word	.LDWlin7
0000070b 0b             8274 	.byte	11
0000070c 0b             8275 	.byte	11
0000070d 23             8276 	.byte	35
0000070e 000502         8277 	.byte	0,5,2
00000711 00000000*      8278 	.word	.LDWlin8
00000715 0b             8279 	.byte	11
00000716 0b             8280 	.byte	11
00000717 02             8281 	.byte	2
00000718 00             8282 	.byte	0
00000719 2b             8283 	.byte	43
0000071a 0b             8284 	.byte	11
0000071b 1b             8285 	.byte	27
0000071c 000502         8286 	.byte	0,5,2
0000071f 00000000*      8287 	.word	.LDWlin9
00000723 0b             8288 	.byte	11
00000724 0b             8289 	.byte	11
00000725 02             8290 	.byte	2
00000726 00             8291 	.byte	0
00000727 000502         8292 	.byte	0,5,2
0000072a 00000000*      8293 	.word	.LDWlin10
0000072e 0b             8294 	.byte	11

                                                                      Page 153
                                                              D:\TEMP\gh_00001gs1.s
0000072f 0b             8295 	.byte	11
00000730 1b             8296 	.byte	27
00000731 000502         8297 	.byte	0,5,2
00000734 00000000*      8298 	.word	.LDWlin11
00000738 0b             8299 	.byte	11
00000739 0c             8300 	.byte	12
0000073a 0c             8301 	.byte	12
0000073b 1c             8302 	.byte	28
0000073c 02             8303 	.byte	2
0000073d 00             8304 	.byte	0
0000073e 02             8305 	.byte	2
0000073f 00             8306 	.byte	0
00000740 02             8307 	.byte	2
00000741 00             8308 	.byte	0
00000742 02             8309 	.byte	2
00000743 00             8310 	.byte	0
00000744 02             8311 	.byte	2
00000745 00             8312 	.byte	0
00000746 03             8313 	.byte	3
00000747 04             8314 	.byte	4
00000748 02             8315 	.byte	2
00000749 00             8316 	.byte	0
0000074a 01             8317 	.byte	1
0000074b 02             8318 	.byte	2
0000074c 04             8319 	.byte	4
0000074d 000502         8320 	.byte	0,5,2
00000750 00000000*      8321 	.word	.LDWlin12
00000754 0c             8322 	.byte	12
00000755 000502         8323 	.byte	0,5,2
00000758 00000000*      8324 	.word	.LDWlin13
0000075c 0b             8325 	.byte	11
0000075d 000502         8326 	.byte	0,5,2
00000760 00000000*      8327 	.word	.LDWlin14
00000764 0b             8328 	.byte	11
00000765 1b             8329 	.byte	27
00000766 000502         8330 	.byte	0,5,2
00000769 00000000*      8331 	.word	.LDWlin15
0000076d 0b             8332 	.byte	11
0000076e 0c             8333 	.byte	12
0000076f 000502         8334 	.byte	0,5,2
00000772 00000000*      8335 	.word	.LDWlin16
00000776 0b             8336 	.byte	11
00000777 000502         8337 	.byte	0,5,2
0000077a 00000000*      8338 	.word	.LDWlin17
0000077e 0c             8339 	.byte	12
0000077f 23             8340 	.byte	35
00000780 02             8341 	.byte	2
00000781 04             8342 	.byte	4
00000782 000101         8343 	.byte	0,1,1
                        8344 	.section	.debug_info
                        8345 .LDW_3bdbbe8:
00001a28 1d             8346 	.byte	29
00001a29 00000000*      8347 	.word	.LDW42
00001a2d 00000000*      8348 	.word	.LDW52
                        8349 
                        8350 .LDW_3bdcce0:
00001a31 05             8351 	.byte	5
00001a32 6461746100     8352 	.strz	"data"
00001a37 a408           8353 	.byte	164,8
00001a39 0e             8354 	.byte	14
00001a3a 01             8355 	.byte	1

                                                                      Page 154
                                                              D:\TEMP\gh_00001gs1.s
00001a3b 00000000*      8356 	.word	.LDW_3b838b8
00001a3f 00             8357 	.byte	0
00001a40 00             8358 	.byte	0
                        8359 
                        8360 .LDW_3bdcd38:
00001a41 04             8361 	.byte	4
00001a42 6900           8362 	.strz	"i"
00001a44 a508           8363 	.byte	165,8
00001a46 0e             8364 	.byte	14
00001a47 01             8365 	.byte	1
00001a48 00000000*      8366 	.word	.LDW_3b838b8
00001a4c 00             8367 	.byte	0
00001a4d 00             8368 	.byte	0
00001a4e 016c           8369 	.byte	1,108
                        8370 
                        8371 .LDW_3bdcd90:
00001a50 04             8372 	.byte	4
00001a51 627566416464   8373 	.strz	"bufAddr"
00001a57 7200 
00001a59 a608           8374 	.byte	166,8
00001a5b 0e             8375 	.byte	14
00001a5c 01             8376 	.byte	1
00001a5d 00000000*      8377 	.word	.LDW_3b83718
00001a61 00             8378 	.byte	0
00001a62 00             8379 	.byte	0
00001a63 016b           8380 	.byte	1,107
                        8381 
                        8382 .LDW_3bdcde8:
00001a65 04             8383 	.byte	4
00001a66 726561644164   8384 	.strz	"readAddr"
00001a6c 647200 
00001a6f a708           8385 	.byte	167,8
00001a71 0e             8386 	.byte	14
00001a72 01             8387 	.byte	1
00001a73 00000000*      8388 	.word	.LDW_3b83718
00001a77 00             8389 	.byte	0
00001a78 00             8390 	.byte	0
00001a79 016d           8391 	.byte	1,109
                        8392 
                        8393 .LDW_3bdce40:
00001a7b 04             8394 	.byte	4
00001a7c 636e7400       8395 	.strz	"cnt"
00001a80 a808           8396 	.byte	168,8
00001a82 0e             8397 	.byte	14
00001a83 01             8398 	.byte	1
00001a84 00000000*      8399 	.word	.LDW_3b83718
00001a88 00             8400 	.byte	0
00001a89 00             8401 	.byte	0
00001a8a 0169           8402 	.byte	1,105
                        8403 
00001a8c 00             8404 	.byte	0
                        8405 
00001a8d 00             8406 	.byte	0
                        8407 
                        8408 .LDW_3bf1998:
00001a8e 13             8409 	.byte	19
00001a8f 525f46434c5f   8410 	.strz	"R_FCL_FCUFct_SetConfigArea"
00001a95 464355466374 
00001a9b 5f536574436f 
00001aa1 6e6669674172 
00001aa7 656100 

                                                                      Page 155
                                                              D:\TEMP\gh_00001gs1.s
00001aaa e808           8411 	.byte	232,8
00001aac 06             8412 	.byte	6
00001aad 01             8413 	.byte	1
00001aae 00000000*      8414 	.word	_R_FCL_FCUFct_SetConfigArea
00001ab2 00000000*      8415 	.word	___ghs_eofn_R_FCL_FCUFct_SetConfigArea
00001ab6 0153           8416 	.byte	1,83
00001ab8 8280808008     8417 	.byte	130,128,128,128,8
00001abd 04             8418 	.byte	4
00001abe 03             8419 	.byte	3
00001abf 04             8420 	.byte	4
00001ac0 00             8421 	.byte	0
00001ac1 00             8422 	.byte	0
00001ac2 00             8423 	.byte	0
00001ac3 01             8424 	.byte	1
00001ac4 01             8425 	.byte	1
00001ac5 00             8426 	.byte	0
00001ac6 01             8427 	.byte	1
                        8428 
                        8429 	.section	.debug_frame
                        8430 .LDW_4330528:
000002ec 00000000*      8431 	.word	.LDW_unq_2e-.LDW_unq_2d
                        8432 .LDW_unq_2d:
000002f0 00000000*      8433 	.word	.LDW_3c6e800
000002f4 00000000*      8434 	.word	_R_FCL_FCUFct_SetConfigArea
000002f8 00000000*      8435 	.word	___ghs_eofn_R_FCL_FCUFct_SetConfigArea-_R_FCL_FCUFct_SetConfigArea
000002fc 44             8436 	.byte	68
000002fd 9f             8437 	.byte	159
000002fe 00             8438 	.byte	0
000002ff 01             8439 	.byte	1
00000300 00000000*      8440 	.word	.LDW35
                        8441 .LDW_unq_2e:
                        8442 	.section	.debug_line
00000785 000502         8443 	.byte	0,5,2
00000788 00000000*      8444 	.word	_R_FCL_FCUFct_SetConfigArea
0000078c 03             8445 	.byte	3
0000078d e808           8446 	.byte	232,8
0000078f 02             8447 	.byte	2
00000790 00             8448 	.byte	0
00000791 01             8449 	.byte	1
00000792 06             8450 	.byte	6
00000793 03             8451 	.byte	3
00000794 04             8452 	.byte	4
00000795 02             8453 	.byte	2
00000796 04             8454 	.byte	4
00000797 01             8455 	.byte	1
00000798 000502         8456 	.byte	0,5,2
0000079b 00000000*      8457 	.word	.LDWlin97
0000079f 0b             8458 	.byte	11
000007a0 0c             8459 	.byte	12
000007a1 000502         8460 	.byte	0,5,2
000007a4 00000000*      8461 	.word	.LDWlin98
000007a8 0b             8462 	.byte	11
000007a9 0c             8463 	.byte	12
000007aa 0b             8464 	.byte	11
000007ab 000502         8465 	.byte	0,5,2
000007ae 00000000*      8466 	.word	.LDWlin99
000007b2 0b             8467 	.byte	11
000007b3 0d             8468 	.byte	13
000007b4 03             8469 	.byte	3
000007b5 7f             8470 	.byte	127
000007b6 02             8471 	.byte	2

                                                                      Page 156
                                                              D:\TEMP\gh_00001gs1.s
000007b7 08             8472 	.byte	8
000007b8 01             8473 	.byte	1
000007b9 000502         8474 	.byte	0,5,2
000007bc 00000000*      8475 	.word	.LDWlin100
000007c0 0c             8476 	.byte	12
000007c1 0b             8477 	.byte	11
000007c2 02             8478 	.byte	2
000007c3 00             8479 	.byte	0
000007c4 000502         8480 	.byte	0,5,2
000007c7 00000000*      8481 	.word	.LDWlin101
000007cb 0b             8482 	.byte	11
000007cc 0b             8483 	.byte	11
000007cd 000502         8484 	.byte	0,5,2
000007d0 00000000*      8485 	.word	.LDWlin102
000007d4 0b             8486 	.byte	11
000007d5 0b             8487 	.byte	11
000007d6 02             8488 	.byte	2
000007d7 00             8489 	.byte	0
000007d8 000502         8490 	.byte	0,5,2
000007db 00000000*      8491 	.word	.LDWlin103
000007df 0b             8492 	.byte	11
000007e0 0c             8493 	.byte	12
000007e1 33             8494 	.byte	51
000007e2 000502         8495 	.byte	0,5,2
000007e5 00000000*      8496 	.word	.LDWlin104
000007e9 0b             8497 	.byte	11
000007ea 0b             8498 	.byte	11
000007eb 02             8499 	.byte	2
000007ec 00             8500 	.byte	0
000007ed 000502         8501 	.byte	0,5,2
000007f0 00000000*      8502 	.word	.LDWlin105
000007f4 0b             8503 	.byte	11
000007f5 0c             8504 	.byte	12
000007f6 33             8505 	.byte	51
000007f7 000502         8506 	.byte	0,5,2
000007fa 00000000*      8507 	.word	.LDWlin106
000007fe 03             8508 	.byte	3
000007ff 08             8509 	.byte	8
00000800 02             8510 	.byte	2
00000801 00             8511 	.byte	0
00000802 01             8512 	.byte	1
00000803 03             8513 	.byte	3
00000804 79             8514 	.byte	121
00000805 02             8515 	.byte	2
00000806 04             8516 	.byte	4
00000807 01             8517 	.byte	1
00000808 0c             8518 	.byte	12
00000809 0b             8519 	.byte	11
0000080a 13             8520 	.byte	19
0000080b 13             8521 	.byte	19
0000080c 000502         8522 	.byte	0,5,2
0000080f 00000000*      8523 	.word	.LDWlin107
00000813 0d             8524 	.byte	13
00000814 0b             8525 	.byte	11
00000815 000502         8526 	.byte	0,5,2
00000818 00000000*      8527 	.word	.LDWlin108
0000081c 0b             8528 	.byte	11
0000081d 0b             8529 	.byte	11
0000081e 02             8530 	.byte	2
0000081f 00             8531 	.byte	0
00000820 000502         8532 	.byte	0,5,2

                                                                      Page 157
                                                              D:\TEMP\gh_00001gs1.s
00000823 00000000*      8533 	.word	.LDWlin109
00000827 0b             8534 	.byte	11
00000828 0b             8535 	.byte	11
00000829 000502         8536 	.byte	0,5,2
0000082c 00000000*      8537 	.word	.LDWlin110
00000830 0b             8538 	.byte	11
00000831 0b             8539 	.byte	11
00000832 02             8540 	.byte	2
00000833 00             8541 	.byte	0
00000834 000502         8542 	.byte	0,5,2
00000837 00000000*      8543 	.word	.LDWlin111
0000083b 0b             8544 	.byte	11
0000083c 0b             8545 	.byte	11
0000083d 000502         8546 	.byte	0,5,2
00000840 00000000*      8547 	.word	.LDWlin112
00000844 0b             8548 	.byte	11
00000845 0b             8549 	.byte	11
00000846 02             8550 	.byte	2
00000847 00             8551 	.byte	0
00000848 000502         8552 	.byte	0,5,2
0000084b 00000000*      8553 	.word	.LDWlin113
0000084f 0b             8554 	.byte	11
00000850 0b             8555 	.byte	11
00000851 000502         8556 	.byte	0,5,2
00000854 00000000*      8557 	.word	.LDWlin114
00000858 0b             8558 	.byte	11
00000859 0c             8559 	.byte	12
0000085a 0b             8560 	.byte	11
0000085b 03             8561 	.byte	3
0000085c 04             8562 	.byte	4
0000085d 02             8563 	.byte	2
0000085e 06             8564 	.byte	6
0000085f 01             8565 	.byte	1
00000860 02             8566 	.byte	2
00000861 00             8567 	.byte	0
00000862 02             8568 	.byte	2
00000863 00             8569 	.byte	0
00000864 02             8570 	.byte	2
00000865 00             8571 	.byte	0
00000866 02             8572 	.byte	2
00000867 00             8573 	.byte	0
00000868 02             8574 	.byte	2
00000869 00             8575 	.byte	0
0000086a 02             8576 	.byte	2
0000086b 00             8577 	.byte	0
0000086c 02             8578 	.byte	2
0000086d 00             8579 	.byte	0
0000086e 03             8580 	.byte	3
0000086f 04             8581 	.byte	4
00000870 02             8582 	.byte	2
00000871 00             8583 	.byte	0
00000872 01             8584 	.byte	1
00000873 23             8585 	.byte	35
00000874 1b             8586 	.byte	27
00000875 2b             8587 	.byte	43
00000876 1b             8588 	.byte	27
00000877 02             8589 	.byte	2
00000878 04             8590 	.byte	4
00000879 0c             8591 	.byte	12
0000087a 03             8592 	.byte	3
0000087b 7e             8593 	.byte	126

                                                                      Page 158
                                                              D:\TEMP\gh_00001gs1.s
0000087c 02             8594 	.byte	2
0000087d 04             8595 	.byte	4
0000087e 01             8596 	.byte	1
0000087f 000502         8597 	.byte	0,5,2
00000882 00000000*      8598 	.word	.LDWlin115
00000886 0d             8599 	.byte	13
00000887 0b             8600 	.byte	11
00000888 15             8601 	.byte	21
00000889 03             8602 	.byte	3
0000088a 7e             8603 	.byte	126
0000088b 02             8604 	.byte	2
0000088c 04             8605 	.byte	4
0000088d 01             8606 	.byte	1
0000088e 02             8607 	.byte	2
0000088f 00             8608 	.byte	0
00000890 02             8609 	.byte	2
00000891 00             8610 	.byte	0
00000892 02             8611 	.byte	2
00000893 00             8612 	.byte	0
00000894 02             8613 	.byte	2
00000895 00             8614 	.byte	0
00000896 02             8615 	.byte	2
00000897 00             8616 	.byte	0
00000898 02             8617 	.byte	2
00000899 00             8618 	.byte	0
0000089a 02             8619 	.byte	2
0000089b 00             8620 	.byte	0
0000089c 0b             8621 	.byte	11
0000089d 1c             8622 	.byte	28
0000089e 02             8623 	.byte	2
0000089f 00             8624 	.byte	0
000008a0 0b             8625 	.byte	11
000008a1 02             8626 	.byte	2
000008a2 04             8627 	.byte	4
000008a3 000101         8628 	.byte	0,1,1
                        8629 	.section	.debug_info
                        8630 .LDW_3bdbc18:
00001ac7 1d             8631 	.byte	29
00001ac8 00000000*      8632 	.word	.LDW25
00001acc 00000000*      8633 	.word	.LDW35
                        8634 
                        8635 .LDW_3bdce98:
00001ad0 04             8636 	.byte	4
00001ad1 666c616700     8637 	.strz	"flag"
00001ad6 ea08           8638 	.byte	234,8
00001ad8 0e             8639 	.byte	14
00001ad9 01             8640 	.byte	1
00001ada 00000000*      8641 	.word	.LDW_3b83718
00001ade 00             8642 	.byte	0
00001adf 00             8643 	.byte	0
00001ae0 0161           8644 	.byte	1,97
                        8645 
                        8646 .LDW_3bdcef0:
00001ae2 04             8647 	.byte	4
00001ae3 6900           8648 	.strz	"i"
00001ae5 eb08           8649 	.byte	235,8
00001ae7 0e             8650 	.byte	14
00001ae8 01             8651 	.byte	1
00001ae9 00000000*      8652 	.word	.LDW_3b83a00
00001aed 00             8653 	.byte	0
00001aee 00             8654 	.byte	0

                                                                      Page 159
                                                              D:\TEMP\gh_00001gs1.s
00001aef 015f           8655 	.byte	1,95
                        8656 
00001af1 00             8657 	.byte	0
                        8658 
00001af2 00             8659 	.byte	0
                        8660 
                        8661 .LDW_3bf1a30:
00001af3 13             8662 	.byte	19
00001af4 525f46434c5f   8663 	.strz	"R_FCL_FCUFct_GetSecurityFlag"
00001afa 464355466374 
00001b00 5f4765745365 
00001b06 637572697479 
00001b0c 466c616700 
00001b11 cf09           8664 	.byte	207,9
00001b13 06             8665 	.byte	6
00001b14 01             8666 	.byte	1
00001b15 00000000*      8667 	.word	_R_FCL_FCUFct_GetSecurityFlag
00001b19 00000000*      8668 	.word	___ghs_eofn_R_FCL_FCUFct_GetSecurityFlag
00001b1d 0153           8669 	.byte	1,83
00001b1f 828080800a     8670 	.byte	130,128,128,128,10
00001b24 08             8671 	.byte	8
00001b25 03             8672 	.byte	3
00001b26 08             8673 	.byte	8
00001b27 00             8674 	.byte	0
00001b28 00             8675 	.byte	0
00001b29 00             8676 	.byte	0
00001b2a 01             8677 	.byte	1
00001b2b 01             8678 	.byte	1
00001b2c 00             8679 	.byte	0
00001b2d 01             8680 	.byte	1
                        8681 
                        8682 	.section	.debug_frame
                        8683 .LDW_4330628:
00000304 00000000*      8684 	.word	.LDW_unq_30-.LDW_unq_2f
                        8685 .LDW_unq_2f:
00000308 00000000*      8686 	.word	.LDW_3c6e800
0000030c 00000000*      8687 	.word	_R_FCL_FCUFct_GetSecurityFlag
00000310 00000000*      8688 	.word	___ghs_eofn_R_FCL_FCUFct_GetSecurityFlag-_R_FCL_FCUFct_GetSecurityFlag
00000314 44             8689 	.byte	68
00000315 9f             8690 	.byte	159
00000316 00             8691 	.byte	0
00000317 40             8692 	.byte	64
00000318 9d             8693 	.byte	157
00000319 04             8694 	.byte	4
0000031a 01             8695 	.byte	1
0000031b 00000000*      8696 	.word	.LDW55
0000031f 00             8697 	.byte	0
                        8698 .LDW_unq_30:
                        8699 	.section	.debug_line
000008a6 000502         8700 	.byte	0,5,2
000008a9 00000000*      8701 	.word	_R_FCL_FCUFct_GetSecurityFlag
000008ad 03             8702 	.byte	3
000008ae cf09           8703 	.byte	207,9
000008b0 02             8704 	.byte	2
000008b1 00             8705 	.byte	0
000008b2 01             8706 	.byte	1
000008b3 06             8707 	.byte	6
000008b4 1d             8708 	.byte	29
000008b5 000502         8709 	.byte	0,5,2
000008b8 00000000*      8710 	.word	.LDWlin116
000008bc 0b             8711 	.byte	11

                                                                      Page 160
                                                              D:\TEMP\gh_00001gs1.s
000008bd 0b             8712 	.byte	11
000008be 000502         8713 	.byte	0,5,2
000008c1 00000000*      8714 	.word	.LDWlin117
000008c5 0b             8715 	.byte	11
000008c6 0b             8716 	.byte	11
000008c7 02             8717 	.byte	2
000008c8 00             8718 	.byte	0
000008c9 000502         8719 	.byte	0,5,2
000008cc 00000000*      8720 	.word	.LDWlin118
000008d0 0b             8721 	.byte	11
000008d1 0b             8722 	.byte	11
000008d2 000502         8723 	.byte	0,5,2
000008d5 00000000*      8724 	.word	.LDWlin119
000008d9 0b             8725 	.byte	11
000008da 0b             8726 	.byte	11
000008db 02             8727 	.byte	2
000008dc 00             8728 	.byte	0
000008dd 000502         8729 	.byte	0,5,2
000008e0 00000000*      8730 	.word	.LDWlin120
000008e4 0b             8731 	.byte	11
000008e5 0b             8732 	.byte	11
000008e6 000502         8733 	.byte	0,5,2
000008e9 00000000*      8734 	.word	.LDWlin121
000008ed 0b             8735 	.byte	11
000008ee 0b             8736 	.byte	11
000008ef 02             8737 	.byte	2
000008f0 00             8738 	.byte	0
000008f1 000502         8739 	.byte	0,5,2
000008f4 00000000*      8740 	.word	.LDWlin122
000008f8 0b             8741 	.byte	11
000008f9 0b             8742 	.byte	11
000008fa 000502         8743 	.byte	0,5,2
000008fd 00000000*      8744 	.word	.LDWlin123
00000901 0b             8745 	.byte	11
00000902 0c             8746 	.byte	12
00000903 0b             8747 	.byte	11
00000904 2b             8748 	.byte	43
00000905 02             8749 	.byte	2
00000906 00             8750 	.byte	0
00000907 02             8751 	.byte	2
00000908 00             8752 	.byte	0
00000909 02             8753 	.byte	2
0000090a 00             8754 	.byte	0
0000090b 02             8755 	.byte	2
0000090c 00             8756 	.byte	0
0000090d 02             8757 	.byte	2
0000090e 00             8758 	.byte	0
0000090f 02             8759 	.byte	2
00000910 00             8760 	.byte	0
00000911 02             8761 	.byte	2
00000912 00             8762 	.byte	0
00000913 0c             8763 	.byte	12
00000914 000502         8764 	.byte	0,5,2
00000917 00000000*      8765 	.word	.LDWlin124
0000091b 0c             8766 	.byte	12
0000091c 23             8767 	.byte	35
0000091d 02             8768 	.byte	2
0000091e 04             8769 	.byte	4
0000091f 000101         8770 	.byte	0,1,1
                        8771 	.section	.debug_info
                        8772 .LDW_3bdbc48:

                                                                      Page 161
                                                              D:\TEMP\gh_00001gs1.s
00001b2e 1d             8773 	.byte	29
00001b2f 00000000*      8774 	.word	.LDW45
00001b33 00000000*      8775 	.word	.LDW55
                        8776 
                        8777 .LDW_3bdcf48:
00001b37 04             8778 	.byte	4
00001b38 6461746100     8779 	.strz	"data"
00001b3d d109           8780 	.byte	209,9
00001b3f 0e             8781 	.byte	14
00001b40 01             8782 	.byte	1
00001b41 00000000*      8783 	.word	.LDW_3b83718
00001b45 00             8784 	.byte	0
00001b46 00             8785 	.byte	0
00001b47 0157           8786 	.byte	1,87
                        8787 
00001b49 00             8788 	.byte	0
                        8789 
00001b4a 00             8790 	.byte	0
                        8791 
                        8792 .LDW_3bf1ac8:
00001b4b 13             8793 	.byte	19
00001b4c 525f46434c5f   8794 	.strz	"R_FCL_FCUFct_GetBlockCnt"
00001b52 464355466374 
00001b58 5f476574426c 
00001b5e 6f636b436e74 
00001b64 00 
00001b65 840a           8795 	.byte	132,10
00001b67 06             8796 	.byte	6
00001b68 01             8797 	.byte	1
00001b69 00000000*      8798 	.word	_R_FCL_FCUFct_GetBlockCnt
00001b6d 00000000*      8799 	.word	___ghs_eofn_R_FCL_FCUFct_GetBlockCnt
00001b71 0153           8800 	.byte	1,83
00001b73 828080800a     8801 	.byte	130,128,128,128,10
00001b78 08             8802 	.byte	8
00001b79 03             8803 	.byte	3
00001b7a 08             8804 	.byte	8
00001b7b 00             8805 	.byte	0
00001b7c 00             8806 	.byte	0
00001b7d 00             8807 	.byte	0
00001b7e 01             8808 	.byte	1
00001b7f 01             8809 	.byte	1
00001b80 00             8810 	.byte	0
00001b81 01             8811 	.byte	1
                        8812 
                        8813 	.section	.debug_frame
                        8814 .LDW_4330728:
00000320 00000000*      8815 	.word	.LDW_unq_32-.LDW_unq_31
                        8816 .LDW_unq_31:
00000324 00000000*      8817 	.word	.LDW_3c6e800
00000328 00000000*      8818 	.word	_R_FCL_FCUFct_GetBlockCnt
0000032c 00000000*      8819 	.word	___ghs_eofn_R_FCL_FCUFct_GetBlockCnt-_R_FCL_FCUFct_GetBlockCnt
00000330 44             8820 	.byte	68
00000331 9f             8821 	.byte	159
00000332 00             8822 	.byte	0
00000333 40             8823 	.byte	64
00000334 9d             8824 	.byte	157
00000335 04             8825 	.byte	4
00000336 01             8826 	.byte	1
00000337 00000000*      8827 	.word	.LDW75
0000033b 44             8828 	.byte	68
0000033c df             8829 	.byte	223

                                                                      Page 162
                                                              D:\TEMP\gh_00001gs1.s
0000033d 40             8830 	.byte	64
0000033e dd             8831 	.byte	221
0000033f 00             8832 	.byte	0
                        8833 .LDW_unq_32:
                        8834 	.section	.debug_line
00000922 000502         8835 	.byte	0,5,2
00000925 00000000*      8836 	.word	_R_FCL_FCUFct_GetBlockCnt
00000929 03             8837 	.byte	3
0000092a 840a           8838 	.byte	132,10
0000092c 02             8839 	.byte	2
0000092d 00             8840 	.byte	0
0000092e 01             8841 	.byte	1
0000092f 06             8842 	.byte	6
00000930 1b             8843 	.byte	27
00000931 000502         8844 	.byte	0,5,2
00000934 00000000*      8845 	.word	.LDWlin125
00000938 0d             8846 	.byte	13
00000939 23             8847 	.byte	35
0000093a 02             8848 	.byte	2
0000093b 04             8849 	.byte	4
0000093c 000101         8850 	.byte	0,1,1
                        8851 	.section	.debug_info
                        8852 .LDW_3bdbc78:
00001b82 1d             8853 	.byte	29
00001b83 00000000*      8854 	.word	.LDW65
00001b87 00000000*      8855 	.word	.LDW75
                        8856 
00001b8b 00             8857 	.byte	0
                        8858 
00001b8c 00             8859 	.byte	0
                        8860 
                        8861 .LDW_3bf1b60:
00001b8d 13             8862 	.byte	19
00001b8e 525f46434c5f   8863 	.strz	"R_FCL_FCUFct_GetDeviceName"
00001b94 464355466374 
00001b9a 5f4765744465 
00001ba0 766963654e61 
00001ba6 6d6500 
00001ba9 a30a           8864 	.byte	163,10
00001bab 06             8865 	.byte	6
00001bac 01             8866 	.byte	1
00001bad 00000000*      8867 	.word	_R_FCL_FCUFct_GetDeviceName
00001bb1 00000000*      8868 	.word	___ghs_eofn_R_FCL_FCUFct_GetDeviceName
00001bb5 0153           8869 	.byte	1,83
00001bb7 828080c00b     8870 	.byte	130,128,128,192,11
00001bbc 10             8871 	.byte	16
00001bbd 03             8872 	.byte	3
00001bbe 10             8873 	.byte	16
00001bbf 00             8874 	.byte	0
00001bc0 00             8875 	.byte	0
00001bc1 00             8876 	.byte	0
00001bc2 01             8877 	.byte	1
00001bc3 01             8878 	.byte	1
00001bc4 00             8879 	.byte	0
00001bc5 01             8880 	.byte	1
                        8881 
                        8882 	.section	.debug_frame
                        8883 .LDW_4330828:
00000340 00000000*      8884 	.word	.LDW_unq_34-.LDW_unq_33
                        8885 .LDW_unq_33:
00000344 00000000*      8886 	.word	.LDW_3c6e800

                                                                      Page 163
                                                              D:\TEMP\gh_00001gs1.s
00000348 00000000*      8887 	.word	_R_FCL_FCUFct_GetDeviceName
0000034c 00000000*      8888 	.word	___ghs_eofn_R_FCL_FCUFct_GetDeviceName-_R_FCL_FCUFct_GetDeviceName
00000350 44             8889 	.byte	68
00000351 9f             8890 	.byte	159
00000352 00             8891 	.byte	0
00000353 40             8892 	.byte	64
00000354 9d             8893 	.byte	157
00000355 04             8894 	.byte	4
00000356 40             8895 	.byte	64
00000357 9c             8896 	.byte	156
00000358 08             8897 	.byte	8
00000359 40             8898 	.byte	64
0000035a 9b             8899 	.byte	155
0000035b 0c             8900 	.byte	12
0000035c 01             8901 	.byte	1
0000035d 00000000*      8902 	.word	.LDW95
00000361 00             8903 	.byte	0
00000362 00             8904 	.byte	0
00000363 00             8905 	.byte	0
                        8906 .LDW_unq_34:
                        8907 	.section	.debug_line
0000093f 000502         8908 	.byte	0,5,2
00000942 00000000*      8909 	.word	_R_FCL_FCUFct_GetDeviceName
00000946 03             8910 	.byte	3
00000947 a30a           8911 	.byte	163,10
00000949 02             8912 	.byte	2
0000094a 00             8913 	.byte	0
0000094b 01             8914 	.byte	1
0000094c 06             8915 	.byte	6
0000094d 03             8916 	.byte	3
0000094e 04             8917 	.byte	4
0000094f 02             8918 	.byte	2
00000950 04             8919 	.byte	4
00000951 01             8920 	.byte	1
00000952 24             8921 	.byte	36
00000953 02             8922 	.byte	2
00000954 08             8923 	.byte	8
00000955 0c             8924 	.byte	12
00000956 000502         8925 	.byte	0,5,2
00000959 00000000*      8926 	.word	.LDWlin126
0000095d 03             8927 	.byte	3
0000095e 7e             8928 	.byte	126
0000095f 02             8929 	.byte	2
00000960 00             8930 	.byte	0
00000961 01             8931 	.byte	1
00000962 000502         8932 	.byte	0,5,2
00000965 00000000*      8933 	.word	.LDWlin127
00000969 03             8934 	.byte	3
0000096a 04             8935 	.byte	4
0000096b 02             8936 	.byte	2
0000096c 00             8937 	.byte	0
0000096d 01             8938 	.byte	1
0000096e 0b             8939 	.byte	11
0000096f 23             8940 	.byte	35
00000970 02             8941 	.byte	2
00000971 04             8942 	.byte	4
00000972 000101         8943 	.byte	0,1,1
                        8944 	.section	.debug_info
                        8945 .LDW_3bdbca8:
00001bc6 1d             8946 	.byte	29
00001bc7 00000000*      8947 	.word	.LDW85

                                                                      Page 164
                                                              D:\TEMP\gh_00001gs1.s
00001bcb 00000000*      8948 	.word	.LDW95
                        8949 
                        8950 .LDW_3bdcfa0:
00001bcf 04             8951 	.byte	4
00001bd0 627566416464   8952 	.strz	"bufAddr"
00001bd6 7200 
00001bd8 a50a           8953 	.byte	165,10
00001bda 0e             8954 	.byte	14
00001bdb 01             8955 	.byte	1
00001bdc 00000000*      8956 	.word	.LDW_3b83718
00001be0 00             8957 	.byte	0
00001be1 00             8958 	.byte	0
00001be2 016c           8959 	.byte	1,108
                        8960 
                        8961 .LDW_3bdcff8:
00001be4 04             8962 	.byte	4
00001be5 6900           8963 	.strz	"i"
00001be7 a60a           8964 	.byte	166,10
00001be9 0e             8965 	.byte	14
00001bea 01             8966 	.byte	1
00001beb 00000000*      8967 	.word	.LDW_3b83a00
00001bef 00             8968 	.byte	0
00001bf0 00             8969 	.byte	0
00001bf1 016d           8970 	.byte	1,109
                        8971 
00001bf3 00             8972 	.byte	0
                        8973 
00001bf4 00             8974 	.byte	0
                        8975 
                        8976 .LDW_3bf1bf8:
00001bf5 13             8977 	.byte	19
00001bf6 525f46434c5f   8978 	.strz	"R_FCL_FCUFct_GetBlockEndAddr"
00001bfc 464355466374 
00001c02 5f476574426c 
00001c08 6f636b456e64 
00001c0e 4164647200 
00001c13 c90a           8979 	.byte	201,10
00001c15 06             8980 	.byte	6
00001c16 01             8981 	.byte	1
00001c17 00000000*      8982 	.word	_R_FCL_FCUFct_GetBlockEndAddr
00001c1b 00000000*      8983 	.word	___ghs_eofn_R_FCL_FCUFct_GetBlockEndAddr
00001c1f 0153           8984 	.byte	1,83
00001c21 828080800a     8985 	.byte	130,128,128,128,10
00001c26 08             8986 	.byte	8
00001c27 03             8987 	.byte	3
00001c28 08             8988 	.byte	8
00001c29 00             8989 	.byte	0
00001c2a 00             8990 	.byte	0
00001c2b 00             8991 	.byte	0
00001c2c 01             8992 	.byte	1
00001c2d 01             8993 	.byte	1
00001c2e 00             8994 	.byte	0
00001c2f 01             8995 	.byte	1
                        8996 
                        8997 	.section	.debug_frame
                        8998 .LDW_4330928:
00000364 00000000*      8999 	.word	.LDW_unq_36-.LDW_unq_35
                        9000 .LDW_unq_35:
00000368 00000000*      9001 	.word	.LDW_3c6e800
0000036c 00000000*      9002 	.word	_R_FCL_FCUFct_GetBlockEndAddr
00000370 00000000*      9003 	.word	___ghs_eofn_R_FCL_FCUFct_GetBlockEndAddr-_R_FCL_FCUFct_GetBlockEndAddr

                                                                      Page 165
                                                              D:\TEMP\gh_00001gs1.s
00000374 44             9004 	.byte	68
00000375 9f             9005 	.byte	159
00000376 00             9006 	.byte	0
00000377 40             9007 	.byte	64
00000378 9d             9008 	.byte	157
00000379 04             9009 	.byte	4
0000037a 01             9010 	.byte	1
0000037b 00000000*      9011 	.word	.LDW16
0000037f 00             9012 	.byte	0
                        9013 .LDW_unq_36:
                        9014 	.section	.debug_line
00000975 000502         9015 	.byte	0,5,2
00000978 00000000*      9016 	.word	_R_FCL_FCUFct_GetBlockEndAddr
0000097c 03             9017 	.byte	3
0000097d c90a           9018 	.byte	201,10
0000097f 02             9019 	.byte	2
00000980 00             9020 	.byte	0
00000981 01             9021 	.byte	1
00000982 06             9022 	.byte	6
00000983 03             9023 	.byte	3
00000984 05             9024 	.byte	5
00000985 02             9025 	.byte	2
00000986 04             9026 	.byte	4
00000987 01             9027 	.byte	1
00000988 000502         9028 	.byte	0,5,2
0000098b 00000000*      9029 	.word	.LDWlin128
0000098f 0b             9030 	.byte	11
00000990 0c             9031 	.byte	12
00000991 000502         9032 	.byte	0,5,2
00000994 00000000*      9033 	.word	.LDWlin129
00000998 0d             9034 	.byte	13
00000999 0c             9035 	.byte	12
0000099a 24             9036 	.byte	36
0000099b 000502         9037 	.byte	0,5,2
0000099e 00000000*      9038 	.word	.LDWlin130
000009a2 0b             9039 	.byte	11
000009a3 000502         9040 	.byte	0,5,2
000009a6 00000000*      9041 	.word	.LDWlin131
000009aa 03             9042 	.byte	3
000009ab 05             9043 	.byte	5
000009ac 02             9044 	.byte	2
000009ad 00             9045 	.byte	0
000009ae 01             9046 	.byte	1
000009af 02             9047 	.byte	2
000009b0 00             9048 	.byte	0
000009b1 0b             9049 	.byte	11
000009b2 0c             9050 	.byte	12
000009b3 0c             9051 	.byte	12
000009b4 000502         9052 	.byte	0,5,2
000009b7 00000000*      9053 	.word	.LDWlin132
000009bb 0b             9054 	.byte	11
000009bc 0b             9055 	.byte	11
000009bd 000502         9056 	.byte	0,5,2
000009c0 00000000*      9057 	.word	.LDWlin133
000009c4 0b             9058 	.byte	11
000009c5 0c             9059 	.byte	12
000009c6 1b             9060 	.byte	27
000009c7 000502         9061 	.byte	0,5,2
000009ca 00000000*      9062 	.word	.LDWlin134
000009ce 0c             9063 	.byte	12
000009cf 0c             9064 	.byte	12

                                                                      Page 166
                                                              D:\TEMP\gh_00001gs1.s
000009d0 0c             9065 	.byte	12
000009d1 000502         9066 	.byte	0,5,2
000009d4 00000000*      9067 	.word	.LDWlin135
000009d8 0d             9068 	.byte	13
000009d9 0b             9069 	.byte	11
000009da 24             9070 	.byte	36
000009db 000502         9071 	.byte	0,5,2
000009de 00000000*      9072 	.word	.LDWlin136
000009e2 0d             9073 	.byte	13
000009e3 0c             9074 	.byte	12
000009e4 0c             9075 	.byte	12
000009e5 25             9076 	.byte	37
000009e6 34             9077 	.byte	52
000009e7 02             9078 	.byte	2
000009e8 00             9079 	.byte	0
000009e9 0b             9080 	.byte	11
000009ea 02             9081 	.byte	2
000009eb 00             9082 	.byte	0
000009ec 03             9083 	.byte	3
000009ed 68             9084 	.byte	104
000009ee 02             9085 	.byte	2
000009ef 00             9086 	.byte	0
000009f0 01             9087 	.byte	1
000009f1 06             9088 	.byte	6
000009f2 03             9089 	.byte	3
000009f3 16             9090 	.byte	22
000009f4 02             9091 	.byte	2
000009f5 00             9092 	.byte	0
000009f6 01             9093 	.byte	1
000009f7 03             9094 	.byte	3
000009f8 77             9095 	.byte	119
000009f9 02             9096 	.byte	2
000009fa 00             9097 	.byte	0
000009fb 01             9098 	.byte	1
000009fc 03             9099 	.byte	3
000009fd 0c             9100 	.byte	12
000009fe 02             9101 	.byte	2
000009ff 00             9102 	.byte	0
00000a00 01             9103 	.byte	1
00000a01 000502         9104 	.byte	0,5,2
00000a04 00000000*      9105 	.word	.LDWlin137
00000a08 03             9106 	.byte	3
00000a09 5a             9107 	.byte	90
00000a0a 02             9108 	.byte	2
00000a0b 00             9109 	.byte	0
00000a0c 01             9110 	.byte	1
00000a0d 06             9111 	.byte	6
00000a0e 03             9112 	.byte	3
00000a0f 27             9113 	.byte	39
00000a10 02             9114 	.byte	2
00000a11 00             9115 	.byte	0
00000a12 01             9116 	.byte	1
00000a13 0c             9117 	.byte	12
00000a14 0b             9118 	.byte	11
00000a15 2b             9119 	.byte	43
00000a16 02             9120 	.byte	2
00000a17 00             9121 	.byte	0
00000a18 0b             9122 	.byte	11
00000a19 02             9123 	.byte	2
00000a1a 00             9124 	.byte	0
00000a1b 0b             9125 	.byte	11

                                                                      Page 167
                                                              D:\TEMP\gh_00001gs1.s
00000a1c 02             9126 	.byte	2
00000a1d 04             9127 	.byte	4
00000a1e 000101         9128 	.byte	0,1,1
                        9129 	.section	.debug_info
                        9130 .LDW_3bdbcd8:
00001c30 1d             9131 	.byte	29
00001c31 00000000*      9132 	.word	.LDW06
00001c35 00000000*      9133 	.word	.LDW16
                        9134 
                        9135 .LDW_3bdd050:
00001c39 04             9136 	.byte	4
00001c3a 626c6b00       9137 	.strz	"blk"
00001c3e cb0a           9138 	.byte	203,10
00001c40 0e             9139 	.byte	14
00001c41 01             9140 	.byte	1
00001c42 00000000*      9141 	.word	.LDW_3b83718
00001c46 00             9142 	.byte	0
00001c47 00             9143 	.byte	0
00001c48 0163           9144 	.byte	1,99
                        9145 
                        9146 .LDW_3bdd0a8:
00001c4a 04             9147 	.byte	4
00001c4b 6461746100     9148 	.strz	"data"
00001c50 cc0a           9149 	.byte	204,10
00001c52 0e             9150 	.byte	14
00001c53 01             9151 	.byte	1
00001c54 00000000*      9152 	.word	.LDW_3b83718
00001c58 00             9153 	.byte	0
00001c59 00             9154 	.byte	0
00001c5a 0157           9155 	.byte	1,87
                        9156 
00001c5c 00             9157 	.byte	0
                        9158 
00001c5d 00             9159 	.byte	0
                        9160 
                        9161 .LDW_3bf1c90:
00001c5e 13             9162 	.byte	19
00001c5f 525f46434c5f   9163 	.strz	"R_FCL_FCUFct_PrepareEnvironment"
00001c65 464355466374 
00001c6b 5f5072657061 
00001c71 7265456e7669 
00001c77 726f6e6d656e 
00001c7d 7400 
00001c7f a70b           9164 	.byte	167,11
00001c81 06             9165 	.byte	6
00001c82 01             9166 	.byte	1
00001c83 00000000*      9167 	.word	_R_FCL_FCUFct_PrepareEnvironment
00001c87 00000000*      9168 	.word	___ghs_eofn_R_FCL_FCUFct_PrepareEnvironment
00001c8b 0153           9169 	.byte	1,83
00001c8d 828080800b     9170 	.byte	130,128,128,128,11
00001c92 0c             9171 	.byte	12
00001c93 03             9172 	.byte	3
00001c94 0c             9173 	.byte	12
00001c95 00             9174 	.byte	0
00001c96 00             9175 	.byte	0
00001c97 00             9176 	.byte	0
00001c98 01             9177 	.byte	1
00001c99 01             9178 	.byte	1
00001c9a 00             9179 	.byte	0
00001c9b 01             9180 	.byte	1
                        9181 

                                                                      Page 168
                                                              D:\TEMP\gh_00001gs1.s
                        9182 	.section	.debug_frame
                        9183 .LDW_4330b28:
00000380 00000000*      9184 	.word	.LDW_unq_38-.LDW_unq_37
                        9185 .LDW_unq_37:
00000384 00000000*      9186 	.word	.LDW_3c6e800
00000388 00000000*      9187 	.word	_R_FCL_FCUFct_PrepareEnvironment
0000038c 00000000*      9188 	.word	___ghs_eofn_R_FCL_FCUFct_PrepareEnvironment-_R_FCL_FCUFct_PrepareEnvironment
00000390 44             9189 	.byte	68
00000391 9f             9190 	.byte	159
00000392 00             9191 	.byte	0
00000393 40             9192 	.byte	64
00000394 9d             9193 	.byte	157
00000395 04             9194 	.byte	4
00000396 40             9195 	.byte	64
00000397 9c             9196 	.byte	156
00000398 08             9197 	.byte	8
00000399 01             9198 	.byte	1
0000039a 00000000*      9199 	.word	.LDW56
0000039e 00             9200 	.byte	0
0000039f 00             9201 	.byte	0
                        9202 .LDW_unq_38:
                        9203 	.section	.debug_line
00000a21 000502         9204 	.byte	0,5,2
00000a24 00000000*      9205 	.word	_R_FCL_FCUFct_PrepareEnvironment
00000a28 03             9206 	.byte	3
00000a29 a70b           9207 	.byte	167,11
00000a2b 02             9208 	.byte	2
00000a2c 00             9209 	.byte	0
00000a2d 01             9210 	.byte	1
00000a2e 06             9211 	.byte	6
00000a2f 03             9212 	.byte	3
00000a30 04             9213 	.byte	4
00000a31 02             9214 	.byte	2
00000a32 04             9215 	.byte	4
00000a33 01             9216 	.byte	1
00000a34 000502         9217 	.byte	0,5,2
00000a37 00000000*      9218 	.word	.LDWlin158
00000a3b 0b             9219 	.byte	11
00000a3c 0b             9220 	.byte	11
00000a3d 000502         9221 	.byte	0,5,2
00000a40 00000000*      9222 	.word	.LDWlin159
00000a44 0b             9223 	.byte	11
00000a45 000502         9224 	.byte	0,5,2
00000a48 00000000*      9225 	.word	.LDWlin160
00000a4c 0b             9226 	.byte	11
00000a4d 03             9227 	.byte	3
00000a4e 04             9228 	.byte	4
00000a4f 02             9229 	.byte	2
00000a50 00             9230 	.byte	0
00000a51 01             9231 	.byte	1
00000a52 000502         9232 	.byte	0,5,2
00000a55 00000000*      9233 	.word	.LDWlin161
00000a59 03             9234 	.byte	3
00000a5a 04             9235 	.byte	4
00000a5b 02             9236 	.byte	2
00000a5c 00             9237 	.byte	0
00000a5d 01             9238 	.byte	1
00000a5e 000502         9239 	.byte	0,5,2
00000a61 00000000*      9240 	.word	.LDWlin162
00000a65 0b             9241 	.byte	11
00000a66 000502         9242 	.byte	0,5,2

                                                                      Page 169
                                                              D:\TEMP\gh_00001gs1.s
00000a69 00000000*      9243 	.word	.LDWlin163
00000a6d 0d             9244 	.byte	13
00000a6e 000502         9245 	.byte	0,5,2
00000a71 00000000*      9246 	.word	.LDWlin164
00000a75 0d             9247 	.byte	13
00000a76 23             9248 	.byte	35
00000a77 23             9249 	.byte	35
00000a78 000502         9250 	.byte	0,5,2
00000a7b 00000000*      9251 	.word	.LDWlin165
00000a7f 0c             9252 	.byte	12
00000a80 000502         9253 	.byte	0,5,2
00000a83 00000000*      9254 	.word	.LDWlin166
00000a87 0b             9255 	.byte	11
00000a88 0c             9256 	.byte	12
00000a89 0b             9257 	.byte	11
00000a8a 1b             9258 	.byte	27
00000a8b 000502         9259 	.byte	0,5,2
00000a8e 00000000*      9260 	.word	.LDWlin167
00000a92 0b             9261 	.byte	11
00000a93 02             9262 	.byte	2
00000a94 00             9263 	.byte	0
00000a95 0b             9264 	.byte	11
00000a96 0b             9265 	.byte	11
00000a97 02             9266 	.byte	2
00000a98 00             9267 	.byte	0
00000a99 000502         9268 	.byte	0,5,2
00000a9c 00000000*      9269 	.word	.LDWlin168
00000aa0 0b             9270 	.byte	11
00000aa1 0b             9271 	.byte	11
00000aa2 1d             9272 	.byte	29
00000aa3 000502         9273 	.byte	0,5,2
00000aa6 00000000*      9274 	.word	.LDWlin169
00000aaa 0b             9275 	.byte	11
00000aab 0c             9276 	.byte	12
00000aac 000502         9277 	.byte	0,5,2
00000aaf 00000000*      9278 	.word	.LDWlin170
00000ab3 0b             9279 	.byte	11
00000ab4 000502         9280 	.byte	0,5,2
00000ab7 00000000*      9281 	.word	.LDWlin171
00000abb 0d             9282 	.byte	13
00000abc 000502         9283 	.byte	0,5,2
00000abf 00000000*      9284 	.word	.LDWlin172
00000ac3 0d             9285 	.byte	13
00000ac4 000502         9286 	.byte	0,5,2
00000ac7 00000000*      9287 	.word	.LDWlin173
00000acb 0b             9288 	.byte	11
00000acc 000502         9289 	.byte	0,5,2
00000acf 00000000*      9290 	.word	.LDWlin174
00000ad3 0b             9291 	.byte	11
00000ad4 0b             9292 	.byte	11
00000ad5 000502         9293 	.byte	0,5,2
00000ad8 00000000*      9294 	.word	.LDWlin175
00000adc 0b             9295 	.byte	11
00000add 0c             9296 	.byte	12
00000ade 0c             9297 	.byte	12
00000adf 000502         9298 	.byte	0,5,2
00000ae2 00000000*      9299 	.word	.LDWlin176
00000ae6 0b             9300 	.byte	11
00000ae7 02             9301 	.byte	2
00000ae8 00             9302 	.byte	0
00000ae9 0b             9303 	.byte	11

                                                                      Page 170
                                                              D:\TEMP\gh_00001gs1.s
00000aea 0c             9304 	.byte	12
00000aeb 0b             9305 	.byte	11
00000aec 000502         9306 	.byte	0,5,2
00000aef 00000000*      9307 	.word	.LDWlin177
00000af3 0d             9308 	.byte	13
00000af4 02             9309 	.byte	2
00000af5 00             9310 	.byte	0
00000af6 0b             9311 	.byte	11
00000af7 0b             9312 	.byte	11
00000af8 02             9313 	.byte	2
00000af9 00             9314 	.byte	0
00000afa 000502         9315 	.byte	0,5,2
00000afd 00000000*      9316 	.word	.LDWlin178
00000b01 0b             9317 	.byte	11
00000b02 0b             9318 	.byte	11
00000b03 000502         9319 	.byte	0,5,2
00000b06 00000000*      9320 	.word	.LDWlin179
00000b0a 0b             9321 	.byte	11
00000b0b 000502         9322 	.byte	0,5,2
00000b0e 00000000*      9323 	.word	.LDWlin180
00000b12 0b             9324 	.byte	11
00000b13 0b             9325 	.byte	11
00000b14 000502         9326 	.byte	0,5,2
00000b17 00000000*      9327 	.word	.LDWlin181
00000b1b 0b             9328 	.byte	11
00000b1c 000502         9329 	.byte	0,5,2
00000b1f 00000000*      9330 	.word	.LDWlin182
00000b23 0c             9331 	.byte	12
00000b24 000502         9332 	.byte	0,5,2
00000b27 00000000*      9333 	.word	.LDWlin183
00000b2b 0b             9334 	.byte	11
00000b2c 000502         9335 	.byte	0,5,2
00000b2f 00000000*      9336 	.word	.LDWlin184
00000b33 0b             9337 	.byte	11
00000b34 02             9338 	.byte	2
00000b35 00             9339 	.byte	0
00000b36 0b             9340 	.byte	11
00000b37 0b             9341 	.byte	11
00000b38 02             9342 	.byte	2
00000b39 00             9343 	.byte	0
00000b3a 000502         9344 	.byte	0,5,2
00000b3d 00000000*      9345 	.word	.LDWlin185
00000b41 0b             9346 	.byte	11
00000b42 0b             9347 	.byte	11
00000b43 000502         9348 	.byte	0,5,2
00000b46 00000000*      9349 	.word	.LDWlin186
00000b4a 0b             9350 	.byte	11
00000b4b 000502         9351 	.byte	0,5,2
00000b4e 00000000*      9352 	.word	.LDWlin187
00000b52 0b             9353 	.byte	11
00000b53 0b             9354 	.byte	11
00000b54 000502         9355 	.byte	0,5,2
00000b57 00000000*      9356 	.word	.LDWlin188
00000b5b 0b             9357 	.byte	11
00000b5c 02             9358 	.byte	2
00000b5d 00             9359 	.byte	0
00000b5e 0b             9360 	.byte	11
00000b5f 0b             9361 	.byte	11
00000b60 02             9362 	.byte	2
00000b61 00             9363 	.byte	0
00000b62 000502         9364 	.byte	0,5,2

                                                                      Page 171
                                                              D:\TEMP\gh_00001gs1.s
00000b65 00000000*      9365 	.word	.LDWlin189
00000b69 0b             9366 	.byte	11
00000b6a 0c             9367 	.byte	12
00000b6b 000502         9368 	.byte	0,5,2
00000b6e 00000000*      9369 	.word	.LDWlin190
00000b72 0b             9370 	.byte	11
00000b73 000502         9371 	.byte	0,5,2
00000b76 00000000*      9372 	.word	.LDWlin191
00000b7a 0b             9373 	.byte	11
00000b7b 0b             9374 	.byte	11
00000b7c 000502         9375 	.byte	0,5,2
00000b7f 00000000*      9376 	.word	.LDWlin192
00000b83 0b             9377 	.byte	11
00000b84 0c             9378 	.byte	12
00000b85 0b             9379 	.byte	11
00000b86 1b             9380 	.byte	27
00000b87 02             9381 	.byte	2
00000b88 00             9382 	.byte	0
00000b89 0b             9383 	.byte	11
00000b8a 000502         9384 	.byte	0,5,2
00000b8d 00000000*      9385 	.word	.LDWlin193
00000b91 0b             9386 	.byte	11
00000b92 0c             9387 	.byte	12
00000b93 0d             9388 	.byte	13
00000b94 03             9389 	.byte	3
00000b95 07             9390 	.byte	7
00000b96 02             9391 	.byte	2
00000b97 0e             9392 	.byte	14
00000b98 01             9393 	.byte	1
00000b99 02             9394 	.byte	2
00000b9a 00             9395 	.byte	0
00000b9b 0b             9396 	.byte	11
00000b9c 1c             9397 	.byte	28
00000b9d 13             9398 	.byte	19
00000b9e 13             9399 	.byte	19
00000b9f 03             9400 	.byte	3
00000ba0 75             9401 	.byte	117
00000ba1 02             9402 	.byte	2
00000ba2 04             9403 	.byte	4
00000ba3 01             9404 	.byte	1
00000ba4 0b             9405 	.byte	11
00000ba5 03             9406 	.byte	3
00000ba6 0c             9407 	.byte	12
00000ba7 02             9408 	.byte	2
00000ba8 08             9409 	.byte	8
00000ba9 01             9410 	.byte	1
00000baa 02             9411 	.byte	2
00000bab 00             9412 	.byte	0
00000bac 02             9413 	.byte	2
00000bad 00             9414 	.byte	0
00000bae 02             9415 	.byte	2
00000baf 00             9416 	.byte	0
00000bb0 02             9417 	.byte	2
00000bb1 00             9418 	.byte	0
00000bb2 02             9419 	.byte	2
00000bb3 00             9420 	.byte	0
00000bb4 02             9421 	.byte	2
00000bb5 00             9422 	.byte	0
00000bb6 02             9423 	.byte	2
00000bb7 00             9424 	.byte	0
00000bb8 02             9425 	.byte	2

                                                                      Page 172
                                                              D:\TEMP\gh_00001gs1.s
00000bb9 00             9426 	.byte	0
00000bba 02             9427 	.byte	2
00000bbb 00             9428 	.byte	0
00000bbc 0c             9429 	.byte	12
00000bbd 02             9430 	.byte	2
00000bbe 04             9431 	.byte	4
00000bbf 000101         9432 	.byte	0,1,1
                        9433 	.section	.debug_info
                        9434 .LDW_3bdbd08:
00001c9c 1d             9435 	.byte	29
00001c9d 00000000*      9436 	.word	.LDW46
00001ca1 00000000*      9437 	.word	.LDW56
                        9438 
                        9439 .LDW_3bdd100:
00001ca5 04             9440 	.byte	4
00001ca6 72657400       9441 	.strz	"ret"
00001caa a90b           9442 	.byte	169,11
00001cac 14             9443 	.byte	20
00001cad 01             9444 	.byte	1
00001cae 00000000*      9445 	.word	.LDW_3bdc340
00001cb2 00             9446 	.byte	0
00001cb3 00             9447 	.byte	0
00001cb4 015a           9448 	.byte	1,90
                        9449 
                        9450 .LDW_3bdd158:
00001cb6 05             9451 	.byte	5
00001cb7 72656746454e   9452 	.strz	"regFENTRYR"
00001cbd 5452595200 
00001cc2 aa0b           9453 	.byte	170,11
00001cc4 14             9454 	.byte	20
00001cc5 01             9455 	.byte	1
00001cc6 00000000*      9456 	.word	.LDW_3b838b8
00001cca 00             9457 	.byte	0
00001ccb 00             9458 	.byte	0
                        9459 
00001ccc 00             9460 	.byte	0
                        9461 
00001ccd 00             9462 	.byte	0
                        9463 
                        9464 .LDW_3bf1d28:
00001cce 13             9465 	.byte	19
00001ccf 525f46434c5f   9466 	.strz	"R_FCL_FCUFct_GetDeviceInfo"
00001cd5 464355466374 
00001cdb 5f4765744465 
00001ce1 76696365496e 
00001ce7 666f00 
00001cea be0c           9467 	.byte	190,12
00001cec 13             9468 	.byte	19
00001ced 01             9469 	.byte	1
00001cee 00000000*      9470 	.word	_R_FCL_FCUFct_GetDeviceInfo..D.3A.5Cusr.5Cusage.5CDelivery.5CCBD17x.5CCBD1700369.5CD04.5Cexternal.5CBSW.5CFlash.5Cbuild.5Cobj.5Cr_fcl_hw_access.
00001cf2 00000000*      9471 	.word	___ghs_eofn_R_FCL_FCUFct_GetDeviceInfo
00001cf6 0153           9472 	.byte	1,83
00001cf8 828080e80b     9473 	.byte	130,128,128,232,11
00001cfd 18             9474 	.byte	24
00001cfe 03             9475 	.byte	3
00001cff 18             9476 	.byte	24
00001d00 00             9477 	.byte	0
00001d01 00             9478 	.byte	0
00001d02 00             9479 	.byte	0
00001d03 00             9480 	.byte	0
00001d04 01             9481 	.byte	1

                                                                      Page 173
                                                              D:\TEMP\gh_00001gs1.s
00001d05 00             9482 	.byte	0
00001d06 01             9483 	.byte	1
                        9484 
                        9485 	.section	.debug_frame
                        9486 .LDW_4330a28:
000003a0 00000000*      9487 	.word	.LDW_unq_3a-.LDW_unq_39
                        9488 .LDW_unq_39:
000003a4 00000000*      9489 	.word	.LDW_3c6e800
000003a8 00000000*      9490 	.word	_R_FCL_FCUFct_GetDeviceInfo..D.3A.5Cusr.5Cusage.5CDelivery.5CCBD17x.5CCBD1700369.5CD04.5Cexternal.5CBSW.5CFlash.5Cbuild.5Cobj.5Cr_fcl_hw_access.
000003ac 00000000*      9491 	.word	___ghs_eofn_R_FCL_FCUFct_GetDeviceInfo-_R_FCL_FCUFct_GetDeviceInfo..D.3A.5Cusr.5Cusage.5CDelivery.5CCBD17x.5CCBD1700369.5CD04.5Cexternal.5CBSW.5CFlash.5Cbuild.5Cobj.5Cr_fcl_hw_access.
000003b0 44             9492 	.byte	68
000003b1 9f             9493 	.byte	159
000003b2 00             9494 	.byte	0
000003b3 40             9495 	.byte	64
000003b4 9d             9496 	.byte	157
000003b5 04             9497 	.byte	4
000003b6 40             9498 	.byte	64
000003b7 9c             9499 	.byte	156
000003b8 08             9500 	.byte	8
000003b9 40             9501 	.byte	64
000003ba 9b             9502 	.byte	155
000003bb 0c             9503 	.byte	12
000003bc 40             9504 	.byte	64
000003bd 9a             9505 	.byte	154
000003be 10             9506 	.byte	16
000003bf 40             9507 	.byte	64
000003c0 98             9508 	.byte	152
000003c1 14             9509 	.byte	20
000003c2 01             9510 	.byte	1
000003c3 00000000*      9511 	.word	.LDW36
000003c7 00             9512 	.byte	0
                        9513 .LDW_unq_3a:
                        9514 	.section	.debug_line
00000bc2 000502         9515 	.byte	0,5,2
00000bc5 00000000*      9516 	.word	_R_FCL_FCUFct_GetDeviceInfo..D.3A.5Cusr.5Cusage.5CDelivery.5CCBD17x.5CCBD1700369.5CD04.5Cexternal.5CBSW.5CFlash.5Cbuild.5Cobj.5Cr_fcl_hw_access.
00000bc9 03             9517 	.byte	3
00000bca be0c           9518 	.byte	190,12
00000bcc 02             9519 	.byte	2
00000bcd 00             9520 	.byte	0
00000bce 01             9521 	.byte	1
00000bcf 06             9522 	.byte	6
00000bd0 03             9523 	.byte	3
00000bd1 05             9524 	.byte	5
00000bd2 02             9525 	.byte	2
00000bd3 04             9526 	.byte	4
00000bd4 01             9527 	.byte	1
00000bd5 3d             9528 	.byte	61
00000bd6 000502         9529 	.byte	0,5,2
00000bd9 00000000*      9530 	.word	.LDWlin138
00000bdd 0d             9531 	.byte	13
00000bde 000502         9532 	.byte	0,5,2
00000be1 00000000*      9533 	.word	.LDWlin139
00000be5 0d             9534 	.byte	13
00000be6 000502         9535 	.byte	0,5,2
00000be9 00000000*      9536 	.word	.LDWlin140
00000bed 0b             9537 	.byte	11
00000bee 1b             9538 	.byte	27
00000bef 1d             9539 	.byte	29
00000bf0 000502         9540 	.byte	0,5,2
00000bf3 00000000*      9541 	.word	.LDWlin141
00000bf7 0b             9542 	.byte	11

                                                                      Page 174
                                                              D:\TEMP\gh_00001gs1.s
00000bf8 03             9543 	.byte	3
00000bf9 04             9544 	.byte	4
00000bfa 02             9545 	.byte	2
00000bfb 04             9546 	.byte	4
00000bfc 01             9547 	.byte	1
00000bfd 03             9548 	.byte	3
00000bfe 04             9549 	.byte	4
00000bff 02             9550 	.byte	2
00000c00 04             9551 	.byte	4
00000c01 01             9552 	.byte	1
00000c02 000502         9553 	.byte	0,5,2
00000c05 00000000*      9554 	.word	.LDWlin142
00000c09 0b             9555 	.byte	11
00000c0a 03             9556 	.byte	3
00000c0b 07             9557 	.byte	7
00000c0c 02             9558 	.byte	2
00000c0d 06             9559 	.byte	6
00000c0e 01             9560 	.byte	1
00000c0f 02             9561 	.byte	2
00000c10 00             9562 	.byte	0
00000c11 0d             9563 	.byte	13
00000c12 000502         9564 	.byte	0,5,2
00000c15 00000000*      9565 	.word	.LDWlin143
00000c19 0b             9566 	.byte	11
00000c1a 1c             9567 	.byte	28
00000c1b 43             9568 	.byte	67
00000c1c 1b             9569 	.byte	27
00000c1d 000502         9570 	.byte	0,5,2
00000c20 00000000*      9571 	.word	.LDWlin144
00000c24 0c             9572 	.byte	12
00000c25 000502         9573 	.byte	0,5,2
00000c28 00000000*      9574 	.word	.LDWlin145
00000c2c 0b             9575 	.byte	11
00000c2d 0c             9576 	.byte	12
00000c2e 000502         9577 	.byte	0,5,2
00000c31 00000000*      9578 	.word	.LDWlin146
00000c35 0b             9579 	.byte	11
00000c36 0b             9580 	.byte	11
00000c37 000502         9581 	.byte	0,5,2
00000c3a 00000000*      9582 	.word	.LDWlin147
00000c3e 0c             9583 	.byte	12
00000c3f 000502         9584 	.byte	0,5,2
00000c42 00000000*      9585 	.word	.LDWlin148
00000c46 03             9586 	.byte	3
00000c47 04             9587 	.byte	4
00000c48 02             9588 	.byte	2
00000c49 00             9589 	.byte	0
00000c4a 01             9590 	.byte	1
00000c4b 000502         9591 	.byte	0,5,2
00000c4e 00000000*      9592 	.word	.LDWlin149
00000c52 03             9593 	.byte	3
00000c53 04             9594 	.byte	4
00000c54 02             9595 	.byte	2
00000c55 00             9596 	.byte	0
00000c56 01             9597 	.byte	1
00000c57 02             9598 	.byte	2
00000c58 00             9599 	.byte	0
00000c59 0b             9600 	.byte	11
00000c5a 0c             9601 	.byte	12
00000c5b 0c             9602 	.byte	12
00000c5c 000502         9603 	.byte	0,5,2

                                                                      Page 175
                                                              D:\TEMP\gh_00001gs1.s
00000c5f 00000000*      9604 	.word	.LDWlin150
00000c63 0c             9605 	.byte	12
00000c64 000502         9606 	.byte	0,5,2
00000c67 00000000*      9607 	.word	.LDWlin151
00000c6b 03             9608 	.byte	3
00000c6c 04             9609 	.byte	4
00000c6d 02             9610 	.byte	2
00000c6e 00             9611 	.byte	0
00000c6f 01             9612 	.byte	1
00000c70 06             9613 	.byte	6
00000c71 000502         9614 	.byte	0,5,2
00000c74 00000000*      9615 	.word	.LDWlin152
00000c78 03             9616 	.byte	3
00000c79 74             9617 	.byte	116
00000c7a 02             9618 	.byte	2
00000c7b 00             9619 	.byte	0
00000c7c 01             9620 	.byte	1
00000c7d 06             9621 	.byte	6
00000c7e 03             9622 	.byte	3
00000c7f 0d             9623 	.byte	13
00000c80 02             9624 	.byte	2
00000c81 00             9625 	.byte	0
00000c82 01             9626 	.byte	1
00000c83 0b             9627 	.byte	11
00000c84 1b             9628 	.byte	27
00000c85 02             9629 	.byte	2
00000c86 00             9630 	.byte	0
00000c87 0b             9631 	.byte	11
00000c88 02             9632 	.byte	2
00000c89 00             9633 	.byte	0
00000c8a 0d             9634 	.byte	13
00000c8b 000502         9635 	.byte	0,5,2
00000c8e 00000000*      9636 	.word	.LDWlin153
00000c92 0c             9637 	.byte	12
00000c93 000502         9638 	.byte	0,5,2
00000c96 00000000*      9639 	.word	.LDWlin154
00000c9a 0c             9640 	.byte	12
00000c9b 02             9641 	.byte	2
00000c9c 00             9642 	.byte	0
00000c9d 0b             9643 	.byte	11
00000c9e 1c             9644 	.byte	28
00000c9f 1c             9645 	.byte	28
00000ca0 03             9646 	.byte	3
00000ca1 7f             9647 	.byte	127
00000ca2 02             9648 	.byte	2
00000ca3 0a             9649 	.byte	10
00000ca4 01             9650 	.byte	1
00000ca5 000502         9651 	.byte	0,5,2
00000ca8 00000000*      9652 	.word	.LDWlin155
00000cac 0c             9653 	.byte	12
00000cad 1c             9654 	.byte	28
00000cae 1c             9655 	.byte	28
00000caf 03             9656 	.byte	3
00000cb0 7f             9657 	.byte	127
00000cb1 02             9658 	.byte	2
00000cb2 0a             9659 	.byte	10
00000cb3 01             9660 	.byte	1
00000cb4 000502         9661 	.byte	0,5,2
00000cb7 00000000*      9662 	.word	.LDWlin156
00000cbb 0c             9663 	.byte	12
00000cbc 1c             9664 	.byte	28

                                                                      Page 176
                                                              D:\TEMP\gh_00001gs1.s
00000cbd 33             9665 	.byte	51
00000cbe 25             9666 	.byte	37
00000cbf 000502         9667 	.byte	0,5,2
00000cc2 00000000*      9668 	.word	.LDWlin157
00000cc6 0d             9669 	.byte	13
00000cc7 55             9670 	.byte	85
00000cc8 02             9671 	.byte	2
00000cc9 04             9672 	.byte	4
00000cca 000101         9673 	.byte	0,1,1
                        9674 	.section	.debug_info
                        9675 .LDW_3bdbd38:
00001d07 1d             9676 	.byte	29
00001d08 00000000*      9677 	.word	.LDW26
00001d0c 00000000*      9678 	.word	.LDW36
                        9679 
                        9680 .LDW_3bdd1b0:
00001d10 04             9681 	.byte	4
00001d11 6461746100     9682 	.strz	"data"
00001d16 c00c           9683 	.byte	192,12
00001d18 0e             9684 	.byte	14
00001d19 01             9685 	.byte	1
00001d1a 00000000*      9686 	.word	.LDW_3b83718
00001d1e 00             9687 	.byte	0
00001d1f 00             9688 	.byte	0
00001d20 016a           9689 	.byte	1,106
                        9690 
                        9691 .LDW_3bdd208:
00001d22 04             9692 	.byte	4
00001d23 646174614164   9693 	.strz	"dataAddr"
00001d29 647200 
00001d2c c10c           9694 	.byte	193,12
00001d2e 0e             9695 	.byte	14
00001d2f 01             9696 	.byte	1
00001d30 00000000*      9697 	.word	.LDW_3b83718
00001d34 00             9698 	.byte	0
00001d35 00             9699 	.byte	0
00001d36 016c           9700 	.byte	1,108
                        9701 
00001d38 00             9702 	.byte	0
                        9703 
00001d39 00             9704 	.byte	0
                        9705 
                        9706 .LDW_3bf1dc0:
00001d3a 13             9707 	.byte	19
00001d3b 525f46434c5f   9708 	.strz	"R_FCL_FCUFct_Erase"
00001d41 464355466374 
00001d47 5f4572617365 
00001d4d 00 
00001d4e c00d           9709 	.byte	192,13
00001d50 06             9710 	.byte	6
00001d51 01             9711 	.byte	1
00001d52 00000000*      9712 	.word	_R_FCL_FCUFct_Erase
00001d56 00000000*      9713 	.word	___ghs_eofn_R_FCL_FCUFct_Erase
00001d5a 0153           9714 	.byte	1,83
00001d5c 8280808008     9715 	.byte	130,128,128,128,8
00001d61 04             9716 	.byte	4
00001d62 03             9717 	.byte	3
00001d63 04             9718 	.byte	4
00001d64 00             9719 	.byte	0
00001d65 00             9720 	.byte	0
00001d66 00             9721 	.byte	0

                                                                      Page 177
                                                              D:\TEMP\gh_00001gs1.s
00001d67 01             9722 	.byte	1
00001d68 01             9723 	.byte	1
00001d69 00             9724 	.byte	0
00001d6a 01             9725 	.byte	1
                        9726 
                        9727 	.section	.debug_frame
                        9728 .LDW_4330c28:
000003c8 00000000*      9729 	.word	.LDW_unq_3c-.LDW_unq_3b
                        9730 .LDW_unq_3b:
000003cc 00000000*      9731 	.word	.LDW_3c6e800
000003d0 00000000*      9732 	.word	_R_FCL_FCUFct_Erase
000003d4 00000000*      9733 	.word	___ghs_eofn_R_FCL_FCUFct_Erase-_R_FCL_FCUFct_Erase
000003d8 44             9734 	.byte	68
000003d9 9f             9735 	.byte	159
000003da 00             9736 	.byte	0
000003db 01             9737 	.byte	1
000003dc 00000000*      9738 	.word	.LDW76
                        9739 .LDW_unq_3c:
                        9740 	.section	.debug_line
00000ccd 000502         9741 	.byte	0,5,2
00000cd0 00000000*      9742 	.word	_R_FCL_FCUFct_Erase
00000cd4 03             9743 	.byte	3
00000cd5 c00d           9744 	.byte	192,13
00000cd7 02             9745 	.byte	2
00000cd8 00             9746 	.byte	0
00000cd9 01             9747 	.byte	1
00000cda 06             9748 	.byte	6
00000cdb 1d             9749 	.byte	29
00000cdc 000502         9750 	.byte	0,5,2
00000cdf 00000000*      9751 	.word	.LDWlin194
00000ce3 0b             9752 	.byte	11
00000ce4 0c             9753 	.byte	12
00000ce5 000502         9754 	.byte	0,5,2
00000ce8 00000000*      9755 	.word	.LDWlin195
00000cec 0b             9756 	.byte	11
00000ced 0c             9757 	.byte	12
00000cee 0b             9758 	.byte	11
00000cef 000502         9759 	.byte	0,5,2
00000cf2 00000000*      9760 	.word	.LDWlin196
00000cf6 03             9761 	.byte	3
00000cf7 05             9762 	.byte	5
00000cf8 02             9763 	.byte	2
00000cf9 00             9764 	.byte	0
00000cfa 01             9765 	.byte	1
00000cfb 03             9766 	.byte	3
00000cfc 7c             9767 	.byte	124
00000cfd 02             9768 	.byte	2
00000cfe 02             9769 	.byte	2
00000cff 01             9770 	.byte	1
00000d00 0b             9771 	.byte	11
00000d01 000502         9772 	.byte	0,5,2
00000d04 00000000*      9773 	.word	.LDWlin197
00000d08 03             9774 	.byte	3
00000d09 07             9775 	.byte	7
00000d0a 02             9776 	.byte	2
00000d0b 00             9777 	.byte	0
00000d0c 01             9778 	.byte	1
00000d0d 03             9779 	.byte	3
00000d0e 06             9780 	.byte	6
00000d0f 02             9781 	.byte	2
00000d10 00             9782 	.byte	0

                                                                      Page 178
                                                              D:\TEMP\gh_00001gs1.s
00000d11 01             9783 	.byte	1
00000d12 23             9784 	.byte	35
00000d13 3b             9785 	.byte	59
00000d14 000502         9786 	.byte	0,5,2
00000d17 00000000*      9787 	.word	.LDWlin198
00000d1b 03             9788 	.byte	3
00000d1c 06             9789 	.byte	6
00000d1d 02             9790 	.byte	2
00000d1e 00             9791 	.byte	0
00000d1f 01             9792 	.byte	1
00000d20 02             9793 	.byte	2
00000d21 00             9794 	.byte	0
00000d22 0b             9795 	.byte	11
00000d23 0c             9796 	.byte	12
00000d24 03             9797 	.byte	3
00000d25 05             9798 	.byte	5
00000d26 02             9799 	.byte	2
00000d27 00             9800 	.byte	0
00000d28 01             9801 	.byte	1
00000d29 000502         9802 	.byte	0,5,2
00000d2c 00000000*      9803 	.word	.LDWlin199
00000d30 0c             9804 	.byte	12
00000d31 0c             9805 	.byte	12
00000d32 1b             9806 	.byte	27
00000d33 000502         9807 	.byte	0,5,2
00000d36 00000000*      9808 	.word	.LDWlin200
00000d3a 0b             9809 	.byte	11
00000d3b 0b             9810 	.byte	11
00000d3c 000502         9811 	.byte	0,5,2
00000d3f 00000000*      9812 	.word	.LDWlin201
00000d43 0c             9813 	.byte	12
00000d44 0b             9814 	.byte	11
00000d45 02             9815 	.byte	2
00000d46 00             9816 	.byte	0
00000d47 000502         9817 	.byte	0,5,2
00000d4a 00000000*      9818 	.word	.LDWlin202
00000d4e 03             9819 	.byte	3
00000d4f 04             9820 	.byte	4
00000d50 02             9821 	.byte	2
00000d51 00             9822 	.byte	0
00000d52 01             9823 	.byte	1
00000d53 0b             9824 	.byte	11
00000d54 000502         9825 	.byte	0,5,2
00000d57 00000000*      9826 	.word	.LDWlin203
00000d5b 03             9827 	.byte	3
00000d5c 04             9828 	.byte	4
00000d5d 02             9829 	.byte	2
00000d5e 00             9830 	.byte	0
00000d5f 01             9831 	.byte	1
00000d60 0c             9832 	.byte	12
00000d61 0c             9833 	.byte	12
00000d62 35             9834 	.byte	53
00000d63 02             9835 	.byte	2
00000d64 00             9836 	.byte	0
00000d65 02             9837 	.byte	2
00000d66 00             9838 	.byte	0
00000d67 02             9839 	.byte	2
00000d68 00             9840 	.byte	0
00000d69 0b             9841 	.byte	11
00000d6a 1b             9842 	.byte	27
00000d6b 23             9843 	.byte	35

                                                                      Page 179
                                                              D:\TEMP\gh_00001gs1.s
00000d6c 06             9844 	.byte	6
00000d6d 000502         9845 	.byte	0,5,2
00000d70 00000000*      9846 	.word	.LDWlin204
00000d74 03             9847 	.byte	3
00000d75 5a             9848 	.byte	90
00000d76 02             9849 	.byte	2
00000d77 00             9850 	.byte	0
00000d78 01             9851 	.byte	1
00000d79 06             9852 	.byte	6
00000d7a 03             9853 	.byte	3
00000d7b 27             9854 	.byte	39
00000d7c 02             9855 	.byte	2
00000d7d 00             9856 	.byte	0
00000d7e 01             9857 	.byte	1
00000d7f 0c             9858 	.byte	12
00000d80 0c             9859 	.byte	12
00000d81 23             9860 	.byte	35
00000d82 02             9861 	.byte	2
00000d83 00             9862 	.byte	0
00000d84 0b             9863 	.byte	11
00000d85 02             9864 	.byte	2
00000d86 00             9865 	.byte	0
00000d87 0b             9866 	.byte	11
00000d88 02             9867 	.byte	2
00000d89 00             9868 	.byte	0
00000d8a 0b             9869 	.byte	11
00000d8b 02             9870 	.byte	2
00000d8c 04             9871 	.byte	4
00000d8d 000101         9872 	.byte	0,1,1
                        9873 	.section	.debug_info
                        9874 .LDW_3bdbd68:
00001d6b 1d             9875 	.byte	29
00001d6c 00000000*      9876 	.word	.LDW66
00001d70 00000000*      9877 	.word	.LDW76
                        9878 
                        9879 .LDW_3c29750:
00001d74 04             9880 	.byte	4
00001d75 626c6f636b43   9881 	.strz	"blockCnt"
00001d7b 6e7400 
00001d7e c20d           9882 	.byte	194,13
00001d80 0e             9883 	.byte	14
00001d81 01             9884 	.byte	1
00001d82 00000000*      9885 	.word	.LDW_3b83718
00001d86 00             9886 	.byte	0
00001d87 00             9887 	.byte	0
00001d88 015c           9888 	.byte	1,92
                        9889 
00001d8a 00             9890 	.byte	0
                        9891 
00001d8b 00             9892 	.byte	0
                        9893 
                        9894 .LDW_3bf1e58:
00001d8c 13             9895 	.byte	19
00001d8d 525f46434c5f   9896 	.strz	"R_FCL_FCUFct_Write"
00001d93 464355466374 
00001d99 5f5772697465 
00001d9f 00 
00001da0 a70e           9897 	.byte	167,14
00001da2 06             9898 	.byte	6
00001da3 01             9899 	.byte	1
00001da4 00000000*      9900 	.word	_R_FCL_FCUFct_Write

                                                                      Page 180
                                                              D:\TEMP\gh_00001gs1.s
00001da8 00000000*      9901 	.word	___ghs_eofn_R_FCL_FCUFct_Write
00001dac 0153           9902 	.byte	1,83
00001dae 8280808008     9903 	.byte	130,128,128,128,8
00001db3 04             9904 	.byte	4
00001db4 03             9905 	.byte	3
00001db5 04             9906 	.byte	4
00001db6 00             9907 	.byte	0
00001db7 00             9908 	.byte	0
00001db8 00             9909 	.byte	0
00001db9 01             9910 	.byte	1
00001dba 01             9911 	.byte	1
00001dbb 00             9912 	.byte	0
00001dbc 01             9913 	.byte	1
                        9914 
                        9915 	.section	.debug_frame
                        9916 .LDW_4330d28:
000003e0 00000000*      9917 	.word	.LDW_unq_3e-.LDW_unq_3d
                        9918 .LDW_unq_3d:
000003e4 00000000*      9919 	.word	.LDW_3c6e800
000003e8 00000000*      9920 	.word	_R_FCL_FCUFct_Write
000003ec 00000000*      9921 	.word	___ghs_eofn_R_FCL_FCUFct_Write-_R_FCL_FCUFct_Write
000003f0 44             9922 	.byte	68
000003f1 9f             9923 	.byte	159
000003f2 00             9924 	.byte	0
000003f3 01             9925 	.byte	1
000003f4 00000000*      9926 	.word	.LDW96
                        9927 .LDW_unq_3e:
                        9928 	.section	.debug_line
00000d90 000502         9929 	.byte	0,5,2
00000d93 00000000*      9930 	.word	_R_FCL_FCUFct_Write
00000d97 03             9931 	.byte	3
00000d98 a70e           9932 	.byte	167,14
00000d9a 02             9933 	.byte	2
00000d9b 00             9934 	.byte	0
00000d9c 01             9935 	.byte	1
00000d9d 06             9936 	.byte	6
00000d9e 1d             9937 	.byte	29
00000d9f 000502         9938 	.byte	0,5,2
00000da2 00000000*      9939 	.word	.LDWlin205
00000da6 0b             9940 	.byte	11
00000da7 0c             9941 	.byte	12
00000da8 000502         9942 	.byte	0,5,2
00000dab 00000000*      9943 	.word	.LDWlin206
00000daf 03             9944 	.byte	3
00000db0 07             9945 	.byte	7
00000db1 02             9946 	.byte	2
00000db2 00             9947 	.byte	0
00000db3 01             9948 	.byte	1
00000db4 03             9949 	.byte	3
00000db5 7a             9950 	.byte	122
00000db6 02             9951 	.byte	2
00000db7 08             9952 	.byte	8
00000db8 01             9953 	.byte	1
00000db9 0c             9954 	.byte	12
00000dba 0c             9955 	.byte	12
00000dbb 000502         9956 	.byte	0,5,2
00000dbe 00000000*      9957 	.word	.LDWlin207
00000dc2 03             9958 	.byte	3
00000dc3 12             9959 	.byte	18
00000dc4 02             9960 	.byte	2
00000dc5 00             9961 	.byte	0

                                                                      Page 181
                                                              D:\TEMP\gh_00001gs1.s
00000dc6 01             9962 	.byte	1
00000dc7 0b             9963 	.byte	11
00000dc8 02             9964 	.byte	2
00000dc9 00             9965 	.byte	0
00000dca 06             9966 	.byte	6
00000dcb 000502         9967 	.byte	0,5,2
00000dce 00000000*      9968 	.word	.LDWlin208
00000dd2 03             9969 	.byte	3
00000dd3 79             9970 	.byte	121
00000dd4 02             9971 	.byte	2
00000dd5 00             9972 	.byte	0
00000dd6 01             9973 	.byte	1
00000dd7 06             9974 	.byte	6
00000dd8 03             9975 	.byte	3
00000dd9 0e             9976 	.byte	14
00000dda 02             9977 	.byte	2
00000ddb 00             9978 	.byte	0
00000ddc 01             9979 	.byte	1
00000ddd 03             9980 	.byte	3
00000dde 75             9981 	.byte	117
00000ddf 02             9982 	.byte	2
00000de0 00             9983 	.byte	0
00000de1 01             9984 	.byte	1
00000de2 03             9985 	.byte	3
00000de3 10             9986 	.byte	16
00000de4 02             9987 	.byte	2
00000de5 00             9988 	.byte	0
00000de6 01             9989 	.byte	1
00000de7 06             9990 	.byte	6
00000de8 03             9991 	.byte	3
00000de9 6e             9992 	.byte	110
00000dea 02             9993 	.byte	2
00000deb 04             9994 	.byte	4
00000dec 01             9995 	.byte	1
00000ded 06             9996 	.byte	6
00000dee 03             9997 	.byte	3
00000def 10             9998 	.byte	16
00000df0 02             9999 	.byte	2
00000df1 00            10000 	.byte	0
00000df2 01            10001 	.byte	1
00000df3 06            10002 	.byte	6
00000df4 03            10003 	.byte	3
00000df5 71            10004 	.byte	113
00000df6 02            10005 	.byte	2
00000df7 06            10006 	.byte	6
00000df8 01            10007 	.byte	1
00000df9 06            10008 	.byte	6
00000dfa 03            10009 	.byte	3
00000dfb 10            10010 	.byte	16
00000dfc 02            10011 	.byte	2
00000dfd 00            10012 	.byte	0
00000dfe 01            10013 	.byte	1
00000dff 06            10014 	.byte	6
00000e00 03            10015 	.byte	3
00000e01 72            10016 	.byte	114
00000e02 02            10017 	.byte	2
00000e03 08            10018 	.byte	8
00000e04 01            10019 	.byte	1
00000e05 06            10020 	.byte	6
00000e06 03            10021 	.byte	3
00000e07 10            10022 	.byte	16

                                                                      Page 182
                                                              D:\TEMP\gh_00001gs1.s
00000e08 02            10023 	.byte	2
00000e09 00            10024 	.byte	0
00000e0a 01            10025 	.byte	1
00000e0b 06            10026 	.byte	6
00000e0c 03            10027 	.byte	3
00000e0d 71            10028 	.byte	113
00000e0e 02            10029 	.byte	2
00000e0f 08            10030 	.byte	8
00000e10 01            10031 	.byte	1
00000e11 06            10032 	.byte	6
00000e12 03            10033 	.byte	3
00000e13 10            10034 	.byte	16
00000e14 02            10035 	.byte	2
00000e15 00            10036 	.byte	0
00000e16 01            10037 	.byte	1
00000e17 000502        10038 	.byte	0,5,2
00000e1a 00000000*     10039 	.word	.LDWlin209
00000e1e 0b            10040 	.byte	11
00000e1f 0c            10041 	.byte	12
00000e20 0c            10042 	.byte	12
00000e21 1b            10043 	.byte	27
00000e22 02            10044 	.byte	2
00000e23 00            10045 	.byte	0
00000e24 02            10046 	.byte	2
00000e25 00            10047 	.byte	0
00000e26 02            10048 	.byte	2
00000e27 00            10049 	.byte	0
00000e28 0b            10050 	.byte	11
00000e29 02            10051 	.byte	2
00000e2a 00            10052 	.byte	0
00000e2b 0b            10053 	.byte	11
00000e2c 02            10054 	.byte	2
00000e2d 04            10055 	.byte	4
00000e2e 000101        10056 	.byte	0,1,1
                       10057 	.section	.debug_info
                       10058 .LDW_3bdbd98:
00001dbd 1d            10059 	.byte	29
00001dbe 00000000*     10060 	.word	.LDW86
00001dc2 00000000*     10061 	.word	.LDW96
                       10062 
                       10063 .LDW_3c297a8:
00001dc6 04            10064 	.byte	4
00001dc7 737461727441  10065 	.strz	"startAddr"
00001dcd 64647200 
00001dd1 a90e          10066 	.byte	169,14
00001dd3 0e            10067 	.byte	14
00001dd4 01            10068 	.byte	1
00001dd5 00000000*     10069 	.word	.LDW_3b83718
00001dd9 00            10070 	.byte	0
00001dda 00            10071 	.byte	0
00001ddb 015d          10072 	.byte	1,93
                       10073 
00001ddd 00            10074 	.byte	0
                       10075 
00001dde 00            10076 	.byte	0
                       10077 
                       10078 .LDW_3bf1ef0:
00001ddf 13            10079 	.byte	19
00001de0 525f46434c5f  10080 	.strz	"R_FCL_FCUFct_HandleMultiOperation"
00001de6 464355466374 
00001dec 5f48616e646c 

                                                                      Page 183
                                                              D:\TEMP\gh_00001gs1.s
00001df2 654d756c7469 
00001df8 4f7065726174 
00001dfe 696f6e00 
00001e02 f50e          10081 	.byte	245,14
00001e04 06            10082 	.byte	6
00001e05 01            10083 	.byte	1
00001e06 00000000*     10084 	.word	_R_FCL_FCUFct_HandleMultiOperation
00001e0a 00000000*     10085 	.word	___ghs_eofn_R_FCL_FCUFct_HandleMultiOperation
00001e0e 0153          10086 	.byte	1,83
00001e10 828080e00b    10087 	.byte	130,128,128,224,11
00001e15 14            10088 	.byte	20
00001e16 03            10089 	.byte	3
00001e17 14            10090 	.byte	20
00001e18 00            10091 	.byte	0
00001e19 00            10092 	.byte	0
00001e1a 00            10093 	.byte	0
00001e1b 01            10094 	.byte	1
00001e1c 01            10095 	.byte	1
00001e1d 00            10096 	.byte	0
00001e1e 01            10097 	.byte	1
                       10098 
                       10099 	.section	.debug_frame
                       10100 .LDW_4330e28:
000003f8 00000000*     10101 	.word	.LDW_unq_40-.LDW_unq_3f
                       10102 .LDW_unq_3f:
000003fc 00000000*     10103 	.word	.LDW_3c6e800
00000400 00000000*     10104 	.word	_R_FCL_FCUFct_HandleMultiOperation
00000404 00000000*     10105 	.word	___ghs_eofn_R_FCL_FCUFct_HandleMultiOperation-_R_FCL_FCUFct_HandleMultiOperation
00000408 44            10106 	.byte	68
00000409 9f            10107 	.byte	159
0000040a 00            10108 	.byte	0
0000040b 40            10109 	.byte	64
0000040c 9d            10110 	.byte	157
0000040d 04            10111 	.byte	4
0000040e 40            10112 	.byte	64
0000040f 9c            10113 	.byte	156
00000410 08            10114 	.byte	8
00000411 40            10115 	.byte	64
00000412 9b            10116 	.byte	155
00000413 0c            10117 	.byte	12
00000414 40            10118 	.byte	64
00000415 9a            10119 	.byte	154
00000416 10            10120 	.byte	16
00000417 01            10121 	.byte	1
00000418 00000000*     10122 	.word	.LDW17
                       10123 .LDW_unq_40:
                       10124 	.section	.debug_line
00000e31 000502        10125 	.byte	0,5,2
00000e34 00000000*     10126 	.word	_R_FCL_FCUFct_HandleMultiOperation
00000e38 03            10127 	.byte	3
00000e39 f50e          10128 	.byte	245,14
00000e3b 02            10129 	.byte	2
00000e3c 00            10130 	.byte	0
00000e3d 01            10131 	.byte	1
00000e3e 06            10132 	.byte	6
00000e3f 03            10133 	.byte	3
00000e40 09            10134 	.byte	9
00000e41 02            10135 	.byte	2
00000e42 04            10136 	.byte	4
00000e43 01            10137 	.byte	1
00000e44 000502        10138 	.byte	0,5,2

                                                                      Page 184
                                                              D:\TEMP\gh_00001gs1.s
00000e47 00000000*     10139 	.word	.LDWlin210
00000e4b 0b            10140 	.byte	11
00000e4c 0b            10141 	.byte	11
00000e4d 000502        10142 	.byte	0,5,2
00000e50 00000000*     10143 	.word	.LDWlin211
00000e54 0c            10144 	.byte	12
00000e55 000502        10145 	.byte	0,5,2
00000e58 00000000*     10146 	.word	.LDWlin212
00000e5c 0b            10147 	.byte	11
00000e5d 0b            10148 	.byte	11
00000e5e 000502        10149 	.byte	0,5,2
00000e61 00000000*     10150 	.word	.LDWlin213
00000e65 03            10151 	.byte	3
00000e66 0b            10152 	.byte	11
00000e67 02            10153 	.byte	2
00000e68 00            10154 	.byte	0
00000e69 01            10155 	.byte	1
00000e6a 02            10156 	.byte	2
00000e6b 00            10157 	.byte	0
00000e6c 0c            10158 	.byte	12
00000e6d 000502        10159 	.byte	0,5,2
00000e70 00000000*     10160 	.word	.LDWlin214
00000e74 03            10161 	.byte	3
00000e75 77            10162 	.byte	119
00000e76 02            10163 	.byte	2
00000e77 00            10164 	.byte	0
00000e78 01            10165 	.byte	1
00000e79 0b            10166 	.byte	11
00000e7a 000502        10167 	.byte	0,5,2
00000e7d 00000000*     10168 	.word	.LDWlin215
00000e81 0b            10169 	.byte	11
00000e82 0c            10170 	.byte	12
00000e83 0c            10171 	.byte	12
00000e84 000502        10172 	.byte	0,5,2
00000e87 00000000*     10173 	.word	.LDWlin216
00000e8b 03            10174 	.byte	3
00000e8c 13            10175 	.byte	19
00000e8d 02            10176 	.byte	2
00000e8e 00            10177 	.byte	0
00000e8f 01            10178 	.byte	1
00000e90 03            10179 	.byte	3
00000e91 71            10180 	.byte	113
00000e92 02            10181 	.byte	2
00000e93 04            10182 	.byte	4
00000e94 01            10183 	.byte	1
00000e95 0d            10184 	.byte	13
00000e96 0c            10185 	.byte	12
00000e97 0d            10186 	.byte	13
00000e98 02            10187 	.byte	2
00000e99 00            10188 	.byte	0
00000e9a 0b            10189 	.byte	11
00000e9b 0c            10190 	.byte	12
00000e9c 0b            10191 	.byte	11
00000e9d 000502        10192 	.byte	0,5,2
00000ea0 00000000*     10193 	.word	.LDWlin217
00000ea4 03            10194 	.byte	3
00000ea5 04            10195 	.byte	4
00000ea6 02            10196 	.byte	2
00000ea7 00            10197 	.byte	0
00000ea8 01            10198 	.byte	1
00000ea9 02            10199 	.byte	2

                                                                      Page 185
                                                              D:\TEMP\gh_00001gs1.s
00000eaa 00            10200 	.byte	0
00000eab 0b            10201 	.byte	11
00000eac 0b            10202 	.byte	11
00000ead 02            10203 	.byte	2
00000eae 00            10204 	.byte	0
00000eaf 000502        10205 	.byte	0,5,2
00000eb2 00000000*     10206 	.word	.LDWlin218
00000eb6 0b            10207 	.byte	11
00000eb7 0b            10208 	.byte	11
00000eb8 000502        10209 	.byte	0,5,2
00000ebb 00000000*     10210 	.word	.LDWlin219
00000ebf 0b            10211 	.byte	11
00000ec0 000502        10212 	.byte	0,5,2
00000ec3 00000000*     10213 	.word	.LDWlin220
00000ec7 0b            10214 	.byte	11
00000ec8 0b            10215 	.byte	11
00000ec9 000502        10216 	.byte	0,5,2
00000ecc 00000000*     10217 	.word	.LDWlin221
00000ed0 0b            10218 	.byte	11
00000ed1 0b            10219 	.byte	11
00000ed2 000502        10220 	.byte	0,5,2
00000ed5 00000000*     10221 	.word	.LDWlin222
00000ed9 0b            10222 	.byte	11
00000eda 0b            10223 	.byte	11
00000edb 000502        10224 	.byte	0,5,2
00000ede 00000000*     10225 	.word	.LDWlin223
00000ee2 03            10226 	.byte	3
00000ee3 0d            10227 	.byte	13
00000ee4 02            10228 	.byte	2
00000ee5 00            10229 	.byte	0
00000ee6 01            10230 	.byte	1
00000ee7 02            10231 	.byte	2
00000ee8 00            10232 	.byte	0
00000ee9 0b            10233 	.byte	11
00000eea 02            10234 	.byte	2
00000eeb 00            10235 	.byte	0
00000eec 0b            10236 	.byte	11
00000eed 0b            10237 	.byte	11
00000eee 02            10238 	.byte	2
00000eef 00            10239 	.byte	0
00000ef0 000502        10240 	.byte	0,5,2
00000ef3 00000000*     10241 	.word	.LDWlin224
00000ef7 0b            10242 	.byte	11
00000ef8 0b            10243 	.byte	11
00000ef9 000502        10244 	.byte	0,5,2
00000efc 00000000*     10245 	.word	.LDWlin225
00000f00 0b            10246 	.byte	11
00000f01 0b            10247 	.byte	11
00000f02 000502        10248 	.byte	0,5,2
00000f05 00000000*     10249 	.word	.LDWlin226
00000f09 0b            10250 	.byte	11
00000f0a 0c            10251 	.byte	12
00000f0b 000502        10252 	.byte	0,5,2
00000f0e 00000000*     10253 	.word	.LDWlin227
00000f12 03            10254 	.byte	3
00000f13 04            10255 	.byte	4
00000f14 02            10256 	.byte	2
00000f15 00            10257 	.byte	0
00000f16 01            10258 	.byte	1
00000f17 0b            10259 	.byte	11
00000f18 43            10260 	.byte	67

                                                                      Page 186
                                                              D:\TEMP\gh_00001gs1.s
00000f19 0d            10261 	.byte	13
00000f1a 0c            10262 	.byte	12
00000f1b 0d            10263 	.byte	13
00000f1c 02            10264 	.byte	2
00000f1d 00            10265 	.byte	0
00000f1e 0c            10266 	.byte	12
00000f1f 000502        10267 	.byte	0,5,2
00000f22 00000000*     10268 	.word	.LDWlin228
00000f26 0b            10269 	.byte	11
00000f27 0d            10270 	.byte	13
00000f28 0c            10271 	.byte	12
00000f29 0b            10272 	.byte	11
00000f2a 000502        10273 	.byte	0,5,2
00000f2d 00000000*     10274 	.word	.LDWlin229
00000f31 0c            10275 	.byte	12
00000f32 02            10276 	.byte	2
00000f33 00            10277 	.byte	0
00000f34 0b            10278 	.byte	11
00000f35 02            10279 	.byte	2
00000f36 00            10280 	.byte	0
00000f37 0c            10281 	.byte	12
00000f38 000502        10282 	.byte	0,5,2
00000f3b 00000000*     10283 	.word	.LDWlin230
00000f3f 0b            10284 	.byte	11
00000f40 000502        10285 	.byte	0,5,2
00000f43 00000000*     10286 	.word	.LDWlin231
00000f47 0b            10287 	.byte	11
00000f48 0b            10288 	.byte	11
00000f49 000502        10289 	.byte	0,5,2
00000f4c 00000000*     10290 	.word	.LDWlin232
00000f50 0b            10291 	.byte	11
00000f51 000502        10292 	.byte	0,5,2
00000f54 00000000*     10293 	.word	.LDWlin233
00000f58 0b            10294 	.byte	11
00000f59 1b            10295 	.byte	27
00000f5a 000502        10296 	.byte	0,5,2
00000f5d 00000000*     10297 	.word	.LDWlin234
00000f61 0b            10298 	.byte	11
00000f62 0b            10299 	.byte	11
00000f63 02            10300 	.byte	2
00000f64 00            10301 	.byte	0
00000f65 000502        10302 	.byte	0,5,2
00000f68 00000000*     10303 	.word	.LDWlin235
00000f6c 0b            10304 	.byte	11
00000f6d 0c            10305 	.byte	12
00000f6e 000502        10306 	.byte	0,5,2
00000f71 00000000*     10307 	.word	.LDWlin236
00000f75 0b            10308 	.byte	11
00000f76 000502        10309 	.byte	0,5,2
00000f79 00000000*     10310 	.word	.LDWlin237
00000f7d 0d            10311 	.byte	13
00000f7e 1d            10312 	.byte	29
00000f7f 000502        10313 	.byte	0,5,2
00000f82 00000000*     10314 	.word	.LDWlin238
00000f86 0c            10315 	.byte	12
00000f87 000502        10316 	.byte	0,5,2
00000f8a 00000000*     10317 	.word	.LDWlin239
00000f8e 0b            10318 	.byte	11
00000f8f 1b            10319 	.byte	27
00000f90 000502        10320 	.byte	0,5,2
00000f93 00000000*     10321 	.word	.LDWlin240

                                                                      Page 187
                                                              D:\TEMP\gh_00001gs1.s
00000f97 0b            10322 	.byte	11
00000f98 0c            10323 	.byte	12
00000f99 000502        10324 	.byte	0,5,2
00000f9c 00000000*     10325 	.word	.LDWlin241
00000fa0 0c            10326 	.byte	12
00000fa1 000502        10327 	.byte	0,5,2
00000fa4 00000000*     10328 	.word	.LDWlin242
00000fa8 03            10329 	.byte	3
00000fa9 7f            10330 	.byte	127
00000faa 02            10331 	.byte	2
00000fab 00            10332 	.byte	0
00000fac 01            10333 	.byte	1
00000fad 03            10334 	.byte	3
00000fae 75            10335 	.byte	117
00000faf 02            10336 	.byte	2
00000fb0 00            10337 	.byte	0
00000fb1 01            10338 	.byte	1
00000fb2 000502        10339 	.byte	0,5,2
00000fb5 00000000*     10340 	.word	.LDWlin243
00000fb9 03            10341 	.byte	3
00000fba 0d            10342 	.byte	13
00000fbb 02            10343 	.byte	2
00000fbc 00            10344 	.byte	0
00000fbd 01            10345 	.byte	1
00000fbe 0b            10346 	.byte	11
00000fbf 000502        10347 	.byte	0,5,2
00000fc2 00000000*     10348 	.word	.LDWlin244
00000fc6 0b            10349 	.byte	11
00000fc7 0b            10350 	.byte	11
00000fc8 02            10351 	.byte	2
00000fc9 00            10352 	.byte	0
00000fca 000502        10353 	.byte	0,5,2
00000fcd 00000000*     10354 	.word	.LDWlin245
00000fd1 0b            10355 	.byte	11
00000fd2 0c            10356 	.byte	12
00000fd3 000502        10357 	.byte	0,5,2
00000fd6 00000000*     10358 	.word	.LDWlin246
00000fda 0b            10359 	.byte	11
00000fdb 000502        10360 	.byte	0,5,2
00000fde 00000000*     10361 	.word	.LDWlin247
00000fe2 0b            10362 	.byte	11
00000fe3 000502        10363 	.byte	0,5,2
00000fe6 00000000*     10364 	.word	.LDWlin248
00000fea 0b            10365 	.byte	11
00000feb 0b            10366 	.byte	11
00000fec 02            10367 	.byte	2
00000fed 00            10368 	.byte	0
00000fee 000502        10369 	.byte	0,5,2
00000ff1 00000000*     10370 	.word	.LDWlin249
00000ff5 0b            10371 	.byte	11
00000ff6 0c            10372 	.byte	12
00000ff7 000502        10373 	.byte	0,5,2
00000ffa 00000000*     10374 	.word	.LDWlin250
00000ffe 0b            10375 	.byte	11
00000fff 000502        10376 	.byte	0,5,2
00001002 00000000*     10377 	.word	.LDWlin251
00001006 0b            10378 	.byte	11
00001007 000502        10379 	.byte	0,5,2
0000100a 00000000*     10380 	.word	.LDWlin252
0000100e 0b            10381 	.byte	11
0000100f 0c            10382 	.byte	12

                                                                      Page 188
                                                              D:\TEMP\gh_00001gs1.s
00001010 0c            10383 	.byte	12
00001011 000502        10384 	.byte	0,5,2
00001014 00000000*     10385 	.word	.LDWlin253
00001018 0b            10386 	.byte	11
00001019 0b            10387 	.byte	11
0000101a 03            10388 	.byte	3
0000101b 05            10389 	.byte	5
0000101c 02            10390 	.byte	2
0000101d 02            10391 	.byte	2
0000101e 01            10392 	.byte	1
0000101f 02            10393 	.byte	2
00001020 00            10394 	.byte	0
00001021 0b            10395 	.byte	11
00001022 000502        10396 	.byte	0,5,2
00001025 00000000*     10397 	.word	.LDWlin254
00001029 0b            10398 	.byte	11
0000102a 15            10399 	.byte	21
0000102b 000502        10400 	.byte	0,5,2
0000102e 00000000*     10401 	.word	.LDWlin255
00001032 0c            10402 	.byte	12
00001033 000502        10403 	.byte	0,5,2
00001036 00000000*     10404 	.word	.LDWlin256
0000103a 0b            10405 	.byte	11
0000103b 1b            10406 	.byte	27
0000103c 000502        10407 	.byte	0,5,2
0000103f 00000000*     10408 	.word	.LDWlin257
00001043 03            10409 	.byte	3
00001044 79            10410 	.byte	121
00001045 02            10411 	.byte	2
00001046 00            10412 	.byte	0
00001047 01            10413 	.byte	1
00001048 06            10414 	.byte	6
00001049 000502        10415 	.byte	0,5,2
0000104c 00000000*     10416 	.word	.LDWlin258
00001050 03            10417 	.byte	3
00001051 987f          10418 	.byte	152,127
00001053 02            10419 	.byte	2
00001054 00            10420 	.byte	0
00001055 01            10421 	.byte	1
00001056 06            10422 	.byte	6
00001057 03            10423 	.byte	3
00001058 f300          10424 	.byte	243,0
0000105a 02            10425 	.byte	2
0000105b 00            10426 	.byte	0
0000105c 01            10427 	.byte	1
0000105d 02            10428 	.byte	2
0000105e 00            10429 	.byte	0
0000105f 02            10430 	.byte	2
00001060 00            10431 	.byte	0
00001061 02            10432 	.byte	2
00001062 00            10433 	.byte	0
00001063 02            10434 	.byte	2
00001064 00            10435 	.byte	0
00001065 02            10436 	.byte	2
00001066 00            10437 	.byte	0
00001067 02            10438 	.byte	2
00001068 00            10439 	.byte	0
00001069 02            10440 	.byte	2
0000106a 00            10441 	.byte	0
0000106b 0b            10442 	.byte	11
0000106c 0c            10443 	.byte	12

                                                                      Page 189
                                                              D:\TEMP\gh_00001gs1.s
0000106d 0b            10444 	.byte	11
0000106e 06            10445 	.byte	6
0000106f 03            10446 	.byte	3
00001070 8a7f          10447 	.byte	138,127
00001072 02            10448 	.byte	2
00001073 06            10449 	.byte	6
00001074 01            10450 	.byte	1
00001075 06            10451 	.byte	6
00001076 0b            10452 	.byte	11
00001077 03            10453 	.byte	3
00001078 f700          10454 	.byte	247,0
0000107a 02            10455 	.byte	2
0000107b 00            10456 	.byte	0
0000107c 01            10457 	.byte	1
0000107d 06            10458 	.byte	6
0000107e 000502        10459 	.byte	0,5,2
00001081 00000000*     10460 	.word	.LDWlin259
00001085 03            10461 	.byte	3
00001086 8e7f          10462 	.byte	142,127
00001088 02            10463 	.byte	2
00001089 00            10464 	.byte	0
0000108a 01            10465 	.byte	1
0000108b 06            10466 	.byte	6
0000108c 03            10467 	.byte	3
0000108d f300          10468 	.byte	243,0
0000108f 02            10469 	.byte	2
00001090 00            10470 	.byte	0
00001091 01            10471 	.byte	1
00001092 02            10472 	.byte	2
00001093 00            10473 	.byte	0
00001094 0b            10474 	.byte	11
00001095 0c            10475 	.byte	12
00001096 0b            10476 	.byte	11
00001097 06            10477 	.byte	6
00001098 000502        10478 	.byte	0,5,2
0000109b 00000000*     10479 	.word	.LDWlin260
0000109f 03            10480 	.byte	3
000010a0 8a7f          10481 	.byte	138,127
000010a2 02            10482 	.byte	2
000010a3 00            10483 	.byte	0
000010a4 01            10484 	.byte	1
000010a5 06            10485 	.byte	6
000010a6 03            10486 	.byte	3
000010a7 f700          10487 	.byte	247,0
000010a9 02            10488 	.byte	2
000010aa 00            10489 	.byte	0
000010ab 01            10490 	.byte	1
000010ac 000502        10491 	.byte	0,5,2
000010af 00000000*     10492 	.word	.LDWlin261
000010b3 0b            10493 	.byte	11
000010b4 02            10494 	.byte	2
000010b5 00            10495 	.byte	0
000010b6 0b            10496 	.byte	11
000010b7 0b            10497 	.byte	11
000010b8 02            10498 	.byte	2
000010b9 00            10499 	.byte	0
000010ba 000502        10500 	.byte	0,5,2
000010bd 00000000*     10501 	.word	.LDWlin262
000010c1 0b            10502 	.byte	11
000010c2 0c            10503 	.byte	12
000010c3 1d            10504 	.byte	29

                                                                      Page 190
                                                              D:\TEMP\gh_00001gs1.s
000010c4 000502        10505 	.byte	0,5,2
000010c7 00000000*     10506 	.word	.LDWlin263
000010cb 0c            10507 	.byte	12
000010cc 000502        10508 	.byte	0,5,2
000010cf 00000000*     10509 	.word	.LDWlin264
000010d3 0b            10510 	.byte	11
000010d4 1b            10511 	.byte	27
000010d5 000502        10512 	.byte	0,5,2
000010d8 00000000*     10513 	.word	.LDWlin265
000010dc 0b            10514 	.byte	11
000010dd 0c            10515 	.byte	12
000010de 000502        10516 	.byte	0,5,2
000010e1 00000000*     10517 	.word	.LDWlin266
000010e5 0c            10518 	.byte	12
000010e6 000502        10519 	.byte	0,5,2
000010e9 00000000*     10520 	.word	.LDWlin267
000010ed 03            10521 	.byte	3
000010ee 7f            10522 	.byte	127
000010ef 02            10523 	.byte	2
000010f0 00            10524 	.byte	0
000010f1 01            10525 	.byte	1
000010f2 03            10526 	.byte	3
000010f3 75            10527 	.byte	117
000010f4 02            10528 	.byte	2
000010f5 00            10529 	.byte	0
000010f6 01            10530 	.byte	1
000010f7 06            10531 	.byte	6
000010f8 000502        10532 	.byte	0,5,2
000010fb 00000000*     10533 	.word	.LDWlin268
000010ff 03            10534 	.byte	3
00001100 6c            10535 	.byte	108
00001101 02            10536 	.byte	2
00001102 00            10537 	.byte	0
00001103 01            10538 	.byte	1
00001104 06            10539 	.byte	6
00001105 03            10540 	.byte	3
00001106 21            10541 	.byte	33
00001107 02            10542 	.byte	2
00001108 00            10543 	.byte	0
00001109 01            10544 	.byte	1
0000110a 0b            10545 	.byte	11
0000110b 06            10546 	.byte	6
0000110c 000502        10547 	.byte	0,5,2
0000110f 00000000*     10548 	.word	.LDWlin269
00001113 03            10549 	.byte	3
00001114 5f            10550 	.byte	95
00001115 02            10551 	.byte	2
00001116 00            10552 	.byte	0
00001117 01            10553 	.byte	1
00001118 06            10554 	.byte	6
00001119 03            10555 	.byte	3
0000111a 22            10556 	.byte	34
0000111b 02            10557 	.byte	2
0000111c 00            10558 	.byte	0
0000111d 01            10559 	.byte	1
0000111e 000502        10560 	.byte	0,5,2
00001121 00000000*     10561 	.word	.LDWlin270
00001125 0b            10562 	.byte	11
00001126 0b            10563 	.byte	11
00001127 02            10564 	.byte	2
00001128 00            10565 	.byte	0

                                                                      Page 191
                                                              D:\TEMP\gh_00001gs1.s
00001129 000502        10566 	.byte	0,5,2
0000112c 00000000*     10567 	.word	.LDWlin271
00001130 0b            10568 	.byte	11
00001131 0b            10569 	.byte	11
00001132 000502        10570 	.byte	0,5,2
00001135 00000000*     10571 	.word	.LDWlin272
00001139 0b            10572 	.byte	11
0000113a 0d            10573 	.byte	13
0000113b 000502        10574 	.byte	0,5,2
0000113e 00000000*     10575 	.word	.LDWlin273
00001142 0c            10576 	.byte	12
00001143 0b            10577 	.byte	11
00001144 000502        10578 	.byte	0,5,2
00001147 00000000*     10579 	.word	.LDWlin274
0000114b 0b            10580 	.byte	11
0000114c 000502        10581 	.byte	0,5,2
0000114f 00000000*     10582 	.word	.LDWlin275
00001153 0b            10583 	.byte	11
00001154 000502        10584 	.byte	0,5,2
00001157 00000000*     10585 	.word	.LDWlin276
0000115b 0b            10586 	.byte	11
0000115c 0b            10587 	.byte	11
0000115d 000502        10588 	.byte	0,5,2
00001160 00000000*     10589 	.word	.LDWlin277
00001164 0b            10590 	.byte	11
00001165 1b            10591 	.byte	27
00001166 1b            10592 	.byte	27
00001167 02            10593 	.byte	2
00001168 00            10594 	.byte	0
00001169 0b            10595 	.byte	11
0000116a 02            10596 	.byte	2
0000116b 00            10597 	.byte	0
0000116c 0d            10598 	.byte	13
0000116d 000502        10599 	.byte	0,5,2
00001170 00000000*     10600 	.word	.LDWlin278
00001174 0b            10601 	.byte	11
00001175 000502        10602 	.byte	0,5,2
00001178 00000000*     10603 	.word	.LDWlin279
0000117c 0b            10604 	.byte	11
0000117d 0b            10605 	.byte	11
0000117e 000502        10606 	.byte	0,5,2
00001181 00000000*     10607 	.word	.LDWlin280
00001185 0c            10608 	.byte	12
00001186 0b            10609 	.byte	11
00001187 000502        10610 	.byte	0,5,2
0000118a 00000000*     10611 	.word	.LDWlin281
0000118e 0b            10612 	.byte	11
0000118f 0b            10613 	.byte	11
00001190 1b            10614 	.byte	27
00001191 06            10615 	.byte	6
00001192 03            10616 	.byte	3
00001193 07            10617 	.byte	7
00001194 02            10618 	.byte	2
00001195 02            10619 	.byte	2
00001196 01            10620 	.byte	1
00001197 03            10621 	.byte	3
00001198 08            10622 	.byte	8
00001199 02            10623 	.byte	2
0000119a 00            10624 	.byte	0
0000119b 01            10625 	.byte	1
0000119c 03            10626 	.byte	3

                                                                      Page 192
                                                              D:\TEMP\gh_00001gs1.s
0000119d c400          10627 	.byte	196,0
0000119f 02            10628 	.byte	2
000011a0 00            10629 	.byte	0
000011a1 01            10630 	.byte	1
000011a2 03            10631 	.byte	3
000011a3 4f            10632 	.byte	79
000011a4 02            10633 	.byte	2
000011a5 00            10634 	.byte	0
000011a6 01            10635 	.byte	1
000011a7 03            10636 	.byte	3
000011a8 24            10637 	.byte	36
000011a9 02            10638 	.byte	2
000011aa 00            10639 	.byte	0
000011ab 01            10640 	.byte	1
000011ac 03            10641 	.byte	3
000011ad 1c            10642 	.byte	28
000011ae 02            10643 	.byte	2
000011af 00            10644 	.byte	0
000011b0 01            10645 	.byte	1
000011b1 03            10646 	.byte	3
000011b2 6c            10647 	.byte	108
000011b3 02            10648 	.byte	2
000011b4 00            10649 	.byte	0
000011b5 01            10650 	.byte	1
000011b6 03            10651 	.byte	3
000011b7 1e            10652 	.byte	30
000011b8 02            10653 	.byte	2
000011b9 00            10654 	.byte	0
000011ba 01            10655 	.byte	1
000011bb 03            10656 	.byte	3
000011bc 947f          10657 	.byte	148,127
000011be 02            10658 	.byte	2
000011bf 00            10659 	.byte	0
000011c0 01            10660 	.byte	1
000011c1 06            10661 	.byte	6
000011c2 000502        10662 	.byte	0,5,2
000011c5 00000000*     10663 	.word	.LDWlin282
000011c9 0b            10664 	.byte	11
000011ca 0c            10665 	.byte	12
000011cb 0b            10666 	.byte	11
000011cc 000502        10667 	.byte	0,5,2
000011cf 00000000*     10668 	.word	.LDWlin283
000011d3 03            10669 	.byte	3
000011d4 04            10670 	.byte	4
000011d5 02            10671 	.byte	2
000011d6 00            10672 	.byte	0
000011d7 01            10673 	.byte	1
000011d8 0c            10674 	.byte	12
000011d9 0c            10675 	.byte	12
000011da 000502        10676 	.byte	0,5,2
000011dd 00000000*     10677 	.word	.LDWlin284
000011e1 03            10678 	.byte	3
000011e2 04            10679 	.byte	4
000011e3 02            10680 	.byte	2
000011e4 00            10681 	.byte	0
000011e5 01            10682 	.byte	1
000011e6 0c            10683 	.byte	12
000011e7 0b            10684 	.byte	11
000011e8 000502        10685 	.byte	0,5,2
000011eb 00000000*     10686 	.word	.LDWlin285
000011ef 03            10687 	.byte	3

                                                                      Page 193
                                                              D:\TEMP\gh_00001gs1.s
000011f0 04            10688 	.byte	4
000011f1 02            10689 	.byte	2
000011f2 00            10690 	.byte	0
000011f3 01            10691 	.byte	1
000011f4 03            10692 	.byte	3
000011f5 7d            10693 	.byte	125
000011f6 02            10694 	.byte	2
000011f7 04            10695 	.byte	4
000011f8 01            10696 	.byte	1
000011f9 0c            10697 	.byte	12
000011fa 000502        10698 	.byte	0,5,2
000011fd 00000000*     10699 	.word	.LDWlin286
00001201 0d            10700 	.byte	13
00001202 0d            10701 	.byte	13
00001203 1b            10702 	.byte	27
00001204 000502        10703 	.byte	0,5,2
00001207 00000000*     10704 	.word	.LDWlin287
0000120b 03            10705 	.byte	3
0000120c 06            10706 	.byte	6
0000120d 02            10707 	.byte	2
0000120e 00            10708 	.byte	0
0000120f 01            10709 	.byte	1
00001210 02            10710 	.byte	2
00001211 00            10711 	.byte	0
00001212 0b            10712 	.byte	11
00001213 0b            10713 	.byte	11
00001214 02            10714 	.byte	2
00001215 00            10715 	.byte	0
00001216 000502        10716 	.byte	0,5,2
00001219 00000000*     10717 	.word	.LDWlin288
0000121d 0b            10718 	.byte	11
0000121e 0b            10719 	.byte	11
0000121f 000502        10720 	.byte	0,5,2
00001222 00000000*     10721 	.word	.LDWlin289
00001226 0b            10722 	.byte	11
00001227 0c            10723 	.byte	12
00001228 25            10724 	.byte	37
00001229 13            10725 	.byte	19
0000122a 03            10726 	.byte	3
0000122b 7d            10727 	.byte	125
0000122c 02            10728 	.byte	2
0000122d 0c            10729 	.byte	12
0000122e 01            10730 	.byte	1
0000122f 000502        10731 	.byte	0,5,2
00001232 00000000*     10732 	.word	.LDWlin290
00001236 03            10733 	.byte	3
00001237 06            10734 	.byte	6
00001238 02            10735 	.byte	2
00001239 00            10736 	.byte	0
0000123a 01            10737 	.byte	1
0000123b 0c            10738 	.byte	12
0000123c 000502        10739 	.byte	0,5,2
0000123f 00000000*     10740 	.word	.LDWlin291
00001243 0b            10741 	.byte	11
00001244 0b            10742 	.byte	11
00001245 02            10743 	.byte	2
00001246 00            10744 	.byte	0
00001247 000502        10745 	.byte	0,5,2
0000124a 00000000*     10746 	.word	.LDWlin292
0000124e 03            10747 	.byte	3
0000124f 04            10748 	.byte	4

                                                                      Page 194
                                                              D:\TEMP\gh_00001gs1.s
00001250 02            10749 	.byte	2
00001251 00            10750 	.byte	0
00001252 01            10751 	.byte	1
00001253 0c            10752 	.byte	12
00001254 000502        10753 	.byte	0,5,2
00001257 00000000*     10754 	.word	.LDWlin293
0000125b 0b            10755 	.byte	11
0000125c 0c            10756 	.byte	12
0000125d 0c            10757 	.byte	12
0000125e 000502        10758 	.byte	0,5,2
00001261 00000000*     10759 	.word	.LDWlin294
00001265 03            10760 	.byte	3
00001266 07            10761 	.byte	7
00001267 02            10762 	.byte	2
00001268 00            10763 	.byte	0
00001269 01            10764 	.byte	1
0000126a 02            10765 	.byte	2
0000126b 00            10766 	.byte	0
0000126c 0b            10767 	.byte	11
0000126d 0b            10768 	.byte	11
0000126e 02            10769 	.byte	2
0000126f 00            10770 	.byte	0
00001270 000502        10771 	.byte	0,5,2
00001273 00000000*     10772 	.word	.LDWlin295
00001277 0b            10773 	.byte	11
00001278 0b            10774 	.byte	11
00001279 000502        10775 	.byte	0,5,2
0000127c 00000000*     10776 	.word	.LDWlin296
00001280 0b            10777 	.byte	11
00001281 000502        10778 	.byte	0,5,2
00001284 00000000*     10779 	.word	.LDWlin297
00001288 0d            10780 	.byte	13
00001289 0b            10781 	.byte	11
0000128a 02            10782 	.byte	2
0000128b 00            10783 	.byte	0
0000128c 000502        10784 	.byte	0,5,2
0000128f 00000000*     10785 	.word	.LDWlin298
00001293 03            10786 	.byte	3
00001294 04            10787 	.byte	4
00001295 02            10788 	.byte	2
00001296 00            10789 	.byte	0
00001297 01            10790 	.byte	1
00001298 0c            10791 	.byte	12
00001299 0b            10792 	.byte	11
0000129a 2b            10793 	.byte	43
0000129b 000502        10794 	.byte	0,5,2
0000129e 00000000*     10795 	.word	.LDWlin299
000012a2 0b            10796 	.byte	11
000012a3 0c            10797 	.byte	12
000012a4 1b            10798 	.byte	27
000012a5 000502        10799 	.byte	0,5,2
000012a8 00000000*     10800 	.word	.LDWlin300
000012ac 03            10801 	.byte	3
000012ad 07            10802 	.byte	7
000012ae 02            10803 	.byte	2
000012af 00            10804 	.byte	0
000012b0 01            10805 	.byte	1
000012b1 02            10806 	.byte	2
000012b2 00            10807 	.byte	0
000012b3 0b            10808 	.byte	11
000012b4 02            10809 	.byte	2

                                                                      Page 195
                                                              D:\TEMP\gh_00001gs1.s
000012b5 00            10810 	.byte	0
000012b6 02            10811 	.byte	2
000012b7 00            10812 	.byte	0
000012b8 02            10813 	.byte	2
000012b9 00            10814 	.byte	0
000012ba 02            10815 	.byte	2
000012bb 00            10816 	.byte	0
000012bc 02            10817 	.byte	2
000012bd 00            10818 	.byte	0
000012be 02            10819 	.byte	2
000012bf 00            10820 	.byte	0
000012c0 02            10821 	.byte	2
000012c1 00            10822 	.byte	0
000012c2 0b            10823 	.byte	11
000012c3 02            10824 	.byte	2
000012c4 00            10825 	.byte	0
000012c5 0b            10826 	.byte	11
000012c6 02            10827 	.byte	2
000012c7 00            10828 	.byte	0
000012c8 0b            10829 	.byte	11
000012c9 02            10830 	.byte	2
000012ca 00            10831 	.byte	0
000012cb 0b            10832 	.byte	11
000012cc 0c            10833 	.byte	12
000012cd 0b            10834 	.byte	11
000012ce 000502        10835 	.byte	0,5,2
000012d1 00000000*     10836 	.word	.LDWlin301
000012d5 0c            10837 	.byte	12
000012d6 02            10838 	.byte	2
000012d7 00            10839 	.byte	0
000012d8 0c            10840 	.byte	12
000012d9 000502        10841 	.byte	0,5,2
000012dc 00000000*     10842 	.word	.LDWlin302
000012e0 0b            10843 	.byte	11
000012e1 0b            10844 	.byte	11
000012e2 000502        10845 	.byte	0,5,2
000012e5 00000000*     10846 	.word	.LDWlin303
000012e9 0c            10847 	.byte	12
000012ea 000502        10848 	.byte	0,5,2
000012ed 00000000*     10849 	.word	.LDWlin304
000012f1 0b            10850 	.byte	11
000012f2 02            10851 	.byte	2
000012f3 00            10852 	.byte	0
000012f4 0b            10853 	.byte	11
000012f5 0b            10854 	.byte	11
000012f6 02            10855 	.byte	2
000012f7 00            10856 	.byte	0
000012f8 000502        10857 	.byte	0,5,2
000012fb 00000000*     10858 	.word	.LDWlin305
000012ff 0b            10859 	.byte	11
00001300 0b            10860 	.byte	11
00001301 000502        10861 	.byte	0,5,2
00001304 00000000*     10862 	.word	.LDWlin306
00001308 0b            10863 	.byte	11
00001309 000502        10864 	.byte	0,5,2
0000130c 00000000*     10865 	.word	.LDWlin307
00001310 0b            10866 	.byte	11
00001311 0b            10867 	.byte	11
00001312 02            10868 	.byte	2
00001313 00            10869 	.byte	0
00001314 000502        10870 	.byte	0,5,2

                                                                      Page 196
                                                              D:\TEMP\gh_00001gs1.s
00001317 00000000*     10871 	.word	.LDWlin308
0000131b 0b            10872 	.byte	11
0000131c 0b            10873 	.byte	11
0000131d 000502        10874 	.byte	0,5,2
00001320 00000000*     10875 	.word	.LDWlin309
00001324 0b            10876 	.byte	11
00001325 000502        10877 	.byte	0,5,2
00001328 00000000*     10878 	.word	.LDWlin310
0000132c 0b            10879 	.byte	11
0000132d 0b            10880 	.byte	11
0000132e 000502        10881 	.byte	0,5,2
00001331 00000000*     10882 	.word	.LDWlin311
00001335 0b            10883 	.byte	11
00001336 02            10884 	.byte	2
00001337 00            10885 	.byte	0
00001338 0b            10886 	.byte	11
00001339 0c            10887 	.byte	12
0000133a 0b            10888 	.byte	11
0000133b 000502        10889 	.byte	0,5,2
0000133e 00000000*     10890 	.word	.LDWlin312
00001342 0b            10891 	.byte	11
00001343 0b            10892 	.byte	11
00001344 000502        10893 	.byte	0,5,2
00001347 00000000*     10894 	.word	.LDWlin313
0000134b 0b            10895 	.byte	11
0000134c 0c            10896 	.byte	12
0000134d 000502        10897 	.byte	0,5,2
00001350 00000000*     10898 	.word	.LDWlin314
00001354 0c            10899 	.byte	12
00001355 0b            10900 	.byte	11
00001356 000502        10901 	.byte	0,5,2
00001359 00000000*     10902 	.word	.LDWlin315
0000135d 0b            10903 	.byte	11
0000135e 02            10904 	.byte	2
0000135f 00            10905 	.byte	0
00001360 0b            10906 	.byte	11
00001361 33            10907 	.byte	51
00001362 000502        10908 	.byte	0,5,2
00001365 00000000*     10909 	.word	.LDWlin316
00001369 0b            10910 	.byte	11
0000136a 000502        10911 	.byte	0,5,2
0000136d 00000000*     10912 	.word	.LDWlin317
00001371 0b            10913 	.byte	11
00001372 0c            10914 	.byte	12
00001373 0b            10915 	.byte	11
00001374 000502        10916 	.byte	0,5,2
00001377 00000000*     10917 	.word	.LDWlin318
0000137b 0c            10918 	.byte	12
0000137c 000502        10919 	.byte	0,5,2
0000137f 00000000*     10920 	.word	.LDWlin319
00001383 0c            10921 	.byte	12
00001384 0b            10922 	.byte	11
00001385 23            10923 	.byte	35
00001386 02            10924 	.byte	2
00001387 00            10925 	.byte	0
00001388 0b            10926 	.byte	11
00001389 03            10927 	.byte	3
0000138a 06            10928 	.byte	6
0000138b 02            10929 	.byte	2
0000138c 04            10930 	.byte	4
0000138d 01            10931 	.byte	1

                                                                      Page 197
                                                              D:\TEMP\gh_00001gs1.s
0000138e 1b            10932 	.byte	27
0000138f 1b            10933 	.byte	27
00001390 63            10934 	.byte	99
00001391 000502        10935 	.byte	0,5,2
00001394 00000000*     10936 	.word	.LDWlin320
00001398 03            10937 	.byte	3
00001399 08            10938 	.byte	8
0000139a 02            10939 	.byte	2
0000139b 00            10940 	.byte	0
0000139c 01            10941 	.byte	1
0000139d 03            10942 	.byte	3
0000139e 79            10943 	.byte	121
0000139f 02            10944 	.byte	2
000013a0 00            10945 	.byte	0
000013a1 01            10946 	.byte	1
000013a2 02            10947 	.byte	2
000013a3 00            10948 	.byte	0
000013a4 0b            10949 	.byte	11
000013a5 0c            10950 	.byte	12
000013a6 0c            10951 	.byte	12
000013a7 000502        10952 	.byte	0,5,2
000013aa 00000000*     10953 	.word	.LDWlin321
000013ae 0d            10954 	.byte	13
000013af 0c            10955 	.byte	12
000013b0 000502        10956 	.byte	0,5,2
000013b3 00000000*     10957 	.word	.LDWlin322
000013b7 0b            10958 	.byte	11
000013b8 0b            10959 	.byte	11
000013b9 000502        10960 	.byte	0,5,2
000013bc 00000000*     10961 	.word	.LDWlin323
000013c0 0b            10962 	.byte	11
000013c1 000502        10963 	.byte	0,5,2
000013c4 00000000*     10964 	.word	.LDWlin324
000013c8 0b            10965 	.byte	11
000013c9 0b            10966 	.byte	11
000013ca 23            10967 	.byte	35
000013cb 000502        10968 	.byte	0,5,2
000013ce 00000000*     10969 	.word	.LDWlin325
000013d2 0b            10970 	.byte	11
000013d3 0c            10971 	.byte	12
000013d4 0b            10972 	.byte	11
000013d5 13            10973 	.byte	19
000013d6 02            10974 	.byte	2
000013d7 00            10975 	.byte	0
000013d8 0b            10976 	.byte	11
000013d9 02            10977 	.byte	2
000013da 00            10978 	.byte	0
000013db 0b            10979 	.byte	11
000013dc 02            10980 	.byte	2
000013dd 00            10981 	.byte	0
000013de 0c            10982 	.byte	12
000013df 0b            10983 	.byte	11
000013e0 0b            10984 	.byte	11
000013e1 000502        10985 	.byte	0,5,2
000013e4 00000000*     10986 	.word	.LDWlin326
000013e8 0c            10987 	.byte	12
000013e9 3c            10988 	.byte	60
000013ea 1b            10989 	.byte	27
000013eb 13            10990 	.byte	19
000013ec 000502        10991 	.byte	0,5,2
000013ef 00000000*     10992 	.word	.LDWlin327

                                                                      Page 198
                                                              D:\TEMP\gh_00001gs1.s
000013f3 0b            10993 	.byte	11
000013f4 0b            10994 	.byte	11
000013f5 13            10995 	.byte	19
000013f6 1b            10996 	.byte	27
000013f7 13            10997 	.byte	19
000013f8 02            10998 	.byte	2
000013f9 00            10999 	.byte	0
000013fa 0b            11000 	.byte	11
000013fb 02            11001 	.byte	2
000013fc 00            11002 	.byte	0
000013fd 0b            11003 	.byte	11
000013fe 02            11004 	.byte	2
000013ff 00            11005 	.byte	0
00001400 0b            11006 	.byte	11
00001401 02            11007 	.byte	2
00001402 00            11008 	.byte	0
00001403 02            11009 	.byte	2
00001404 00            11010 	.byte	0
00001405 02            11011 	.byte	2
00001406 00            11012 	.byte	0
00001407 02            11013 	.byte	2
00001408 00            11014 	.byte	0
00001409 02            11015 	.byte	2
0000140a 00            11016 	.byte	0
0000140b 02            11017 	.byte	2
0000140c 00            11018 	.byte	0
0000140d 02            11019 	.byte	2
0000140e 00            11020 	.byte	0
0000140f 02            11021 	.byte	2
00001410 00            11022 	.byte	0
00001411 02            11023 	.byte	2
00001412 00            11024 	.byte	0
00001413 02            11025 	.byte	2
00001414 00            11026 	.byte	0
00001415 02            11027 	.byte	2
00001416 00            11028 	.byte	0
00001417 02            11029 	.byte	2
00001418 00            11030 	.byte	0
00001419 02            11031 	.byte	2
0000141a 00            11032 	.byte	0
0000141b 0b            11033 	.byte	11
0000141c 02            11034 	.byte	2
0000141d 04            11035 	.byte	4
0000141e 000101        11036 	.byte	0,1,1
                       11037 	.section	.debug_info
                       11038 .LDW_3bdbdc8:
00001e1f 1d            11039 	.byte	29
00001e20 00000000*     11040 	.word	.LDW07
00001e24 00000000*     11041 	.word	.LDW17
                       11042 
                       11043 .LDW_3c29800:
00001e28 04            11044 	.byte	4
00001e29 72657400      11045 	.strz	"ret"
00001e2d f70e          11046 	.byte	247,14
00001e2f 14            11047 	.byte	20
00001e30 01            11048 	.byte	1
00001e31 00000000*     11049 	.word	.LDW_3bdc340
00001e35 00            11050 	.byte	0
00001e36 00            11051 	.byte	0
00001e37 016b          11052 	.byte	1,107
                       11053 

                                                                      Page 199
                                                              D:\TEMP\gh_00001gs1.s
                       11054 .LDW_3c29858:
00001e39 05            11055 	.byte	5
00001e3a 726567465354  11056 	.strz	"regFSTATR"
00001e40 41545200 
00001e44 f80e          11057 	.byte	248,14
00001e46 14            11058 	.byte	20
00001e47 01            11059 	.byte	1
00001e48 00000000*     11060 	.word	.LDW_3b83718
00001e4c 00            11061 	.byte	0
00001e4d 00            11062 	.byte	0
                       11063 
                       11064 .LDW_3c298b0:
00001e4e 04            11065 	.byte	4
00001e4f 6461746100    11066 	.strz	"data"
00001e54 f90e          11067 	.byte	249,14
00001e56 14            11068 	.byte	20
00001e57 01            11069 	.byte	1
00001e58 00000000*     11070 	.word	.LDW_3b838b8
00001e5c 00            11071 	.byte	0
00001e5d 00            11072 	.byte	0
00001e5e 016b          11073 	.byte	1,107
                       11074 
                       11075 .LDW_3c29908:
00001e60 05            11076 	.byte	5
00001e61 6900          11077 	.strz	"i"
00001e63 fa0e          11078 	.byte	250,14
00001e65 14            11079 	.byte	20
00001e66 01            11080 	.byte	1
00001e67 00000000*     11081 	.word	.LDW_3b83718
00001e6b 00            11082 	.byte	0
00001e6c 00            11083 	.byte	0
                       11084 
                       11085 .LDW_3c29960:
00001e6d 04            11086 	.byte	4
00001e6e 726561644461  11087 	.strz	"readData"
00001e74 746100 
00001e77 fb0e          11088 	.byte	251,14
00001e79 14            11089 	.byte	20
00001e7a 01            11090 	.byte	1
00001e7b 00000000*     11091 	.word	.LDW_3b83718
00001e7f 00            11092 	.byte	0
00001e80 00            11093 	.byte	0
00001e81 0157          11094 	.byte	1,87
                       11095 
                       11096 .LDW_3c299b8:
00001e83 05            11097 	.byte	5
00001e84 736b6970436f  11098 	.strz	"skipCode"
00001e8a 646500 
00001e8d fc0e          11099 	.byte	252,14
00001e8f 14            11100 	.byte	20
00001e90 01            11101 	.byte	1
00001e91 00000000*     11102 	.word	.LDW_3bdc8c0
00001e95 00            11103 	.byte	0
00001e96 00            11104 	.byte	0
                       11105 
                       11106 .LDW_3c29a10:
00001e97 04            11107 	.byte	4
00001e98 6973436d6453  11108 	.strz	"isCmdSpdExec"
00001e9e 706445786563 
00001ea4 00 
00001ea5 fd0e          11109 	.byte	253,14

                                                                      Page 200
                                                              D:\TEMP\gh_00001gs1.s
00001ea7 14            11110 	.byte	20
00001ea8 01            11111 	.byte	1
00001ea9 00000000*     11112 	.word	.LDW_3bdc8c0
00001ead 00            11113 	.byte	0
00001eae 00            11114 	.byte	0
00001eaf 016b          11115 	.byte	1,107
                       11116 
00001eb1 00            11117 	.byte	0
                       11118 
00001eb2 00            11119 	.byte	0
                       11120 
                       11121 .LDW_3bf1f88:
00001eb3 13            11122 	.byte	19
00001eb4 525f46434c5f  11123 	.strz	"R_FCL_FCUFct_HandleLockBit"
00001eba 464355466374 
00001ec0 5f48616e646c 
00001ec6 654c6f636b42 
00001ecc 697400 
00001ecf 9d14          11124 	.byte	157,20
00001ed1 06            11125 	.byte	6
00001ed2 01            11126 	.byte	1
00001ed3 00000000*     11127 	.word	_R_FCL_FCUFct_HandleLockBit
00001ed7 00000000*     11128 	.word	___ghs_eofn_R_FCL_FCUFct_HandleLockBit
00001edb 0153          11129 	.byte	1,83
00001edd 8280808008    11130 	.byte	130,128,128,128,8
00001ee2 04            11131 	.byte	4
00001ee3 03            11132 	.byte	3
00001ee4 04            11133 	.byte	4
00001ee5 00            11134 	.byte	0
00001ee6 00            11135 	.byte	0
00001ee7 00            11136 	.byte	0
00001ee8 01            11137 	.byte	1
00001ee9 01            11138 	.byte	1
00001eea 00            11139 	.byte	0
00001eeb 01            11140 	.byte	1
                       11141 
                       11142 	.section	.debug_frame
                       11143 .LDW_4330f28:
0000041c 00000000*     11144 	.word	.LDW_unq_42-.LDW_unq_41
                       11145 .LDW_unq_41:
00000420 00000000*     11146 	.word	.LDW_3c6e800
00000424 00000000*     11147 	.word	_R_FCL_FCUFct_HandleLockBit
00000428 00000000*     11148 	.word	___ghs_eofn_R_FCL_FCUFct_HandleLockBit-_R_FCL_FCUFct_HandleLockBit
0000042c 44            11149 	.byte	68
0000042d 9f            11150 	.byte	159
0000042e 00            11151 	.byte	0
0000042f 01            11152 	.byte	1
00000430 00000000*     11153 	.word	.LDW37
                       11154 .LDW_unq_42:
                       11155 	.section	.debug_line
00001421 000502        11156 	.byte	0,5,2
00001424 00000000*     11157 	.word	_R_FCL_FCUFct_HandleLockBit
00001428 03            11158 	.byte	3
00001429 9d14          11159 	.byte	157,20
0000142b 02            11160 	.byte	2
0000142c 00            11161 	.byte	0
0000142d 01            11162 	.byte	1
0000142e 06            11163 	.byte	6
0000142f 1b            11164 	.byte	27
00001430 000502        11165 	.byte	0,5,2
00001433 00000000*     11166 	.word	.LDWlin328

                                                                      Page 201
                                                              D:\TEMP\gh_00001gs1.s
00001437 0b            11167 	.byte	11
00001438 0c            11168 	.byte	12
00001439 000502        11169 	.byte	0,5,2
0000143c 00000000*     11170 	.word	.LDWlin329
00001440 0b            11171 	.byte	11
00001441 0c            11172 	.byte	12
00001442 0b            11173 	.byte	11
00001443 000502        11174 	.byte	0,5,2
00001446 00000000*     11175 	.word	.LDWlin330
0000144a 0b            11176 	.byte	11
0000144b 0c            11177 	.byte	12
0000144c 000502        11178 	.byte	0,5,2
0000144f 00000000*     11179 	.word	.LDWlin331
00001453 0d            11180 	.byte	13
00001454 03            11181 	.byte	3
00001455 06            11182 	.byte	6
00001456 02            11183 	.byte	2
00001457 00            11184 	.byte	0
00001458 01            11185 	.byte	1
00001459 03            11186 	.byte	3
0000145a 7f            11187 	.byte	127
0000145b 02            11188 	.byte	2
0000145c 0e            11189 	.byte	14
0000145d 01            11190 	.byte	1
0000145e 000502        11191 	.byte	0,5,2
00001461 00000000*     11192 	.word	.LDWlin332
00001465 03            11193 	.byte	3
00001466 07            11194 	.byte	7
00001467 02            11195 	.byte	2
00001468 00            11196 	.byte	0
00001469 01            11197 	.byte	1
0000146a 02            11198 	.byte	2
0000146b 00            11199 	.byte	0
0000146c 0b            11200 	.byte	11
0000146d 0c            11201 	.byte	12
0000146e 0c            11202 	.byte	12
0000146f 000502        11203 	.byte	0,5,2
00001472 00000000*     11204 	.word	.LDWlin333
00001476 0b            11205 	.byte	11
00001477 0c            11206 	.byte	12
00001478 000502        11207 	.byte	0,5,2
0000147b 00000000*     11208 	.word	.LDWlin334
0000147f 0b            11209 	.byte	11
00001480 0b            11210 	.byte	11
00001481 000502        11211 	.byte	0,5,2
00001484 00000000*     11212 	.word	.LDWlin335
00001488 0c            11213 	.byte	12
00001489 0b            11214 	.byte	11
0000148a 02            11215 	.byte	2
0000148b 00            11216 	.byte	0
0000148c 000502        11217 	.byte	0,5,2
0000148f 00000000*     11218 	.word	.LDWlin336
00001493 0d            11219 	.byte	13
00001494 0b            11220 	.byte	11
00001495 000502        11221 	.byte	0,5,2
00001498 00000000*     11222 	.word	.LDWlin337
0000149c 03            11223 	.byte	3
0000149d 04            11224 	.byte	4
0000149e 02            11225 	.byte	2
0000149f 00            11226 	.byte	0
000014a0 01            11227 	.byte	1

                                                                      Page 202
                                                              D:\TEMP\gh_00001gs1.s
000014a1 0c            11228 	.byte	12
000014a2 0c            11229 	.byte	12
000014a3 35            11230 	.byte	53
000014a4 02            11231 	.byte	2
000014a5 00            11232 	.byte	0
000014a6 02            11233 	.byte	2
000014a7 00            11234 	.byte	0
000014a8 02            11235 	.byte	2
000014a9 00            11236 	.byte	0
000014aa 0c            11237 	.byte	12
000014ab 06            11238 	.byte	6
000014ac 000502        11239 	.byte	0,5,2
000014af 00000000*     11240 	.word	.LDWlin338
000014b3 03            11241 	.byte	3
000014b4 61            11242 	.byte	97
000014b5 02            11243 	.byte	2
000014b6 00            11244 	.byte	0
000014b7 01            11245 	.byte	1
000014b8 06            11246 	.byte	6
000014b9 03            11247 	.byte	3
000014ba 20            11248 	.byte	32
000014bb 02            11249 	.byte	2
000014bc 00            11250 	.byte	0
000014bd 01            11251 	.byte	1
000014be 0c            11252 	.byte	12
000014bf 0c            11253 	.byte	12
000014c0 23            11254 	.byte	35
000014c1 02            11255 	.byte	2
000014c2 00            11256 	.byte	0
000014c3 0b            11257 	.byte	11
000014c4 02            11258 	.byte	2
000014c5 00            11259 	.byte	0
000014c6 0b            11260 	.byte	11
000014c7 02            11261 	.byte	2
000014c8 00            11262 	.byte	0
000014c9 0b            11263 	.byte	11
000014ca 02            11264 	.byte	2
000014cb 04            11265 	.byte	4
000014cc 000101        11266 	.byte	0,1,1
                       11267 	.section	.debug_info
                       11268 .LDW_3bdbdf8:
00001eec 1d            11269 	.byte	29
00001eed 00000000*     11270 	.word	.LDW27
00001ef1 00000000*     11271 	.word	.LDW37
                       11272 
00001ef5 00            11273 	.byte	0
                       11274 
00001ef6 00            11275 	.byte	0
                       11276 
                       11277 .LDW_3bf2020:
00001ef7 13            11278 	.byte	19
00001ef8 525f46434c5f  11279 	.strz	"R_FCL_FCUFct_LockBitMode"
00001efe 464355466374 
00001f04 5f4c6f636b42 
00001f0a 69744d6f6465 
00001f10 00 
00001f11 f714          11280 	.byte	247,20
00001f13 06            11281 	.byte	6
00001f14 01            11282 	.byte	1
00001f15 00000000*     11283 	.word	_R_FCL_FCUFct_LockBitMode
00001f19 00000000*     11284 	.word	___ghs_eofn_R_FCL_FCUFct_LockBitMode

                                                                      Page 203
                                                              D:\TEMP\gh_00001gs1.s
00001f1d 0153          11285 	.byte	1,83
00001f1f 02            11286 	.byte	2
00001f20 00            11287 	.byte	0
00001f21 02            11288 	.byte	2
00001f22 00            11289 	.byte	0
00001f23 00            11290 	.byte	0
00001f24 00            11291 	.byte	0
00001f25 00            11292 	.byte	0
00001f26 01            11293 	.byte	1
00001f27 01            11294 	.byte	1
00001f28 00            11295 	.byte	0
00001f29 01            11296 	.byte	1
                       11297 
                       11298 	.section	.debug_frame
                       11299 .LDW_451d9b0:
00000434 00000000*     11300 	.word	.LDW_unq_44-.LDW_unq_43
                       11301 .LDW_unq_43:
00000438 00000000*     11302 	.word	.LDW_3c6e800
0000043c 00000000*     11303 	.word	_R_FCL_FCUFct_LockBitMode
00000440 00000000*     11304 	.word	___ghs_eofn_R_FCL_FCUFct_LockBitMode-_R_FCL_FCUFct_LockBitMode
00000444 01            11305 	.byte	1
00000445 00000000*     11306 	.word	.LDW57
00000449 00            11307 	.byte	0
0000044a 00            11308 	.byte	0
0000044b 00            11309 	.byte	0
                       11310 .LDW_unq_44:
                       11311 	.section	.debug_line
000014cf 000502        11312 	.byte	0,5,2
000014d2 00000000*     11313 	.word	_R_FCL_FCUFct_LockBitMode
000014d6 03            11314 	.byte	3
000014d7 f714          11315 	.byte	247,20
000014d9 02            11316 	.byte	2
000014da 00            11317 	.byte	0
000014db 01            11318 	.byte	1
000014dc 06            11319 	.byte	6
000014dd 13            11320 	.byte	19
000014de 03            11321 	.byte	3
000014df 07            11322 	.byte	7
000014e0 02            11323 	.byte	2
000014e1 0e            11324 	.byte	14
000014e2 01            11325 	.byte	1
000014e3 02            11326 	.byte	2
000014e4 00            11327 	.byte	0
000014e5 0b            11328 	.byte	11
000014e6 1b            11329 	.byte	27
000014e7 02            11330 	.byte	2
000014e8 02            11331 	.byte	2
000014e9 000101        11332 	.byte	0,1,1
                       11333 	.section	.debug_info
                       11334 .LDW_3c29a68:
00001f2a 0f            11335 	.byte	15
00001f2b 6d6f64655f75  11336 	.strz	"mode_u16"
00001f31 313600 
00001f34 f714          11337 	.byte	247,20
00001f36 29            11338 	.byte	41
00001f37 01            11339 	.byte	1
00001f38 00000000*     11340 	.word	.LDW_3b838b8
00001f3c 00            11341 	.byte	0
00001f3d 0156          11342 	.byte	1,86
                       11343 
                       11344 .LDW_3bdbe58:

                                                                      Page 204
                                                              D:\TEMP\gh_00001gs1.s
00001f3f 1d            11345 	.byte	29
00001f40 00000000*     11346 	.word	.LDW47
00001f44 00000000*     11347 	.word	.LDW57
                       11348 
00001f48 00            11349 	.byte	0
                       11350 
00001f49 00            11351 	.byte	0
                       11352 
00001f4a 00            11353 	.byte	0
                       11354 
                       11355 	.section	.debug_line
                       11356 .Ldw_line_end:
                       11357 	.section	.debug_macinfo
00000000 03            11358 	.byte	3
00000001 00            11359 	.byte	0
00000002 01            11360 	.byte	1
00000003 03            11361 	.byte	3
00000004 51            11362 	.byte	81
00000005 02            11363 	.byte	2
00000006 04            11364 	.byte	4
00000007 03            11365 	.byte	3
00000008 52            11366 	.byte	82
00000009 03            11367 	.byte	3
0000000a 01            11368 	.byte	1
0000000b 1f            11369 	.byte	31
0000000c 525f46434c5f  11370 	.strz	"R_FCL_HANDLER_CALL_INTERNAL (1)"
00000012 48414e444c45 
00000018 525f43414c4c 
0000001e 5f494e544552 
00000024 4e414c202831 
0000002a 2900 
0000002c 01            11371 	.byte	1
0000002d 20            11372 	.byte	32
0000002e 525f46434c5f  11373 	.strz	"R_FCL_HANDLER_CALL_USER (2)"
00000034 48414e444c45 
0000003a 525f43414c4c 
00000040 5f5553455220 
00000046 28322900 
0000004a 01            11374 	.byte	1
0000004b 31            11375 	.byte	49
0000004c 525f46434c5f  11376 	.strz	"R_FCL_COMMAND_EXECUTION_MODE R_FCL_HANDLER_CALL_USER"
00000052 434f4d4d414e 
00000058 445f45584543 
0000005e 5554494f4e5f 
00000064 4d4f44452052 
0000006a 5f46434c5f48 
00000070 414e444c4552 
00000076 5f43414c4c5f 
0000007c 5553455200 
00000081 01            11377 	.byte	1
00000082 35            11378 	.byte	53
00000083 525f46434c5f  11379 	.strz	"R_FCL_SUPPORT_LOCKBIT "
00000089 535550504f52 
0000008f 545f4c4f434b 
00000095 4249542000 
0000009a 01            11380 	.byte	1
0000009b 36            11381 	.byte	54
0000009c 525f46434c5f  11382 	.strz	"R_FCL_SUPPORT_DEVICENAME "
000000a2 535550504f52 
000000a8 545f44455649 
000000ae 43454e414d45 

                                                                      Page 205
                                                              D:\TEMP\gh_00001gs1.s
000000b4 2000 
000000b6 01            11383 	.byte	1
000000b7 37            11384 	.byte	55
000000b8 525f46434c5f  11385 	.strz	"R_FCL_SUPPORT_BLOCKCNT "
000000be 535550504f52 
000000c4 545f424c4f43 
000000ca 4b434e542000 
000000d0 01            11386 	.byte	1
000000d1 38            11387 	.byte	56
000000d2 525f46434c5f  11388 	.strz	"R_FCL_SUPPORT_BLOCKENDADDR "
000000d8 535550504f52 
000000de 545f424c4f43 
000000e4 4b454e444144 
000000ea 44522000 
000000ee 01            11389 	.byte	1
000000ef 3c            11390 	.byte	60
000000f0 525f46434c5f  11391 	.strz	"R_FCL_SUPPORT_SECURITYFLAGS "
000000f6 535550504f52 
000000fc 545f53454355 
00000102 52495459464c 
00000108 4147532000 
0000010d 04            11392 	.byte	4
0000010e 03            11393 	.byte	3
0000010f 53            11394 	.byte	83
00000110 04            11395 	.byte	4
00000111 01            11396 	.byte	1
00000112 36            11397 	.byte	54
00000113 525f46434c5f  11398 	.strz	"R_FCL_NULL 0x00000000uL"
00000119 4e554c4c2030 
0000011f 783030303030 
00000125 303030754c00 
0000012b 01            11399 	.byte	1
0000012c 39            11400 	.byte	57
0000012d 525f46434c5f  11401 	.strz	"R_FCL_COMP_GHS (1)"
00000133 434f4d505f47 
00000139 485320283129 
0000013f 00 
00000140 01            11402 	.byte	1
00000141 44            11403 	.byte	68
00000142 525f46434c5f  11404 	.strz	"R_FCL_COMPILER R_FCL_COMP_GHS"
00000148 434f4d50494c 
0000014e 455220525f46 
00000154 434c5f434f4d 
0000015a 505f47485300 
00000160 04            11405 	.byte	4
00000161 03            11406 	.byte	3
00000162 54            11407 	.byte	84
00000163 05            11408 	.byte	5
00000164 01            11409 	.byte	1
00000165 3c            11410 	.byte	60
00000166 525f46434c5f  11411 	.strz	"R_FCL_STATIC static"
0000016c 535441544943 
00000172 207374617469 
00000178 6300 
0000017a 01            11412 	.byte	1
0000017b 43            11413 	.byte	67
0000017c 525f46434c5f  11414 	.strz	"R_FCL_REQUEST_POINTER_UNDEFINED (r_fcl_request_t *)(0x00000000uL)"
00000182 524551554553 
00000188 545f504f494e 
0000018e 5445525f554e 
00000194 444546494e45 

                                                                      Page 206
                                                              D:\TEMP\gh_00001gs1.s
0000019a 442028725f66 
000001a0 636c5f726571 
000001a6 756573745f74 
000001ac 202a29283078 
000001b2 303030303030 
000001b8 3030754c2900 
000001be 01            11415 	.byte	1
000001bf e401          11416 	.byte	228,1
000001c1 525f46434c5f  11417 	.strz	"R_FCL_NOINIT "
000001c7 4e4f494e4954 
000001cd 2000 
000001cf 04            11418 	.byte	4
000001d0 03            11419 	.byte	3
000001d1 55            11420 	.byte	85
000001d2 06            11421 	.byte	6
000001d3 01            11422 	.byte	1
000001d4 36            11423 	.byte	54
000001d5 525f46505359  11424 	.strz	"R_FPSYS_REG_AREA_BASE (0xFFA10000uL)"
000001db 535f5245475f 
000001e1 415245415f42 
000001e7 415345202830 
000001ed 784646413130 
000001f3 303030754c29 
000001f9 00 
000001fa 01            11425 	.byte	1
000001fb 37            11426 	.byte	55
000001fc 525f46505359  11427 	.strz	"R_FPSYS_FCURAM_AREA_BASE (0xFFA12000uL)"
00000202 535f46435552 
00000208 414d5f415245 
0000020e 415f42415345 
00000214 202830784646 
0000021a 413132303030 
00000220 754c2900 
00000224 01            11428 	.byte	1
00000225 38            11429 	.byte	56
00000226 525f46505359  11430 	.strz	"R_FPSYS_FLASH_ACCESS_AREA_BASE (0xFFA20000uL)"
0000022c 535f464c4153 
00000232 485f41434345 
00000238 53535f415245 
0000023e 415f42415345 
00000244 202830784646 
0000024a 413230303030 
00000250 754c2900 
00000254 01            11431 	.byte	1
00000255 3b            11432 	.byte	59
00000256 525f46505359  11433 	.strz	"R_FPSYS_REGADD_AUTH_BASE (0xFFA08000uL)"
0000025c 535f52454741 
00000262 44445f415554 
00000268 485f42415345 
0000026e 202830784646 
00000274 413038303030 
0000027a 754c2900 
0000027e 01            11434 	.byte	1
0000027f 3c            11435 	.byte	60
00000280 525f46505359  11436 	.strz	"R_FPSYS_REGADD_AUTH_ID0_U32 (R_FPSYS_REGADD_AUTH_BASE + 0x000uL)"
00000286 535f52454741 
0000028c 44445f415554 
00000292 485f4944305f 
00000298 553332202852 
0000029e 5f4650535953 
000002a4 5f5245474144 

                                                                      Page 207
                                                              D:\TEMP\gh_00001gs1.s
000002aa 445f41555448 
000002b0 5f4241534520 
000002b6 2b2030783030 
000002bc 30754c2900 
000002c1 01            11437 	.byte	1
000002c2 3d            11438 	.byte	61
000002c3 525f46505359  11439 	.strz	"R_FPSYS_REGADD_AUTH_ID1_U32 (R_FPSYS_REGADD_AUTH_BASE + 0x004uL)"
000002c9 535f52454741 
000002cf 44445f415554 
000002d5 485f4944315f 
000002db 553332202852 
000002e1 5f4650535953 
000002e7 5f5245474144 
000002ed 445f41555448 
000002f3 5f4241534520 
000002f9 2b2030783030 
000002ff 34754c2900 
00000304 01            11440 	.byte	1
00000305 3e            11441 	.byte	62
00000306 525f46505359  11442 	.strz	"R_FPSYS_REGADD_AUTH_ID2_U32 (R_FPSYS_REGADD_AUTH_BASE + 0x008uL)"
0000030c 535f52454741 
00000312 44445f415554 
00000318 485f4944325f 
0000031e 553332202852 
00000324 5f4650535953 
0000032a 5f5245474144 
00000330 445f41555448 
00000336 5f4241534520 
0000033c 2b2030783030 
00000342 38754c2900 
00000347 01            11443 	.byte	1
00000348 3f            11444 	.byte	63
00000349 525f46505359  11445 	.strz	"R_FPSYS_REGADD_AUTH_ID3_U32 (R_FPSYS_REGADD_AUTH_BASE + 0x00cuL)"
0000034f 535f52454741 
00000355 44445f415554 
0000035b 485f4944335f 
00000361 553332202852 
00000367 5f4650535953 
0000036d 5f5245474144 
00000373 445f41555448 
00000379 5f4241534520 
0000037f 2b2030783030 
00000385 63754c2900 
0000038a 01            11446 	.byte	1
0000038b 40            11447 	.byte	64
0000038c 525f46505359  11448 	.strz	"R_FPSYS_REGADD_AUTH_STATUS_U32 (R_FPSYS_REGADD_AUTH_BASE + 0x010uL)"
00000392 535f52454741 
00000398 44445f415554 
0000039e 485f53544154 
000003a4 55535f553332 
000003aa 2028525f4650 
000003b0 5359535f5245 
000003b6 474144445f41 
000003bc 5554485f4241 
000003c2 5345202b2030 
000003c8 78303130754c 
000003ce 2900 
000003d0 01            11449 	.byte	1
000003d1 41            11450 	.byte	65
000003d2 525f46505359  11451 	.strz	"R_FPSYS_REGBIT_AUTH_STATUS_LOCKED (0x00000001uL)"
000003d8 535f52454742 

                                                                      Page 208
                                                              D:\TEMP\gh_00001gs1.s
000003de 49545f415554 
000003e4 485f53544154 
000003ea 55535f4c4f43 
000003f0 4b4544202830 
000003f6 783030303030 
000003fc 303031754c29 
00000402 00 
00000403 01            11452 	.byte	1
00000404 44            11453 	.byte	68
00000405 525f46505359  11454 	.strz	"R_FPSYS_REGADD_FPMON_U8 (R_FPSYS_REG_AREA_BASE)"
0000040b 535f52454741 
00000411 44445f46504d 
00000417 4f4e5f553820 
0000041d 28525f465053 
00000423 59535f524547 
00000429 5f415245415f 
0000042f 424153452900 
00000435 01            11455 	.byte	1
00000436 45            11456 	.byte	69
00000437 525f46505359  11457 	.strz	"R_FPSYS_REGBIT_SFWE (0x80u)"
0000043d 535f52454742 
00000443 49545f534657 
00000449 452028307838 
0000044f 30752900 
00000453 01            11458 	.byte	1
00000454 47            11459 	.byte	71
00000455 525f46505359  11460 	.strz	"R_FPSYS_REGADD_FCURAME_U16 (R_FPSYS_REG_AREA_BASE + 0x054uL)"
0000045b 535f52454741 
00000461 44445f464355 
00000467 52414d455f55 
0000046d 31362028525f 
00000473 46505359535f 
00000479 5245475f4152 
0000047f 45415f424153 
00000485 45202b203078 
0000048b 303534754c29 
00000491 00 
00000492 01            11461 	.byte	1
00000493 48            11462 	.byte	72
00000494 525f46505359  11463 	.strz	"R_FPSYS_REGBIT_FCURAME_KEY (0xC400u)"
0000049a 535f52454742 
000004a0 49545f464355 
000004a6 52414d455f4b 
000004ac 455920283078 
000004b2 433430307529 
000004b8 00 
000004b9 01            11464 	.byte	1
000004ba 49            11465 	.byte	73
000004bb 525f46505359  11466 	.strz	"R_FPSYS_REGBIT_FCURAME_FCRME (0x0001u)"
000004c1 535f52454742 
000004c7 49545f464355 
000004cd 52414d455f46 
000004d3 43524d452028 
000004d9 307830303031 
000004df 752900 
000004e2 01            11467 	.byte	1
000004e3 4a            11468 	.byte	74
000004e4 525f46505359  11469 	.strz	"R_FPSYS_REGBIT_FCURAME_FRAMTRAN (0x0002u)"
000004ea 535f52454742 
000004f0 49545f464355 
000004f6 52414d455f46 

                                                                      Page 209
                                                              D:\TEMP\gh_00001gs1.s
000004fc 52414d545241 
00000502 4e2028307830 
00000508 303032752900 
0000050e 01            11470 	.byte	1
0000050f 4b            11471 	.byte	75
00000510 525f46505359  11472 	.strz	"R_FPSYS_REGBIT_FCURAME_RESET (0x0000u)"
00000516 535f52454742 
0000051c 49545f464355 
00000522 52414d455f52 
00000528 455345542028 
0000052e 307830303030 
00000534 752900 
00000537 01            11473 	.byte	1
00000538 4d            11474 	.byte	77
00000539 525f46505359  11475 	.strz	"R_FPSYS_REGADD_FSADR_U32 (R_FPSYS_REG_AREA_BASE + 0x030uL)"
0000053f 535f52454741 
00000545 44445f465341 
0000054b 44525f553332 
00000551 2028525f4650 
00000557 5359535f5245 
0000055d 475f41524541 
00000563 5f4241534520 
00000569 2b2030783033 
0000056f 30754c2900 
00000574 01            11476 	.byte	1
00000575 4e            11477 	.byte	78
00000576 525f46505359  11478 	.strz	"R_FPSYS_REGADD_FEADR_U32 (R_FPSYS_REG_AREA_BASE + 0x034uL)"
0000057c 535f52454741 
00000582 44445f464541 
00000588 44525f553332 
0000058e 2028525f4650 
00000594 5359535f5245 
0000059a 475f41524541 
000005a0 5f4241534520 
000005a6 2b2030783033 
000005ac 34754c2900 
000005b1 01            11479 	.byte	1
000005b2 50            11480 	.byte	80
000005b3 525f46505359  11481 	.strz	"R_FPSYS_REGADD_FASTAT_U8 (R_FPSYS_REG_AREA_BASE + 0x010uL)"
000005b9 535f52454741 
000005bf 44445f464153 
000005c5 5441545f5538 
000005cb 2028525f4650 
000005d1 5359535f5245 
000005d7 475f41524541 
000005dd 5f4241534520 
000005e3 2b2030783031 
000005e9 30754c2900 
000005ee 01            11482 	.byte	1
000005ef 51            11483 	.byte	81
000005f0 525f46505359  11484 	.strz	"R_FPSYS_REGBIT_FASTAT_CMDLK (0x10u)"
000005f6 535f52454742 
000005fc 49545f464153 
00000602 5441545f434d 
00000608 444c4b202830 
0000060e 783130752900 
00000614 01            11485 	.byte	1
00000615 53            11486 	.byte	83
00000616 525f46505359  11487 	.strz	"R_FPSYS_REGADD_PCKAR_U16 (R_FPSYS_REG_AREA_BASE + 0x0E4uL)"
0000061c 535f52454741 
00000622 44445f50434b 

                                                                      Page 210
                                                              D:\TEMP\gh_00001gs1.s
00000628 41525f553136 
0000062e 2028525f4650 
00000634 5359535f5245 
0000063a 475f41524541 
00000640 5f4241534520 
00000646 2b2030783045 
0000064c 34754c2900 
00000651 01            11488 	.byte	1
00000652 54            11489 	.byte	84
00000653 525f46505359  11490 	.strz	"R_FPSYS_REGBIT_PCKAR_KEY (0x1E00u)"
00000659 535f52454742 
0000065f 49545f50434b 
00000665 41525f4b4559 
0000066b 202830783145 
00000671 3030752900 
00000676 01            11491 	.byte	1
00000677 56            11492 	.byte	86
00000678 525f46505359  11493 	.strz	"R_FPSYS_REGADD_FMATSELC_U16 (R_FPSYS_REG_AREA_BASE + 0x020uL)"
0000067e 535f52454741 
00000684 44445f464d41 
0000068a 5453454c435f 
00000690 553136202852 
00000696 5f4650535953 
0000069c 5f5245475f41 
000006a2 5245415f4241 
000006a8 5345202b2030 
000006ae 78303230754c 
000006b4 2900 
000006b6 01            11494 	.byte	1
000006b7 57            11495 	.byte	87
000006b8 525f46505359  11496 	.strz	"R_FPSYS_REGBIT_FMATSELC_KEY (0x3B00u)"
000006be 535f52454742 
000006c4 49545f464d41 
000006ca 5453454c435f 
000006d0 4b4559202830 
000006d6 783342303075 
000006dc 2900 
000006de 01            11497 	.byte	1
000006df 58            11498 	.byte	88
000006e0 525f46505359  11499 	.strz	"R_FPSYS_REGBIT_FMATSELC_USS (0x0000u)"
000006e6 535f52454742 
000006ec 49545f464d41 
000006f2 5453454c435f 
000006f8 555353202830 
000006fe 783030303075 
00000704 2900 
00000706 01            11500 	.byte	1
00000707 5a            11501 	.byte	90
00000708 525f46505359  11502 	.strz	"R_FPSYS_REGBIT_FMATSELC_EX2S (0x0002u)"
0000070e 535f52454742 
00000714 49545f464d41 
0000071a 5453454c435f 
00000720 455832532028 
00000726 307830303032 
0000072c 752900 
0000072f 01            11503 	.byte	1
00000730 5c            11504 	.byte	92
00000731 525f46505359  11505 	.strz	"R_FPSYS_REGADD_FSTATR_U32 (R_FPSYS_REG_AREA_BASE + 0x080uL)"
00000737 535f52454741 
0000073d 44445f465354 
00000743 4154525f5533 

                                                                      Page 211
                                                              D:\TEMP\gh_00001gs1.s
00000749 322028525f46 
0000074f 505359535f52 
00000755 45475f415245 
0000075b 415f42415345 
00000761 202b20307830 
00000767 3830754c2900 
0000076d 01            11506 	.byte	1
0000076e 5d            11507 	.byte	93
0000076f 525f46505359  11508 	.strz	"R_FPSYS_REGBIT_FSTATR_RESET (0x00000000uL)"
00000775 535f52454742 
0000077b 49545f465354 
00000781 4154525f5245 
00000787 534554202830 
0000078d 783030303030 
00000793 303030754c29 
00000799 00 
0000079a 01            11509 	.byte	1
0000079b 5e            11510 	.byte	94
0000079c 525f46505359  11511 	.strz	"R_FPSYS_REGBIT_FSTATR_FCURAMERR (0x00000002uL)"
000007a2 535f52454742 
000007a8 49545f465354 
000007ae 4154525f4643 
000007b4 5552414d4552 
000007ba 522028307830 
000007c0 303030303030 
000007c6 32754c2900 
000007cb 01            11512 	.byte	1
000007cc 5f            11513 	.byte	95
000007cd 525f46505359  11514 	.strz	"R_FPSYS_REGBIT_FSTATR_TBLDERR (0x00000008uL)"
000007d3 535f52454742 
000007d9 49545f465354 
000007df 4154525f5442 
000007e5 4c4445525220 
000007eb 283078303030 
000007f1 303030303875 
000007f7 4c2900 
000007fa 01            11515 	.byte	1
000007fb 60            11516 	.byte	96
000007fc 525f46505359  11517 	.strz	"R_FPSYS_REGBIT_FSTATR_CONFDERR (0x00000020uL)"
00000802 535f52454742 
00000808 49545f465354 
0000080e 4154525f434f 
00000814 4e4644455252 
0000081a 202830783030 
00000820 303030303230 
00000826 754c2900 
0000082a 01            11518 	.byte	1
0000082b 61            11519 	.byte	97
0000082c 525f46505359  11520 	.strz	"R_FPSYS_REGBIT_FSTATR_FHVEERR (0x00000040uL)"
00000832 535f52454742 
00000838 49545f465354 
0000083e 4154525f4648 
00000844 564545525220 
0000084a 283078303030 
00000850 303030343075 
00000856 4c2900 
00000859 01            11521 	.byte	1
0000085a 62            11522 	.byte	98
0000085b 525f46505359  11523 	.strz	"R_FPSYS_REGBIT_FSTATR_FCUERR (0x00000080uL)"
00000861 535f52454742 
00000867 49545f465354 

                                                                      Page 212
                                                              D:\TEMP\gh_00001gs1.s
0000086d 4154525f4643 
00000873 554552522028 
00000879 307830303030 
0000087f 30303830754c 
00000885 2900 
00000887 01            11524 	.byte	1
00000888 63            11525 	.byte	99
00000889 525f46505359  11526 	.strz	"R_FPSYS_REGBIT_FSTATR_PRGSPD (0x00000100uL)"
0000088f 535f52454742 
00000895 49545f465354 
0000089b 4154525f5052 
000008a1 475350442028 
000008a7 307830303030 
000008ad 30313030754c 
000008b3 2900 
000008b5 01            11527 	.byte	1
000008b6 64            11528 	.byte	100
000008b7 525f46505359  11529 	.strz	"R_FPSYS_REGBIT_FSTATR_ERSSPD (0x00000200uL)"
000008bd 535f52454742 
000008c3 49545f465354 
000008c9 4154525f4552 
000008cf 535350442028 
000008d5 307830303030 
000008db 30323030754c 
000008e1 2900 
000008e3 01            11530 	.byte	1
000008e4 65            11531 	.byte	101
000008e5 525f46505359  11532 	.strz	"R_FPSYS_REGBIT_FSTATR_DBFULL (0x00000400uL)"
000008eb 535f52454742 
000008f1 49545f465354 
000008f7 4154525f4442 
000008fd 46554c4c2028 
00000903 307830303030 
00000909 30343030754c 
0000090f 2900 
00000911 01            11533 	.byte	1
00000912 66            11534 	.byte	102
00000913 525f46505359  11535 	.strz	"R_FPSYS_REGBIT_FSTATR_SUSRDY (0x00000800uL)"
00000919 535f52454742 
0000091f 49545f465354 
00000925 4154525f5355 
0000092b 535244592028 
00000931 307830303030 
00000937 30383030754c 
0000093d 2900 
0000093f 01            11536 	.byte	1
00000940 67            11537 	.byte	103
00000941 525f46505359  11538 	.strz	"R_FPSYS_REGBIT_FSTATR_PRGERR (0x00001000uL)"
00000947 535f52454742 
0000094d 49545f465354 
00000953 4154525f5052 
00000959 474552522028 
0000095f 307830303030 
00000965 31303030754c 
0000096b 2900 
0000096d 01            11539 	.byte	1
0000096e 68            11540 	.byte	104
0000096f 525f46505359  11541 	.strz	"R_FPSYS_REGBIT_FSTATR_ERSERR (0x00002000uL)"
00000975 535f52454742 
0000097b 49545f465354 
00000981 4154525f4552 

                                                                      Page 213
                                                              D:\TEMP\gh_00001gs1.s
00000987 534552522028 
0000098d 307830303030 
00000993 32303030754c 
00000999 2900 
0000099b 01            11542 	.byte	1
0000099c 69            11543 	.byte	105
0000099d 525f46505359  11544 	.strz	"R_FPSYS_REGBIT_FSTATR_ILGERR (0x00004000uL)"
000009a3 535f52454742 
000009a9 49545f465354 
000009af 4154525f494c 
000009b5 474552522028 
000009bb 307830303030 
000009c1 34303030754c 
000009c7 2900 
000009c9 01            11545 	.byte	1
000009ca 6a            11546 	.byte	106
000009cb 525f46505359  11547 	.strz	"R_FPSYS_REGBIT_FSTATR_FRDY (0x00008000uL)"
000009d1 535f52454742 
000009d7 49545f465354 
000009dd 4154525f4652 
000009e3 445920283078 
000009e9 303030303830 
000009ef 3030754c2900 
000009f5 01            11548 	.byte	1
000009f6 6b            11549 	.byte	107
000009f7 525f46505359  11550 	.strz	"R_FPSYS_REGBIT_FSTATR_OTPDERR (0x00020000uL)"
000009fd 535f52454742 
00000a03 49545f465354 
00000a09 4154525f4f54 
00000a0f 504445525220 
00000a15 283078303030 
00000a1b 323030303075 
00000a21 4c2900 
00000a24 01            11551 	.byte	1
00000a25 6d            11552 	.byte	109
00000a26 525f46505359  11553 	.strz	"R_FPSYS_REGADD_FPESTAT_U16 (R_FPSYS_REG_AREA_BASE + 0x0C0uL)"
00000a2c 535f52454741 
00000a32 44445f465045 
00000a38 535441545f55 
00000a3e 31362028525f 
00000a44 46505359535f 
00000a4a 5245475f4152 
00000a50 45415f424153 
00000a56 45202b203078 
00000a5c 304330754c29 
00000a62 00 
00000a63 01            11554 	.byte	1
00000a64 6e            11555 	.byte	110
00000a65 525f46505359  11556 	.strz	"R_FPSYS_REGBIT_FPESTAT_WRITELOCK (0x0001u)"
00000a6b 535f52454742 
00000a71 49545f465045 
00000a77 535441545f57 
00000a7d 524954454c4f 
00000a83 434b20283078 
00000a89 303030317529 
00000a8f 00 
00000a90 01            11557 	.byte	1
00000a91 6f            11558 	.byte	111
00000a92 525f46505359  11559 	.strz	"R_FPSYS_REGBIT_FPESTAT_ERASELOCK (0x0011u)"
00000a98 535f52454742 
00000a9e 49545f465045 

                                                                      Page 214
                                                              D:\TEMP\gh_00001gs1.s
00000aa4 535441545f45 
00000aaa 524153454c4f 
00000ab0 434b20283078 
00000ab6 303031317529 
00000abc 00 
00000abd 01            11560 	.byte	1
00000abe 71            11561 	.byte	113
00000abf 525f46505359  11562 	.strz	"R_FPSYS_REGADD_FPROTR_U16 (R_FPSYS_REG_AREA_BASE + 0x088uL)"
00000ac5 535f52454741 
00000acb 44445f465052 
00000ad1 4f54525f5531 
00000ad7 362028525f46 
00000add 505359535f52 
00000ae3 45475f415245 
00000ae9 415f42415345 
00000aef 202b20307830 
00000af5 3838754c2900 
00000afb 01            11563 	.byte	1
00000afc 73            11564 	.byte	115
00000afd 525f46505359  11565 	.strz	"R_FPSYS_REGBIT_FPROTR_KEY (0x5500u)"
00000b03 535f52454742 
00000b09 49545f465052 
00000b0f 4f54525f4b45 
00000b15 592028307835 
00000b1b 353030752900 
00000b21 01            11566 	.byte	1
00000b22 74            11567 	.byte	116
00000b23 525f46505359  11568 	.strz	"R_FPSYS_REGBIT_FPROTR_OFF (0x0001u)"
00000b29 535f52454742 
00000b2f 49545f465052 
00000b35 4f54525f4f46 
00000b3b 462028307830 
00000b41 303031752900 
00000b47 01            11569 	.byte	1
00000b48 75            11570 	.byte	117
00000b49 525f46505359  11571 	.strz	"R_FPSYS_REGBIT_FPROTR_ON (0x0000u)"
00000b4f 535f52454742 
00000b55 49545f465052 
00000b5b 4f54525f4f4e 
00000b61 202830783030 
00000b67 3030752900 
00000b6c 01            11572 	.byte	1
00000b6d 77            11573 	.byte	119
00000b6e 525f46505359  11574 	.strz	"R_FPSYS_REGADD_FLKSTAT_U8 (R_FPSYS_REG_AREA_BASE + 0x090uL)"
00000b74 535f52454741 
00000b7a 44445f464c4b 
00000b80 535441545f55 
00000b86 382028525f46 
00000b8c 505359535f52 
00000b92 45475f415245 
00000b98 415f42415345 
00000b9e 202b20307830 
00000ba4 3930754c2900 
00000baa 01            11575 	.byte	1
00000bab 79            11576 	.byte	121
00000bac 525f46505359  11577 	.strz	"R_FPSYS_REGADD_FENTRYR_U16 (R_FPSYS_REG_AREA_BASE + 0x084uL)"
00000bb2 535f52454741 
00000bb8 44445f46454e 
00000bbe 545259525f55 
00000bc4 31362028525f 
00000bca 46505359535f 

                                                                      Page 215
                                                              D:\TEMP\gh_00001gs1.s
00000bd0 5245475f4152 
00000bd6 45415f424153 
00000bdc 45202b203078 
00000be2 303834754c29 
00000be8 00 
00000be9 01            11578 	.byte	1
00000bea 7a            11579 	.byte	122
00000beb 525f46505359  11580 	.strz	"R_FPSYS_REGBIT_FENTRY_FENTRYD (0x0080u)"
00000bf1 535f52454742 
00000bf7 49545f46454e 
00000bfd 5452595f4645 
00000c03 4e5452594420 
00000c09 283078303038 
00000c0f 30752900 
00000c13 01            11581 	.byte	1
00000c14 7b            11582 	.byte	123
00000c15 525f46505359  11583 	.strz	"R_FPSYS_REGBIT_FENTRY_FENTRYC (0x0001u)"
00000c1b 535f52454742 
00000c21 49545f46454e 
00000c27 5452595f4645 
00000c2d 4e5452594320 
00000c33 283078303030 
00000c39 31752900 
00000c3d 01            11584 	.byte	1
00000c3e 7c            11585 	.byte	124
00000c3f 525f46505359  11586 	.strz	"R_FPSYS_REGBIT_FENTRY_KEY (0xAA00u)"
00000c45 535f52454742 
00000c4b 49545f46454e 
00000c51 5452595f4b45 
00000c57 592028307841 
00000c5d 413030752900 
00000c63 01            11587 	.byte	1
00000c64 7d            11588 	.byte	125
00000c65 525f46505359  11589 	.strz	"R_FPSYS_REGBIT_FENTRY_OFF (0x0000u)"
00000c6b 535f52454742 
00000c71 49545f46454e 
00000c77 5452595f4f46 
00000c7d 462028307830 
00000c83 303030752900 
00000c89 01            11590 	.byte	1
00000c8a 7f            11591 	.byte	127
00000c8b 525f46505359  11592 	.strz	"R_FPSYS_MODE_DPE (R_FPSYS_REGBIT_FENTRY_FENTRYD)"
00000c91 535f4d4f4445 
00000c97 5f4450452028 
00000c9d 525f46505359 
00000ca3 535f52454742 
00000ca9 49545f46454e 
00000caf 5452595f4645 
00000cb5 4e5452594429 
00000cbb 00 
00000cbc 01            11593 	.byte	1
00000cbd 8001          11594 	.byte	128,1
00000cbf 525f46505359  11595 	.strz	"R_FPSYS_MODE_CPE (R_FPSYS_REGBIT_FENTRY_FENTRYC)"
00000cc5 535f4d4f4445 
00000ccb 5f4350452028 
00000cd1 525f46505359 
00000cd7 535f52454742 
00000cdd 49545f46454e 
00000ce3 5452595f4645 
00000ce9 4e5452594329 
00000cef 00 

                                                                      Page 216
                                                              D:\TEMP\gh_00001gs1.s
00000cf0 01            11596 	.byte	1
00000cf1 8401          11597 	.byte	132,1
00000cf3 525f46505359  11598 	.strz	"R_FPSYS_FCURAM_AREA_SIZE (0x00001000uL)"
00000cf9 535f46435552 
00000cff 414d5f415245 
00000d05 415f53495a45 
00000d0b 202830783030 
00000d11 303031303030 
00000d17 754c2900 
00000d1b 01            11599 	.byte	1
00000d1c 8501          11600 	.byte	133,1
00000d1e 525f46505359  11601 	.strz	"R_FPSYS_FCURAM_AREA_COPY_SIZE (R_FPSYS_FCURAM_AREA_SIZE / 8)"
00000d24 535f46435552 
00000d2a 414d5f415245 
00000d30 415f434f5059 
00000d36 5f53495a4520 
00000d3c 28525f465053 
00000d42 59535f464355 
00000d48 52414d5f4152 
00000d4e 45415f53495a 
00000d54 45202f203829 
00000d5a 00 
00000d5b 01            11602 	.byte	1
00000d5c 8601          11603 	.byte	134,1
00000d5e 525f46505359  11604 	.strz	"R_FPSYS_FCURAM_AREA_RAM_ADD (0x00017000uL)"
00000d64 535f46435552 
00000d6a 414d5f415245 
00000d70 415f52414d5f 
00000d76 414444202830 
00000d7c 783030303137 
00000d82 303030754c29 
00000d88 00 
00000d89 01            11605 	.byte	1
00000d8a 8701          11606 	.byte	135,1
00000d8c 525f46505359  11607 	.strz	"R_FPSYS_FCURAM_AREA_CHKSUM_END (R_FPSYS_FCURAM_AREA_RAM_ADD + 0x0FF8uL)"
00000d92 535f46435552 
00000d98 414d5f415245 
00000d9e 415f43484b53 
00000da4 554d5f454e44 
00000daa 2028525f4650 
00000db0 5359535f4643 
00000db6 5552414d5f41 
00000dbc 5245415f5241 
00000dc2 4d5f41444420 
00000dc8 2b2030783046 
00000dce 4638754c2900 
00000dd4 01            11608 	.byte	1
00000dd5 8801          11609 	.byte	136,1
00000dd7 525f46505359  11610 	.strz	"R_FPSYS_FCURAM_AREA_CHKSUM (R_FPSYS_FCURAM_AREA_RAM_ADD + 0x0FFCuL)"
00000ddd 535f46435552 
00000de3 414d5f415245 
00000de9 415f43484b53 
00000def 554d2028525f 
00000df5 46505359535f 
00000dfb 46435552414d 
00000e01 5f415245415f 
00000e07 52414d5f4144 
00000e0d 44202b203078 
00000e13 30464643754c 
00000e19 2900 
00000e1b 01            11611 	.byte	1

                                                                      Page 217
                                                              D:\TEMP\gh_00001gs1.s
00000e1c 8b01          11612 	.byte	139,1
00000e1e 525f46505359  11613 	.strz	"R_FPSYS_FLASH_ACCESS_CMD_ERASE (0x20u)"
00000e24 535f464c4153 
00000e2a 485f41434345 
00000e30 53535f434d44 
00000e36 5f4552415345 
00000e3c 202830783230 
00000e42 752900 
00000e45 01            11614 	.byte	1
00000e46 8c01          11615 	.byte	140,1
00000e48 525f46505359  11616 	.strz	"R_FPSYS_FLASH_ACCESS_CMD_CLEARSTAT (0x50u)"
00000e4e 535f464c4153 
00000e54 485f41434345 
00000e5a 53535f434d44 
00000e60 5f434c454152 
00000e66 535441542028 
00000e6c 307835307529 
00000e72 00 
00000e73 01            11617 	.byte	1
00000e74 8d01          11618 	.byte	141,1
00000e76 525f46505359  11619 	.strz	"R_FPSYS_FLASH_ACCESS_CMD_FORCED_STOP (0xB3u)"
00000e7c 535f464c4153 
00000e82 485f41434345 
00000e88 53535f434d44 
00000e8e 5f464f524345 
00000e94 445f53544f50 
00000e9a 202830784233 
00000ea0 752900 
00000ea3 01            11620 	.byte	1
00000ea4 8e01          11621 	.byte	142,1
00000ea6 525f46505359  11622 	.strz	"R_FPSYS_FLASH_ACCESS_CMD_WRITE (0xE8u)"
00000eac 535f464c4153 
00000eb2 485f41434345 
00000eb8 53535f434d44 
00000ebe 5f5752495445 
00000ec4 202830784538 
00000eca 752900 
00000ecd 01            11623 	.byte	1
00000ece 8f01          11624 	.byte	143,1
00000ed0 525f46505359  11625 	.strz	"R_FPSYS_FLASH_ACCESS_CMD_PRG_CFG (0x40u)"
00000ed6 535f464c4153 
00000edc 485f41434345 
00000ee2 53535f434d44 
00000ee8 5f5052475f43 
00000eee 464720283078 
00000ef4 3430752900 
00000ef9 01            11626 	.byte	1
00000efa 9001          11627 	.byte	144,1
00000efc 525f46505359  11628 	.strz	"R_FPSYS_FLASH_ACCESS_CMD_PRG_CFG_OTP (0x45u)"
00000f02 535f464c4153 
00000f08 485f41434345 
00000f0e 53535f434d44 
00000f14 5f5052475f43 
00000f1a 46475f4f5450 
00000f20 202830783435 
00000f26 752900 
00000f29 01            11629 	.byte	1
00000f2a 9101          11630 	.byte	145,1
00000f2c 525f46505359  11631 	.strz	"R_FPSYS_FLASH_ACCESS_CMD_READ_LOCKBIT (0x71u)"
00000f32 535f464c4153 
00000f38 485f41434345 

                                                                      Page 218
                                                              D:\TEMP\gh_00001gs1.s
00000f3e 53535f434d44 
00000f44 5f524541445f 
00000f4a 4c4f434b4249 
00000f50 542028307837 
00000f56 31752900 
00000f5a 01            11632 	.byte	1
00000f5b 9201          11633 	.byte	146,1
00000f5d 525f46505359  11634 	.strz	"R_FPSYS_FLASH_ACCESS_CMD_WRITE_LOCKBIT (0x77u)"
00000f63 535f464c4153 
00000f69 485f41434345 
00000f6f 53535f434d44 
00000f75 5f5752495445 
00000f7b 5f4c4f434b42 
00000f81 495420283078 
00000f87 3737752900 
00000f8c 01            11635 	.byte	1
00000f8d 9301          11636 	.byte	147,1
00000f8f 525f46505359  11637 	.strz	"R_FPSYS_FLASH_ACCESS_CMD_SUSPEND (0xB0u)"
00000f95 535f464c4153 
00000f9b 485f41434345 
00000fa1 53535f434d44 
00000fa7 5f5355535045 
00000fad 4e4420283078 
00000fb3 4230752900 
00000fb8 01            11638 	.byte	1
00000fb9 9401          11639 	.byte	148,1
00000fbb 525f46505359  11640 	.strz	"R_FPSYS_FLASH_ACCESS_CMD_RESUME (0xD0u)"
00000fc1 535f464c4153 
00000fc7 485f41434345 
00000fcd 53535f434d44 
00000fd3 5f524553554d 
00000fd9 452028307844 
00000fdf 30752900 
00000fe3 01            11641 	.byte	1
00000fe4 9501          11642 	.byte	149,1
00000fe6 525f46505359  11643 	.strz	"R_FPSYS_FLASH_ACCESS_CMD_EXE (0xD0u)"
00000fec 535f464c4153 
00000ff2 485f41434345 
00000ff8 53535f434d44 
00000ffe 5f4558452028 
00001004 307844307529 
0000100a 00 
0000100b 01            11644 	.byte	1
0000100c 9701          11645 	.byte	151,1
0000100e 525f46505359  11646 	.strz	"R_FPSYS_CONFIG_AREA_BASE (0xFF300000uL)"
00001014 535f434f4e46 
0000101a 49475f415245 
00001020 415f42415345 
00001026 202830784646 
0000102c 333030303030 
00001032 754c2900 
00001036 01            11647 	.byte	1
00001037 9801          11648 	.byte	152,1
00001039 525f46505359  11649 	.strz	"R_FPSYS_CONFIG_AREA_SEC_FLAGS (R_FPSYS_CONFIG_AREA_BASE + 0x40u)"
0000103f 535f434f4e46 
00001045 49475f415245 
0000104b 415f5345435f 
00001051 464c41475320 
00001057 28525f465053 
0000105d 59535f434f4e 
00001063 4649475f4152 

                                                                      Page 219
                                                              D:\TEMP\gh_00001gs1.s
00001069 45415f424153 
0000106f 45202b203078 
00001075 3430752900 
0000107a 01            11650 	.byte	1
0000107b 9901          11651 	.byte	153,1
0000107d 525f46505359  11652 	.strz	"R_FPSYS_CONFIG_AREA_OCD (R_FPSYS_CONFIG_AREA_BASE + 0x50u)"
00001083 535f434f4e46 
00001089 49475f415245 
0000108f 415f4f434420 
00001095 28525f465053 
0000109b 59535f434f4e 
000010a1 4649475f4152 
000010a7 45415f424153 
000010ad 45202b203078 
000010b3 3530752900 
000010b8 01            11653 	.byte	1
000010b9 9a01          11654 	.byte	154,1
000010bb 525f46505359  11655 	.strz	"R_FPSYS_CONFIG_AREA_RESET (R_FPSYS_CONFIG_AREA_BASE + 0x60u)"
000010c1 535f434f4e46 
000010c7 49475f415245 
000010cd 415f52455345 
000010d3 542028525f46 
000010d9 505359535f43 
000010df 4f4e4649475f 
000010e5 415245415f42 
000010eb 415345202b20 
000010f1 307836307529 
000010f7 00 
000010f8 01            11656 	.byte	1
000010f9 9b01          11657 	.byte	155,1
000010fb 525f46505359  11658 	.strz	"R_FPSYS_CONFIG_AREA_OPTIONBYTES (R_FPSYS_CONFIG_AREA_BASE + 0x70u)"
00001101 535f434f4e46 
00001107 49475f415245 
0000110d 415f4f505449 
00001113 4f4e42595445 
00001119 532028525f46 
0000111f 505359535f43 
00001125 4f4e4649475f 
0000112b 415245415f42 
00001131 415345202b20 
00001137 307837307529 
0000113d 00 
0000113e 01            11659 	.byte	1
0000113f a201          11660 	.byte	162,1
00001141 525f46505359  11661 	.strz	"R_FPSYS_EXTRA3_AREA_BASE (0x00010000uL)"
00001147 535f45585452 
0000114d 41335f415245 
00001153 415f42415345 
00001159 202830783030 
0000115f 303130303030 
00001165 754c2900 
00001169 01            11662 	.byte	1
0000116a a301          11663 	.byte	163,1
0000116c 525f46505359  11664 	.strz	"R_FPSYS_EXTRA3_AREA_SCDS_U32 (R_FPSYS_EXTRA3_AREA_BASE + 0x270uL)"
00001172 535f45585452 
00001178 41335f415245 
0000117e 415f53434453 
00001184 5f5533322028 
0000118a 525f46505359 
00001190 535f45585452 
00001196 41335f415245 

                                                                      Page 220
                                                              D:\TEMP\gh_00001gs1.s
0000119c 415f42415345 
000011a2 202b20307832 
000011a8 3730754c2900 
000011ae 01            11665 	.byte	1
000011af a401          11666 	.byte	164,1
000011b1 525f46505359  11667 	.strz	"R_FPSYS_EXTRA3_AREA_PRDSEL1 (0xC0uL)"
000011b7 535f45585452 
000011bd 41335f415245 
000011c3 415f50524453 
000011c9 454c31202830 
000011cf 784330754c29 
000011d5 00 
000011d6 01            11668 	.byte	1
000011d7 a501          11669 	.byte	165,1
000011d9 525f46505359  11670 	.strz	"R_FPSYS_EXTRA3_AREA_PRDSEL2 (0xC4uL)"
000011df 535f45585452 
000011e5 41335f415245 
000011eb 415f50524453 
000011f1 454c32202830 
000011f7 784334754c29 
000011fd 00 
000011fe 01            11671 	.byte	1
000011ff a601          11672 	.byte	166,1
00001201 525f46505359  11673 	.strz	"R_FPSYS_EXTRA3_AREA_PRDSEL4 (0xCCuL)"
00001207 535f45585452 
0000120d 41335f415245 
00001213 415f50524453 
00001219 454c34202830 
0000121f 784343754c29 
00001225 00 
00001226 01            11674 	.byte	1
00001227 a701          11675 	.byte	167,1
00001229 525f46505359  11676 	.strz	"R_FPSYS_EXTRA3_AREA_PRDNAME1 (0xD0uL)"
0000122f 535f45585452 
00001235 41335f415245 
0000123b 415f5052444e 
00001241 414d45312028 
00001247 30784430754c 
0000124d 2900 
0000124f 01            11677 	.byte	1
00001250 a801          11678 	.byte	168,1
00001252 525f46505359  11679 	.strz	"R_FPSYS_EXTRA3_AREA_PRDNAME2 (0xD4uL)"
00001258 535f45585452 
0000125e 41335f415245 
00001264 415f5052444e 
0000126a 414d45322028 
00001270 30784434754c 
00001276 2900 
00001278 01            11680 	.byte	1
00001279 a901          11681 	.byte	169,1
0000127b 525f46505359  11682 	.strz	"R_FPSYS_EXTRA3_AREA_PRDNAME3 (0xD8uL)"
00001281 535f45585452 
00001287 41335f415245 
0000128d 415f5052444e 
00001293 414d45332028 
00001299 30784438754c 
0000129f 2900 
000012a1 01            11683 	.byte	1
000012a2 aa01          11684 	.byte	170,1
000012a4 525f46505359  11685 	.strz	"R_FPSYS_EXTRA3_AREA_PRDNAME4 (0xDCuL)"
000012aa 535f45585452 

                                                                      Page 221
                                                              D:\TEMP\gh_00001gs1.s
000012b0 41335f415245 
000012b6 415f5052444e 
000012bc 414d45342028 
000012c2 30784443754c 
000012c8 2900 
000012ca 01            11686 	.byte	1
000012cb ab01          11687 	.byte	171,1
000012cd 525f46505359  11688 	.strz	"R_FPSYS_EXTRA3_AREA_FPVER_U08 (R_FPSYS_EXTRA3_AREA_BASE + 0x219uL)"
000012d3 535f45585452 
000012d9 41335f415245 
000012df 415f46505645 
000012e5 525f55303820 
000012eb 28525f465053 
000012f1 59535f455854 
000012f7 5241335f4152 
000012fd 45415f424153 
00001303 45202b203078 
00001309 323139754c29 
0000130f 00 
00001310 01            11689 	.byte	1
00001311 ad01          11690 	.byte	173,1
00001313 525f46505359  11691 	.strz	"R_FPSYS_FPVER_04 (0x04u)"
00001319 535f46505645 
0000131f 525f30342028 
00001325 307830347529 
0000132b 00 
0000132c 01            11692 	.byte	1
0000132d af01          11693 	.byte	175,1
0000132f 525f46505359  11694 	.strz	"R_FPSYS_EXTRA3_AREA_UB_FPVER04_U08 (R_FPSYS_EXTRA3_AREA_BASE + 0x21EuL)"
00001335 535f45585452 
0000133b 41335f415245 
00001341 415f55425f46 
00001347 505645523034 
0000134d 5f5530382028 
00001353 525f46505359 
00001359 535f45585452 
0000135f 41335f415245 
00001365 415f42415345 
0000136b 202b20307832 
00001371 3145754c2900 
00001377 01            11695 	.byte	1
00001378 b001          11696 	.byte	176,1
0000137a 525f46505359  11697 	.strz	"R_FPSYS_EXTRA3_AREA_MAXHCLK_U32 (R_FPSYS_EXTRA3_AREA_BASE + 0x234uL)"
00001380 535f45585452 
00001386 41335f415245 
0000138c 415f4d415848 
00001392 434c4b5f5533 
00001398 322028525f46 
0000139e 505359535f45 
000013a4 58545241335f 
000013aa 415245415f42 
000013b0 415345202b20 
000013b6 307832333475 
000013bc 4c2900 
000013bf 01            11698 	.byte	1
000013c0 b101          11699 	.byte	177,1
000013c2 525f46505359  11700 	.strz	"R_FPSYS_EXTRA3_AREA_MINHCLK_U32 (R_FPSYS_EXTRA3_AREA_BASE + 0x238uL)"
000013c8 535f45585452 
000013ce 41335f415245 
000013d4 415f4d494e48 
000013da 434c4b5f5533 

                                                                      Page 222
                                                              D:\TEMP\gh_00001gs1.s
000013e0 322028525f46 
000013e6 505359535f45 
000013ec 58545241335f 
000013f2 415245415f42 
000013f8 415345202b20 
000013fe 307832333875 
00001404 4c2900 
00001407 01            11701 	.byte	1
00001408 b201          11702 	.byte	178,1
0000140a 525f46505359  11703 	.strz	"R_FPSYS_EXTRA3_AREA_PCLKDIV1_FPVER03_U32 (R_FPSYS_EXTRA3_AREA_BASE + 0x264uL)"
00001410 535f45585452 
00001416 41335f415245 
0000141c 415f50434c4b 
00001422 444956315f46 
00001428 505645523033 
0000142e 5f5533322028 
00001434 525f46505359 
0000143a 535f45585452 
00001440 41335f415245 
00001446 415f42415345 
0000144c 202b20307832 
00001452 3634754c2900 
00001458 01            11704 	.byte	1
00001459 b301          11705 	.byte	179,1
0000145b 525f46505359  11706 	.strz	"R_FPSYS_EXTRA3_AREA_PCLK_FPVER03_U32 (R_FPSYS_EXTRA3_AREA_BASE + 0x274uL)"
00001461 535f45585452 
00001467 41335f415245 
0000146d 415f50434c4b 
00001473 5f4650564552 
00001479 30335f553332 
0000147f 2028525f4650 
00001485 5359535f4558 
0000148b 545241335f41 
00001491 5245415f4241 
00001497 5345202b2030 
0000149d 78323734754c 
000014a3 2900 
000014a5 01            11707 	.byte	1
000014a6 b401          11708 	.byte	180,1
000014a8 525f46505359  11709 	.strz	"R_FPSYS_EXTRA3_AREA_PCLKDIV1_FPVER04_U32 (R_FPSYS_EXTRA3_AREA_BASE + 0x265uL)"
000014ae 535f45585452 
000014b4 41335f415245 
000014ba 415f50434c4b 
000014c0 444956315f46 
000014c6 505645523034 
000014cc 5f5533322028 
000014d2 525f46505359 
000014d8 535f45585452 
000014de 41335f415245 
000014e4 415f42415345 
000014ea 202b20307832 
000014f0 3635754c2900 
000014f6 01            11710 	.byte	1
000014f7 b501          11711 	.byte	181,1
000014f9 525f46505359  11712 	.strz	"R_FPSYS_EXTRA3_AREA_PCLK_FPVER04_U32 (R_FPSYS_EXTRA3_AREA_BASE + 0x278uL)"
000014ff 535f45585452 
00001505 41335f415245 
0000150b 415f50434c4b 
00001511 5f4650564552 
00001517 30345f553332 
0000151d 2028525f4650 

                                                                      Page 223
                                                              D:\TEMP\gh_00001gs1.s
00001523 5359535f4558 
00001529 545241335f41 
0000152f 5245415f4241 
00001535 5345202b2030 
0000153b 78323738754c 
00001541 2900 
00001543 01            11713 	.byte	1
00001544 b701          11714 	.byte	183,1
00001546 525f46505359  11715 	.strz	"R_FPSYS_PRDNAME_E1x_012x (0x00323130u)"
0000154c 535f5052444e 
00001552 414d455f4531 
00001558 785f30313278 
0000155e 202830783030 
00001564 333233313330 
0000156a 752900 
0000156d 01            11716 	.byte	1
0000156e b801          11717 	.byte	184,1
00001570 525f46505359  11718 	.strz	"R_FPSYS_PRDNAME_E1x_01Zx (0x005A3130u)"
00001576 535f5052444e 
0000157c 414d455f4531 
00001582 785f30315a78 
00001588 202830783030 
0000158e 354133313330 
00001594 752900 
00001597 01            11719 	.byte	1
00001598 bb01          11720 	.byte	187,1
0000159a 525f52445052  11721 	.strz	"R_RDPR_FLAG_MASK (0x80000000u)"
000015a0 5f464c41475f 
000015a6 4d41534b2028 
000015ac 307838303030 
000015b2 303030307529 
000015b8 00 
000015b9 01            11722 	.byte	1
000015ba bc01          11723 	.byte	188,1
000015bc 525f57525052  11724 	.strz	"R_WRPR_FLAG_MASK (0x40000000u)"
000015c2 5f464c41475f 
000015c8 4d41534b2028 
000015ce 307834303030 
000015d4 303030307529 
000015da 00 
000015db 01            11725 	.byte	1
000015dc bd01          11726 	.byte	189,1
000015de 525f53455052  11727 	.strz	"R_SEPR_FLAG_MASK (0x20000000u)"
000015e4 5f464c41475f 
000015ea 4d41534b2028 
000015f0 307832303030 
000015f6 303030307529 
000015fc 00 
000015fd 01            11728 	.byte	1
000015fe be01          11729 	.byte	190,1
00001600 525f5350445f  11730 	.strz	"R_SPD_FLAG_MASK (0x08000000u)"
00001606 464c41475f4d 
0000160c 41534b202830 
00001612 783038303030 
00001618 303030752900 
0000161e 01            11731 	.byte	1
0000161f bf01          11732 	.byte	191,1
00001621 525f53504945  11733 	.strz	"R_SPIE_FLAG_MASK (0x01000000u)"
00001627 5f464c41475f 
0000162d 4d41534b2028 
00001633 307830313030 

                                                                      Page 224
                                                              D:\TEMP\gh_00001gs1.s
00001639 303030307529 
0000163f 00 
00001640 01            11734 	.byte	1
00001641 c001          11735 	.byte	192,1
00001643 525f52445052  11736 	.strz	"R_RDPR_FLAG_SHIFT (0x1Fu)"
00001649 5f464c41475f 
0000164f 534849465420 
00001655 283078314675 
0000165b 2900 
0000165d 01            11737 	.byte	1
0000165e c101          11738 	.byte	193,1
00001660 525f57525052  11739 	.strz	"R_WRPR_FLAG_SHIFT (0x1Eu)"
00001666 5f464c41475f 
0000166c 534849465420 
00001672 283078314575 
00001678 2900 
0000167a 01            11740 	.byte	1
0000167b c201          11741 	.byte	194,1
0000167d 525f53455052  11742 	.strz	"R_SEPR_FLAG_SHIFT (0x1Du)"
00001683 5f464c41475f 
00001689 534849465420 
0000168f 283078314475 
00001695 2900 
00001697 01            11743 	.byte	1
00001698 c301          11744 	.byte	195,1
0000169a 525f5350445f  11745 	.strz	"R_SPD_FLAG_SHIFT (0x1Bu)"
000016a0 464c41475f53 
000016a6 484946542028 
000016ac 307831427529 
000016b2 00 
000016b3 01            11746 	.byte	1
000016b4 c401          11747 	.byte	196,1
000016b6 525f53504945  11748 	.strz	"R_SPIE_FLAG_SHIFT (0x18u)"
000016bc 5f464c41475f 
000016c2 534849465420 
000016c8 283078313875 
000016ce 2900 
000016d0 01            11749 	.byte	1
000016d1 c601          11750 	.byte	198,1
000016d3 525f464c495f  11751 	.strz	"R_FLI_BLOCK_SIZE (0x8000u)"
000016d9 424c4f434b5f 
000016df 53495a452028 
000016e5 307838303030 
000016eb 752900 
000016ee 01            11752 	.byte	1
000016ef c701          11753 	.byte	199,1
000016f1 525f464c495f  11754 	.strz	"R_FLI_SMALL_BLOCK_SIZE (0x2000u)"
000016f7 534d414c4c5f 
000016fd 424c4f434b5f 
00001703 53495a452028 
00001709 307832303030 
0000170f 752900 
00001712 01            11755 	.byte	1
00001713 c801          11756 	.byte	200,1
00001715 525f464c495f  11757 	.strz	"R_FLI_BLOCK_TRANSFERSIZE (0x80u)"
0000171b 424c4f434b5f 
00001721 5452414e5346 
00001727 455253495a45 
0000172d 202830783830 
00001733 752900 
00001736 01            11758 	.byte	1

                                                                      Page 225
                                                              D:\TEMP\gh_00001gs1.s
00001737 c901          11759 	.byte	201,1
00001739 525f464c495f  11760 	.strz	"R_FLI_BLOCK_TRANSFERSIZE_PART (0x40u)"
0000173f 424c4f434b5f 
00001745 5452414e5346 
0000174b 455253495a45 
00001751 5f5041525420 
00001757 283078343075 
0000175d 2900 
0000175f 01            11761 	.byte	1
00001760 cb01          11762 	.byte	203,1
00001762 525f5052475f  11763 	.strz	"R_PRG_CFG_TRANSFERSIZE (0x08u)"
00001768 4346475f5452 
0000176e 414e53464552 
00001774 53495a452028 
0000177a 307830387529 
00001780 00 
00001781 01            11764 	.byte	1
00001782 cc01          11765 	.byte	204,1
00001784 525f5052475f  11766 	.strz	"R_PRG_CFG_TRANSFERSIZE_OTP (R_PRG_CFG_TRANSFERSIZE)"
0000178a 4346475f5452 
00001790 414e53464552 
00001796 53495a455f4f 
0000179c 54502028525f 
000017a2 5052475f4346 
000017a8 475f5452414e 
000017ae 534645525349 
000017b4 5a452900 
000017b8 01            11767 	.byte	1
000017b9 cd01          11768 	.byte	205,1
000017bb 525f5052475f  11769 	.strz	"R_PRG_CFG_TRANSFERSIZE_OPB (2 * R_PRG_CFG_TRANSFERSIZE)"
000017c1 4346475f5452 
000017c7 414e53464552 
000017cd 53495a455f4f 
000017d3 504220283220 
000017d9 2a20525f5052 
000017df 475f4346475f 
000017e5 5452414e5346 
000017eb 455253495a45 
000017f1 2900 
000017f3 01            11770 	.byte	1
000017f4 ce01          11771 	.byte	206,1
000017f6 525f5052475f  11772 	.strz	"R_PRG_CFG_TRANSFERSIZE_OCD (R_PRG_CFG_TRANSFERSIZE)"
000017fc 4346475f5452 
00001802 414e53464552 
00001808 53495a455f4f 
0000180e 43442028525f 
00001814 5052475f4346 
0000181a 475f5452414e 
00001820 534645525349 
00001826 5a452900 
0000182a 01            11773 	.byte	1
0000182b cf01          11774 	.byte	207,1
0000182d 525f5052475f  11775 	.strz	"R_PRG_CFG_TRANSFERSIZE_RESET (R_PRG_CFG_TRANSFERSIZE)"
00001833 4346475f5452 
00001839 414e53464552 
0000183f 53495a455f52 
00001845 455345542028 
0000184b 525f5052475f 
00001851 4346475f5452 
00001857 414e53464552 
0000185d 53495a452900 

                                                                      Page 226
                                                              D:\TEMP\gh_00001gs1.s
00001863 01            11776 	.byte	1
00001864 d101          11777 	.byte	209,1
00001866 525f464c495f  11778 	.strz	"R_FLI_USERBOOT_AREA_START (0x01000000u)"
0000186c 55534552424f 
00001872 4f545f415245 
00001878 415f53544152 
0000187e 542028307830 
00001884 313030303030 
0000188a 30752900 
0000188e 01            11779 	.byte	1
0000188f d201          11780 	.byte	210,1
00001891 525f464c495f  11781 	.strz	"R_FLI_USERBOOT_AREA_END (0x01007FFFu)"
00001897 55534552424f 
0000189d 4f545f415245 
000018a3 415f454e4420 
000018a9 283078303130 
000018af 303746464675 
000018b5 2900 
000018b7 01            11782 	.byte	1
000018b8 d301          11783 	.byte	211,1
000018ba 525f46434c5f  11784 	.strz	"R_FCL_USERBOOT_AREA_SELECT (0x80000000u)"
000018c0 55534552424f 
000018c6 4f545f415245 
000018cc 415f53454c45 
000018d2 435420283078 
000018d8 383030303030 
000018de 3030752900 
000018e3 01            11785 	.byte	1
000018e4 d401          11786 	.byte	212,1
000018e6 525f464c495f  11787 	.strz	"R_FLI_USERBOOT_AREA_MASK (0x7FFFFFFFu)"
000018ec 55534552424f 
000018f2 4f545f415245 
000018f8 415f4d41534b 
000018fe 202830783746 
00001904 464646464646 
0000190a 752900 
0000190d 01            11788 	.byte	1
0000190e d601          11789 	.byte	214,1
00001910 525f464c495f  11790 	.strz	"R_FLI_CFLASH2_START (0x00800000u)"
00001916 43464c415348 
0000191c 325f53544152 
00001922 542028307830 
00001928 303830303030 
0000192e 30752900 
00001932 01            11791 	.byte	1
00001933 db01          11792 	.byte	219,1
00001935 525f464c495f  11793 	.strz	"R_FLI_MIN_WRITESIZE (2 * R_FLI_BLOCK_TRANSFERSIZE)"
0000193b 4d494e5f5752 
00001941 49544553495a 
00001947 45202832202a 
0000194d 20525f464c49 
00001953 5f424c4f434b 
00001959 5f5452414e53 
0000195f 46455253495a 
00001965 452900 
00001968 04            11794 	.byte	4
00001969 04            11795 	.byte	4
0000196a 00            11796 	.byte	0
                       11797 	.section	.debug_abbrev
00000191 00            11798 	.byte	0
                       11799 	.section	.debug_info

                                                                      Page 227
                                                              D:\TEMP\gh_00001gs1.s
                       11800 .Ldw_end:
                       11801 .rh850_flags REGMODE32,DATA_ALIGN8,GP_FIX,EP_NONFIX,TP_FIX,REG2_RESERVE,G3M,SDA_EXTRA_REGS_0
